 libnp

 Timestamp is 69fdfe51 (Fri May 08 10:16:33 2026)

 Preferred load address is 10000000

 Start         Length     Name                   Class
 0001:00000000 000a25afH .text                   CODE
 0001:000a25b0 00008f65H .text$x                 CODE
 0001:000ab520 00003022H .text$yc                CODE
 0001:000ae550 00001a03H .text$yd                CODE
 0002:00000000 00000104H .CRT$XCA                DATA
 0002:00000104 00000104H .CRT$XCC                DATA
 0002:00000208 0000022aH .CRT$XCU                DATA
 0002:00000434 00000104H .CRT$XCZ                DATA
 0002:00000538 00000104H .CRT$XIA                DATA
 0002:0000063c 00000113H .CRT$XIC                DATA
 0002:00000750 00000104H .CRT$XIZ                DATA
 0002:00000854 00000104H .CRT$XPA                DATA
 0002:00000958 00000109H .CRT$XPX                DATA
 0002:00000a64 00000104H .CRT$XPXA               DATA
 0002:00000b68 00000104H .CRT$XPZ                DATA
 0002:00000c6c 00000104H .CRT$XTA                DATA
 0002:00000d70 00000104H .CRT$XTZ                DATA
 0002:00000e80 00013d86H .rdata                  DATA
 0002:00014c08 000001b1H .rdata$debug            DATA
 0002:00014dbc 0000443bH .rdata$r                DATA
 0002:00019200 00000af9H .rdata$sxdata           DATA
 0002:00019cfc 00000104H .rtc$IAA                DATA
 0002:00019e00 00000104H .rtc$IMZ                DATA
 0002:00019f04 00000104H .rtc$IZZ                DATA
 0002:0001a008 00000104H .rtc$TAA                DATA
 0002:0001a10c 00000104H .rtc$TMZ                DATA
 0002:0001a210 00000104H .rtc$TZZ                DATA
 0002:0001a318 000081baH .xdata$x                DATA
 0002:000224e0 000006f4H .edata                  DATA
 0003:00000000 000040beH .data                   DATA
 0003:000040c0 0139e6c0H .bss                    DATA
 0004:00000000 00000028H .idata$2                DATA
 0004:00000028 00000014H .idata$3                DATA
 0004:0000003c 0000025cH .idata$4                DATA
 0004:00000298 0000025cH .idata$5                DATA
 0004:000004f4 000008cfH .idata$6                DATA
 0005:00000000 00000169H .rsrc$01                DATA
 0005:00000170 000002ccH .rsrc$02                DATA

  Address         Publics by Value              Rva+Base       Lib:Object

 0000:00000000       __except_list              00000000     <absolute>
 0000:00000214       ___safe_se_handler_count   00000214     <absolute>
 0000:00000000       ___ImageBase               10000000     <linker-defined>
 0001:000076a0       ??$_Allocate@D@std@@YAPADIPAD@Z 100086a0 f i API.obj
 0001:00007700       ??$addressof@D@std@@YAPADAAD@Z 10008700 f i API.obj
 0001:00007720       ??$construct@PADAAPAD@?$_Wrap_alloc@V?$allocator@D@std@@@std@@QAEXPAPADAAPAD@Z 10008720 f i API.obj
 0001:00007760       ??$construct@PADAAPAD@?$allocator@D@std@@QAEXPAPADAAPAD@Z 10008760 f i API.obj
 0001:00007810       ??$construct@PADAAPAD@?$allocator_traits@V?$allocator@D@std@@@std@@SAXAAV?$allocator@D@1@PAPADAAPAD@Z 10008810 f i API.obj
 0001:00007850       ??$destroy@PAD@?$_Wrap_alloc@V?$allocator@D@std@@@std@@QAEXPAPAD@Z 10008850 f i API.obj
 0001:00007880       ??$destroy@PAD@?$allocator@D@std@@QAEXPAPAD@Z 10008880 f i API.obj
 0001:000078a0       ??$destroy@PAD@?$allocator_traits@V?$allocator@D@std@@@std@@SAXAAV?$allocator@D@1@PAPAD@Z 100088a0 f i API.obj
 0001:000078d0       ??$forward@AAPAD@std@@YAAAPADAAPAD@Z 100088d0 f i API.obj
 0001:000078f0       ??0?$_String_alloc@$0A@U?$_String_base_types@DV?$allocator@D@std@@@std@@@std@@QAE@ABV?$allocator@D@1@@Z 100088f0 f i API.obj
 0001:00007920       ??0?$_String_val@U?$_Simple_types@D@std@@@std@@QAE@XZ 10008920 f i API.obj
 0001:00007960       ??0?$_Wrap_alloc@V?$allocator@D@std@@@std@@QAE@XZ 10008960 f i API.obj
 0001:00007990       ??0?$allocator@D@std@@QAE@XZ 10008990 f i API.obj
 0001:000079b0       ??0?$basic_string@DU?$char_traits@D@std@@V?$allocator@D@2@@std@@QAE@PBD@Z 100089b0 f i API.obj
 0001:00007a10       ??0_Generic_error_category@std@@QAE@XZ 10008a10 f i API.obj
 0001:00007a40       ??0_Iostream_error_category@std@@QAE@XZ 10008a40 f i API.obj
 0001:00007a70       ??0_System_error_category@std@@QAE@XZ 10008a70 f i API.obj
 0001:00007aa0       ??0error_category@std@@QAE@XZ 10008aa0 f i API.obj
 0001:00007ad0       ??0error_condition@std@@QAE@HABVerror_category@1@@Z 10008ad0 f i API.obj
 0001:00007b10       ??0id@locale@std@@QAE@I@Z  10008b10 f i API.obj
 0001:00007b40       ??1_Generic_error_category@std@@UAE@XZ 10008b40 f i API.obj
 0001:00007b70       ??1_Iostream_error_category@std@@UAE@XZ 10008b70 f i API.obj
 0001:00007ba0       ??1_System_error_category@std@@UAE@XZ 10008ba0 f i API.obj
 0001:00007bd0       ??1error_category@std@@UAE@XZ 10008bd0 f i API.obj
 0001:00007c00       ??2@YAPAXIPAX@Z            10008c00 f i API.obj
 0001:00007c20       ??3@YAXPAX0@Z              10008c20 f i API.obj
 0001:00007c40       ??8error_category@std@@QBE_NABV01@@Z 10008c40 f i API.obj
 0001:00007c80       ??8error_condition@std@@QBE_NABV01@@Z 10008c80 f i API.obj
 0001:00007d00       ??_G_Generic_error_category@std@@UAEPAXI@Z 10008d00 f i API.obj
 0001:00007d00       ??_E_Generic_error_category@std@@UAEPAXI@Z 10008d00 f i API.obj
 0001:00007d50       ??_G_Iostream_error_category@std@@UAEPAXI@Z 10008d50 f i API.obj
 0001:00007d50       ??_E_Iostream_error_category@std@@UAEPAXI@Z 10008d50 f i API.obj
 0001:00007da0       ??_E_System_error_category@std@@UAEPAXI@Z 10008da0 f i API.obj
 0001:00007da0       ??_G_System_error_category@std@@UAEPAXI@Z 10008da0 f i API.obj
 0001:00007df0       ??_Gerror_category@std@@UAEPAXI@Z 10008df0 f i API.obj
 0001:00007df0       ??_Eerror_category@std@@UAEPAXI@Z 10008df0 f i API.obj
 0001:00007e40       ?_Copy@?$basic_string@DU?$char_traits@D@std@@V?$allocator@D@2@@std@@QAEXII@Z 10008e40 f i API.obj
 0001:00008070       ?_Eos@?$basic_string@DU?$char_traits@D@std@@V?$allocator@D@2@@std@@QAEXI@Z 10009070 f i API.obj
 0001:000080c0       ?_Getal@?$_String_alloc@$0A@U?$_String_base_types@DV?$allocator@D@std@@@std@@@std@@QBE?AU?$_Wrap_alloc@V?$allocator@D@std@@@2@XZ 100090c0 f i API.obj
 0001:000080f0       ?_Grow@?$basic_string@DU?$char_traits@D@std@@V?$allocator@D@2@@std@@QAE_NI_N@Z 100090f0 f i API.obj
 0001:000081d0       ?_Inside@?$basic_string@DU?$char_traits@D@std@@V?$allocator@D@2@@std@@QAE_NPBD@Z 100091d0 f i API.obj
 0001:00008230       ?_Myptr@?$_String_val@U?$_Simple_types@D@std@@@std@@QAEPADXZ 10009230 f i API.obj
 0001:00008280       ?_Myptr@?$_String_val@U?$_Simple_types@D@std@@@std@@QBEPBDXZ 10009280 f i API.obj
 0001:000082d0       ?_Tidy@?$basic_string@DU?$char_traits@D@std@@V?$allocator@D@2@@std@@QAEX_NI@Z 100092d0 f i API.obj
 0001:000083a0       ?_Xlen@?$basic_string@DU?$char_traits@D@std@@V?$allocator@D@2@@std@@QBEXXZ 100093a0 f i API.obj
 0001:000083d0       ?_Xran@?$basic_string@DU?$char_traits@D@std@@V?$allocator@D@2@@std@@QBEXXZ 100093d0 f i API.obj
 0001:00008400       ?allocate@?$_Wrap_alloc@V?$allocator@D@std@@@std@@QAEPADI@Z 10009400 f i API.obj
 0001:00008430       ?allocate@?$allocator@D@std@@QAEPADI@Z 10009430 f i API.obj
 0001:00008460       ?assign@?$basic_string@DU?$char_traits@D@std@@V?$allocator@D@2@@std@@QAEAAV12@ABV12@II@Z 10009460 f i API.obj
 0001:00008540       ?assign@?$basic_string@DU?$char_traits@D@std@@V?$allocator@D@2@@std@@QAEAAV12@PBD@Z 10009540 f i API.obj
 0001:00008580       ?assign@?$basic_string@DU?$char_traits@D@std@@V?$allocator@D@2@@std@@QAEAAV12@PBDI@Z 10009580 f i API.obj
 0001:00008630       ?assign@?$char_traits@D@std@@SAXAADABD@Z 10009630 f i API.obj
 0001:00008650       ?category@error_code@std@@QBEABVerror_category@2@XZ 10009650 f i API.obj
 0001:00008670       ?category@error_condition@std@@QBEABVerror_category@2@XZ 10009670 f i API.obj
 0001:00008690       ?copy@?$char_traits@D@std@@SAPADPADPBDI@Z 10009690 f i API.obj
 0001:000086e0       ?deallocate@?$_Wrap_alloc@V?$allocator@D@std@@@std@@QAEXPADI@Z 100096e0 f i API.obj
 0001:00008710       ?deallocate@?$allocator@D@std@@QAEXPADI@Z 10009710 f i API.obj
 0001:00008740       ?default_error_condition@_System_error_category@std@@UBE?AVerror_condition@2@H@Z 10009740 f i API.obj
 0001:000087b0       ?default_error_condition@error_category@std@@UBE?AVerror_condition@2@H@Z 100097b0 f i API.obj
 0001:000087f0       ?equivalent@error_category@std@@UBE_NABVerror_code@2@H@Z 100097f0 f i API.obj
 0001:00008850       ?equivalent@error_category@std@@UBE_NHABVerror_condition@2@@Z 10009850 f i API.obj
 0001:000088a0       ?erase@?$basic_string@DU?$char_traits@D@std@@V?$allocator@D@2@@std@@QAEAAV12@I@Z 100098a0 f i API.obj
 0001:000088f0       ?erase@?$basic_string@DU?$char_traits@D@std@@V?$allocator@D@2@@std@@QAEAAV12@II@Z 100098f0 f i API.obj
 0001:000089a0       ?generic_category@std@@YAABVerror_category@1@XZ 100099a0 f i API.obj
 0001:000089c0       ?length@?$char_traits@D@std@@SAIPBD@Z 100099c0 f i API.obj
 0001:00008a10       ?max_size@?$_Wrap_alloc@V?$allocator@D@std@@@std@@QBEIXZ 10009a10 f i API.obj
 0001:00008a40       ?max_size@?$allocator@D@std@@QBEIXZ 10009a40 f i API.obj
 0001:00008a60       ?max_size@?$allocator_traits@V?$allocator@D@std@@@std@@SAIABV?$allocator@D@2@@Z 10009a60 f i API.obj
 0001:00008a80       ?max_size@?$basic_string@DU?$char_traits@D@std@@V?$allocator@D@2@@std@@QBEIXZ 10009a80 f i API.obj
 0001:00008ae0       ?message@_Generic_error_category@std@@UBE?AV?$basic_string@DU?$char_traits@D@std@@V?$allocator@D@2@@2@H@Z 10009ae0 f i API.obj
 0001:00008b50       ?message@_Iostream_error_category@std@@UBE?AV?$basic_string@DU?$char_traits@D@std@@V?$allocator@D@2@@2@H@Z 10009b50 f i API.obj
 0001:00008bd0       ?message@_System_error_category@std@@UBE?AV?$basic_string@DU?$char_traits@D@std@@V?$allocator@D@2@@2@H@Z 10009bd0 f i API.obj
 0001:00008c40       ?move@?$char_traits@D@std@@SAPADPADPBDI@Z 10009c40 f i API.obj
 0001:00008c90       ?name@_Generic_error_category@std@@UBEPBDXZ 10009c90 f i API.obj
 0001:00008cb0       ?name@_Iostream_error_category@std@@UBEPBDXZ 10009cb0 f i API.obj
 0001:00008cd0       ?name@_System_error_category@std@@UBEPBDXZ 10009cd0 f i API.obj
 0001:00008cf0       ?size@?$basic_string@DU?$char_traits@D@std@@V?$allocator@D@2@@std@@QBEIXZ 10009cf0 f i API.obj
 0001:00008d10       ?system_category@std@@YAABVerror_category@1@XZ 10009d10 f i API.obj
 0001:00008d30       ?value@error_code@std@@QBEHXZ 10009d30 f i API.obj
 0001:00008d50       ?value@error_condition@std@@QBEHXZ 10009d50 f i API.obj
 0001:00008d70       _DllMain@12                10009d70 f   API.obj
 0001:00008e40       _NP_Init                   10009e40 f   API.obj
 0001:00008e80       _NP_RunFrame               10009e80 f   API.obj
 0001:00008ea0       _NP_Shutdown               10009ea0 f   API.obj
 0001:00008ec0       ?CI_GetFunctionPointers@@YAXPAPAPAXPAH@Z 10009ec0 f   CI.obj
 0001:00008ef0       ?CI_SendStatus@@YAXPBD@Z   10009ef0 f   CI.obj
 0001:00008fc0       ??$forward@V?$basic_string@DU?$char_traits@D@std@@V?$allocator@D@2@@std@@@std@@YA$$QAV?$basic_string@DU?$char_traits@D@std@@V?$allocator@D@2@@0@AAV10@@Z 10009fc0 f i CI.obj
 0001:00008fe0       ??0?$NPRPCBuffer@VStorageSendRandomStringMessage@@@@QAE@XZ 10009fe0 f i CI.obj
 0001:00009020       ??0?$basic_string@DU?$char_traits@D@std@@V?$allocator@D@2@@std@@QAE@$$QAV01@@Z 1000a020 f i CI.obj
 0001:00009090       ??0?$basic_string@DU?$char_traits@D@std@@V?$allocator@D@2@@std@@QAE@XZ 1000a090 f i CI.obj
 0001:000090d0       ??0INPRPCMessage@@QAE@XZ   1000a0d0 f i CI.obj
 0001:00009100       ??0IRPCBuffer@@QAE@XZ      1000a100 f i CI.obj
 0001:00009130       ??0RPCStorageSendRandomStringMessage@@QAE@XZ 1000a130 f i CI.obj
 0001:00009180       ??1?$basic_string@DU?$char_traits@D@std@@V?$allocator@D@2@@std@@QAE@XZ 1000a180 f i CI.obj
 0001:000091b0       ?CI_Dummy@@YAXPAV?$NPAsync@VNPGetPublisherFileResult@@@@@Z 1000a1b0 f   CI.obj
 0001:000091d0       ?CI_InitDLL@@YAXXZ         1000a1d0 f   CI.obj
 0001:00009220       ?CI_Initialize@@YAXD@Z     1000a220 f   CI.obj
 0001:000093b0       ?CI_InitializeGameDLL@@YAXPBD@Z 1000a3b0 f   CI.obj
 0001:00009440       ?CI_ObtainedRT@@YAXPAV?$NPAsync@VNPGetPublisherFileResult@@@@@Z 1000a440 f   CI.obj
 0001:000097d0       ?CI_Shutdown@@YAXXZ        1000a7d0 f   CI.obj
 0001:000097f0       ?Deserialize@?$NPRPCBuffer@VStorageSendRandomStringMessage@@@@UAEXPBEI@Z 1000a7f0 f i CI.obj
 0001:00009830       ?Serialize@?$NPRPCBuffer@VStorageSendRandomStringMessage@@@@UAE?AV?$basic_string@DU?$char_traits@D@std@@V?$allocator@D@2@@std@@XZ 1000a830 f i CI.obj
 0001:000098f0       ?_Assign_rv@?$basic_string@DU?$char_traits@D@std@@V?$allocator@D@2@@std@@QAEX$$QAV12@@Z 1000a8f0 f i CI.obj
 0001:000099a0       ?set_has_randomstring@StorageSendRandomStringMessage@@AAEXXZ 1000a9a0 f i CI.obj
 0001:000099f0       ?set_randomstring@StorageSendRandomStringMessage@@QAEXPBD@Z 1000a9f0 f i CI.obj
 0001:0000a030       _MemoryFreeLibrary         1000b030 f   MemoryModule.obj
 0001:0000a150       _MemoryGetProcAddress      1000b150 f   MemoryModule.obj
 0001:0000a290       _MemoryLoadLibrary         1000b290 f   MemoryModule.obj
 0001:0000a4e0       _PEmemrandom               1000b4e0 f   MemoryModule.obj
 0001:0000a560       _PErandomstr               1000b560 f   MemoryModule.obj
 0001:0000a6f0       ?Create@RPCAuthenticateValidateTicketResultMessage@@SAPAV1@XZ 1000b6f0 f   MessageDefinition.obj
 0001:0000a790       ?Create@RPCServersCreateSessionResultMessage@@SAPAV1@XZ 1000b790 f   MessageDefinition.obj
 0001:0000a830       ?Create@RPCAuthenticateRegisterServerMessage@@SAPAV1@XZ 1000b830 f   MessageDefinition.obj
 0001:0000a8d0       ?Create@RPCServersGetSessionsMessage@@SAPAV1@XZ 1000b8d0 f   MessageDefinition.obj
 0001:0000a970       ?Create@RPCAuthenticateRegisterServerResultMessage@@SAPAV1@XZ 1000b970 f   MessageDefinition.obj
 0001:0000aa10       ?Create@RPCServersGetSessionsResultMessage@@SAPAV1@XZ 1000ba10 f   MessageDefinition.obj
 0001:0000aab0       ?Create@RPCStorageGetPublisherFileMessage@@SAPAV1@XZ 1000bab0 f   MessageDefinition.obj
 0001:0000ab50       ?Create@RPCServersUpdateSessionMessage@@SAPAV1@XZ 1000bb50 f   MessageDefinition.obj
 0001:0000abf0       ?Create@RPCStoragePublisherFileMessage@@SAPAV1@XZ 1000bbf0 f   MessageDefinition.obj
 0001:0000ac90       ?Create@RPCServersUpdateSessionResultMessage@@SAPAV1@XZ 1000bc90 f   MessageDefinition.obj
 0001:0000ad30       ?Create@RPCStorageGetUserFileMessage@@SAPAV1@XZ 1000bd30 f   MessageDefinition.obj
 0001:0000add0       ?Create@RPCServersDeleteSessionMessage@@SAPAV1@XZ 1000bdd0 f   MessageDefinition.obj
 0001:0000ae70       ?Create@RPCStorageUserFileMessage@@SAPAV1@XZ 1000be70 f   MessageDefinition.obj
 0001:0000af10       ?Create@RPCServersDeleteSessionResultMessage@@SAPAV1@XZ 1000bf10 f   MessageDefinition.obj
 0001:0000afb0       ?Create@RPCStorageWriteUserFileMessage@@SAPAV1@XZ 1000bfb0 f   MessageDefinition.obj
 0001:0000b050       ?Create@RPCCloseAppMessage@@SAPAV1@XZ 1000c050 f   MessageDefinition.obj
 0001:0000b0f0       ?Create@RPCStorageWriteUserFileResultMessage@@SAPAV1@XZ 1000c0f0 f   MessageDefinition.obj
 0001:0000b190       ?Create@RPCMessagingSendDataMessage@@SAPAV1@XZ 1000c190 f   MessageDefinition.obj
 0001:0000b230       ?Create@RPCStorageSendRandomStringMessage@@SAPAV1@XZ 1000c230 f   MessageDefinition.obj
 0001:0000b2d0       ?Create@RPCHelloMessage@@SAPAV1@XZ 1000c2d0 f   MessageDefinition.obj
 0001:0000b370       ?Create@RPCFriendsSetSteamIDMessage@@SAPAV1@XZ 1000c370 f   MessageDefinition.obj
 0001:0000b410       ?Create@RPCAuthenticateWithKeyMessage@@SAPAV1@XZ 1000c410 f   MessageDefinition.obj
 0001:0000b4b0       ?Create@RPCFriendsGetProfileDataMessage@@SAPAV1@XZ 1000c4b0 f   MessageDefinition.obj
 0001:0000b550       ?Create@RPCAuthenticateWithDetailsMessage@@SAPAV1@XZ 1000c550 f   MessageDefinition.obj
 0001:0000b5f0       ?Create@RPCFriendsGetProfileDataResultMessage@@SAPAV1@XZ 1000c5f0 f   MessageDefinition.obj
 0001:0000b690       ?Create@RPCAuthenticateWithTokenMessage@@SAPAV1@XZ 1000c690 f   MessageDefinition.obj
 0001:0000b730       ?Create@RPCFriendsRosterMessage@@SAPAV1@XZ 1000c730 f   MessageDefinition.obj
 0001:0000b7d0       ?Create@RPCAuthenticateValidateTicketMessage@@SAPAV1@XZ 1000c7d0 f   MessageDefinition.obj
 0001:0000b870       ?Create@RPCFriendsPresenceMessage@@SAPAV1@XZ 1000c870 f   MessageDefinition.obj
 0001:0000b910       ?Create@RPCAuthenticateKickUserMessage@@SAPAV1@XZ 1000c910 f   MessageDefinition.obj
 0001:0000b9b0       ?Create@RPCFriendsSetPresenceMessage@@SAPAV1@XZ 1000c9b0 f   MessageDefinition.obj
 0001:0000ba50       ?Create@RPCAuthenticateExternalStatusMessage@@SAPAV1@XZ 1000ca50 f   MessageDefinition.obj
 0001:0000baf0       ?Create@RPCFriendsGetUserAvatarMessage@@SAPAV1@XZ 1000caf0 f   MessageDefinition.obj
 0001:0000bb90       ?Create@RPCAuthenticateResultMessage@@SAPAV1@XZ 1000cb90 f   MessageDefinition.obj
 0001:0000bc30       ?Create@RPCFriendsGetUserAvatarResultMessage@@SAPAV1@XZ 1000cc30 f   MessageDefinition.obj
 0001:0000bcd0       ?Create@RPCAuthenticateUserGroupMessage@@SAPAV1@XZ 1000ccd0 f   MessageDefinition.obj
 0001:0000bd70       ?Create@RPCServersCreateSessionMessage@@SAPAV1@XZ 1000cd70 f   MessageDefinition.obj
 0001:0000be10       ??0?$NPRPCBuffer@VAuthenticateExternalStatusMessage@@@@QAE@XZ 1000ce10 f i MessageDefinition.obj
 0001:0000be50       ??0?$NPRPCBuffer@VAuthenticateKickUserMessage@@@@QAE@XZ 1000ce50 f i MessageDefinition.obj
 0001:0000be90       ??0?$NPRPCBuffer@VAuthenticateRegisterServerMessage@@@@QAE@XZ 1000ce90 f i MessageDefinition.obj
 0001:0000bed0       ??0?$NPRPCBuffer@VAuthenticateRegisterServerResultMessage@@@@QAE@XZ 1000ced0 f i MessageDefinition.obj
 0001:0000bf10       ??0?$NPRPCBuffer@VAuthenticateResultMessage@@@@QAE@XZ 1000cf10 f i MessageDefinition.obj
 0001:0000bf50       ??0?$NPRPCBuffer@VAuthenticateUserGroupMessage@@@@QAE@XZ 1000cf50 f i MessageDefinition.obj
 0001:0000bf90       ??0?$NPRPCBuffer@VAuthenticateValidateTicketMessage@@@@QAE@XZ 1000cf90 f i MessageDefinition.obj
 0001:0000bfd0       ??0?$NPRPCBuffer@VAuthenticateValidateTicketResultMessage@@@@QAE@XZ 1000cfd0 f i MessageDefinition.obj
 0001:0000c010       ??0?$NPRPCBuffer@VAuthenticateWithDetailsMessage@@@@QAE@XZ 1000d010 f i MessageDefinition.obj
 0001:0000c050       ??0?$NPRPCBuffer@VAuthenticateWithKeyMessage@@@@QAE@XZ 1000d050 f i MessageDefinition.obj
 0001:0000c090       ??0?$NPRPCBuffer@VAuthenticateWithTokenMessage@@@@QAE@XZ 1000d090 f i MessageDefinition.obj
 0001:0000c0d0       ??0?$NPRPCBuffer@VCloseAppMessage@@@@QAE@XZ 1000d0d0 f i MessageDefinition.obj
 0001:0000c110       ??0?$NPRPCBuffer@VFriendsGetProfileDataMessage@@@@QAE@XZ 1000d110 f i MessageDefinition.obj
 0001:0000c150       ??0?$NPRPCBuffer@VFriendsGetProfileDataResultMessage@@@@QAE@XZ 1000d150 f i MessageDefinition.obj
 0001:0000c190       ??0?$NPRPCBuffer@VFriendsGetUserAvatarMessage@@@@QAE@XZ 1000d190 f i MessageDefinition.obj
 0001:0000c1d0       ??0?$NPRPCBuffer@VFriendsGetUserAvatarResultMessage@@@@QAE@XZ 1000d1d0 f i MessageDefinition.obj
 0001:0000c210       ??0?$NPRPCBuffer@VFriendsPresenceMessage@@@@QAE@XZ 1000d210 f i MessageDefinition.obj
 0001:0000c250       ??0?$NPRPCBuffer@VFriendsRosterMessage@@@@QAE@XZ 1000d250 f i MessageDefinition.obj
 0001:0000c290       ??0?$NPRPCBuffer@VFriendsSetPresenceMessage@@@@QAE@XZ 1000d290 f i MessageDefinition.obj
 0001:0000c2d0       ??0?$NPRPCBuffer@VFriendsSetSteamIDMessage@@@@QAE@XZ 1000d2d0 f i MessageDefinition.obj
 0001:0000c310       ??0?$NPRPCBuffer@VHelloMessage@@@@QAE@XZ 1000d310 f i MessageDefinition.obj
 0001:0000c350       ??0?$NPRPCBuffer@VMessagingSendDataMessage@@@@QAE@XZ 1000d350 f i MessageDefinition.obj
 0001:0000c390       ??0?$NPRPCBuffer@VServersCreateSessionMessage@@@@QAE@XZ 1000d390 f i MessageDefinition.obj
 0001:0000c3d0       ??0?$NPRPCBuffer@VServersCreateSessionResultMessage@@@@QAE@XZ 1000d3d0 f i MessageDefinition.obj
 0001:0000c410       ??0?$NPRPCBuffer@VServersDeleteSessionMessage@@@@QAE@XZ 1000d410 f i MessageDefinition.obj
 0001:0000c450       ??0?$NPRPCBuffer@VServersDeleteSessionResultMessage@@@@QAE@XZ 1000d450 f i MessageDefinition.obj
 0001:0000c490       ??0?$NPRPCBuffer@VServersGetSessionsMessage@@@@QAE@XZ 1000d490 f i MessageDefinition.obj
 0001:0000c4d0       ??0?$NPRPCBuffer@VServersGetSessionsResultMessage@@@@QAE@XZ 1000d4d0 f i MessageDefinition.obj
 0001:0000c510       ??0?$NPRPCBuffer@VServersUpdateSessionMessage@@@@QAE@XZ 1000d510 f i MessageDefinition.obj
 0001:0000c550       ??0?$NPRPCBuffer@VServersUpdateSessionResultMessage@@@@QAE@XZ 1000d550 f i MessageDefinition.obj
 0001:0000c590       ??0?$NPRPCBuffer@VStorageGetPublisherFileMessage@@@@QAE@XZ 1000d590 f i MessageDefinition.obj
 0001:0000c5d0       ??0?$NPRPCBuffer@VStorageGetUserFileMessage@@@@QAE@XZ 1000d5d0 f i MessageDefinition.obj
 0001:0000c610       ??0?$NPRPCBuffer@VStoragePublisherFileMessage@@@@QAE@XZ 1000d610 f i MessageDefinition.obj
 0001:0000c650       ??0?$NPRPCBuffer@VStorageUserFileMessage@@@@QAE@XZ 1000d650 f i MessageDefinition.obj
 0001:0000c690       ??0?$NPRPCBuffer@VStorageWriteUserFileMessage@@@@QAE@XZ 1000d690 f i MessageDefinition.obj
 0001:0000c6d0       ??0?$NPRPCBuffer@VStorageWriteUserFileResultMessage@@@@QAE@XZ 1000d6d0 f i MessageDefinition.obj
 0001:0000c710       ??0RPCAuthenticateExternalStatusMessage@@QAE@XZ 1000d710 f i MessageDefinition.obj
 0001:0000c760       ??0RPCAuthenticateKickUserMessage@@QAE@XZ 1000d760 f i MessageDefinition.obj
 0001:0000c7b0       ??0RPCAuthenticateRegisterServerMessage@@QAE@XZ 1000d7b0 f i MessageDefinition.obj
 0001:0000c800       ??0RPCAuthenticateRegisterServerResultMessage@@QAE@XZ 1000d800 f i MessageDefinition.obj
 0001:0000c850       ??0RPCAuthenticateResultMessage@@QAE@XZ 1000d850 f i MessageDefinition.obj
 0001:0000c8a0       ??0RPCAuthenticateUserGroupMessage@@QAE@XZ 1000d8a0 f i MessageDefinition.obj
 0001:0000c8f0       ??0RPCAuthenticateValidateTicketMessage@@QAE@XZ 1000d8f0 f i MessageDefinition.obj
 0001:0000c940       ??0RPCAuthenticateValidateTicketResultMessage@@QAE@XZ 1000d940 f i MessageDefinition.obj
 0001:0000c990       ??0RPCAuthenticateWithDetailsMessage@@QAE@XZ 1000d990 f i MessageDefinition.obj
 0001:0000c9e0       ??0RPCAuthenticateWithKeyMessage@@QAE@XZ 1000d9e0 f i MessageDefinition.obj
 0001:0000ca30       ??0RPCAuthenticateWithTokenMessage@@QAE@XZ 1000da30 f i MessageDefinition.obj
 0001:0000ca80       ??0RPCCloseAppMessage@@QAE@XZ 1000da80 f i MessageDefinition.obj
 0001:0000cad0       ??0RPCFriendsGetProfileDataMessage@@QAE@XZ 1000dad0 f i MessageDefinition.obj
 0001:0000cb20       ??0RPCFriendsGetProfileDataResultMessage@@QAE@XZ 1000db20 f i MessageDefinition.obj
 0001:0000cb70       ??0RPCFriendsGetUserAvatarMessage@@QAE@XZ 1000db70 f i MessageDefinition.obj
 0001:0000cbc0       ??0RPCFriendsGetUserAvatarResultMessage@@QAE@XZ 1000dbc0 f i MessageDefinition.obj
 0001:0000cc10       ??0RPCFriendsPresenceMessage@@QAE@XZ 1000dc10 f i MessageDefinition.obj
 0001:0000cc60       ??0RPCFriendsRosterMessage@@QAE@XZ 1000dc60 f i MessageDefinition.obj
 0001:0000ccb0       ??0RPCFriendsSetPresenceMessage@@QAE@XZ 1000dcb0 f i MessageDefinition.obj
 0001:0000cd00       ??0RPCFriendsSetSteamIDMessage@@QAE@XZ 1000dd00 f i MessageDefinition.obj
 0001:0000cd50       ??0RPCHelloMessage@@QAE@XZ 1000dd50 f i MessageDefinition.obj
 0001:0000cda0       ??0RPCMessagingSendDataMessage@@QAE@XZ 1000dda0 f i MessageDefinition.obj
 0001:0000cdf0       ??0RPCServersCreateSessionMessage@@QAE@XZ 1000ddf0 f i MessageDefinition.obj
 0001:0000ce40       ??0RPCServersCreateSessionResultMessage@@QAE@XZ 1000de40 f i MessageDefinition.obj
 0001:0000ce90       ??0RPCServersDeleteSessionMessage@@QAE@XZ 1000de90 f i MessageDefinition.obj
 0001:0000cee0       ??0RPCServersDeleteSessionResultMessage@@QAE@XZ 1000dee0 f i MessageDefinition.obj
 0001:0000cf30       ??0RPCServersGetSessionsMessage@@QAE@XZ 1000df30 f i MessageDefinition.obj
 0001:0000cf80       ??0RPCServersGetSessionsResultMessage@@QAE@XZ 1000df80 f i MessageDefinition.obj
 0001:0000cfd0       ??0RPCServersUpdateSessionMessage@@QAE@XZ 1000dfd0 f i MessageDefinition.obj
 0001:0000d020       ??0RPCServersUpdateSessionResultMessage@@QAE@XZ 1000e020 f i MessageDefinition.obj
 0001:0000d070       ??0RPCStorageGetPublisherFileMessage@@QAE@XZ 1000e070 f i MessageDefinition.obj
 0001:0000d0c0       ??0RPCStorageGetUserFileMessage@@QAE@XZ 1000e0c0 f i MessageDefinition.obj
 0001:0000d110       ??0RPCStoragePublisherFileMessage@@QAE@XZ 1000e110 f i MessageDefinition.obj
 0001:0000d160       ??0RPCStorageUserFileMessage@@QAE@XZ 1000e160 f i MessageDefinition.obj
 0001:0000d1b0       ??0RPCStorageWriteUserFileMessage@@QAE@XZ 1000e1b0 f i MessageDefinition.obj
 0001:0000d200       ??0RPCStorageWriteUserFileResultMessage@@QAE@XZ 1000e200 f i MessageDefinition.obj
 0001:0000d250       ??1?$NPRPCBuffer@VAuthenticateExternalStatusMessage@@@@QAE@XZ 1000e250 f i MessageDefinition.obj
 0001:0000d280       ??1?$NPRPCBuffer@VAuthenticateKickUserMessage@@@@QAE@XZ 1000e280 f i MessageDefinition.obj
 0001:0000d2b0       ??1?$NPRPCBuffer@VAuthenticateRegisterServerMessage@@@@QAE@XZ 1000e2b0 f i MessageDefinition.obj
 0001:0000d2e0       ??1?$NPRPCBuffer@VAuthenticateRegisterServerResultMessage@@@@QAE@XZ 1000e2e0 f i MessageDefinition.obj
 0001:0000d310       ??1?$NPRPCBuffer@VAuthenticateResultMessage@@@@QAE@XZ 1000e310 f i MessageDefinition.obj
 0001:0000d340       ??1?$NPRPCBuffer@VAuthenticateUserGroupMessage@@@@QAE@XZ 1000e340 f i MessageDefinition.obj
 0001:0000d370       ??1?$NPRPCBuffer@VAuthenticateValidateTicketMessage@@@@QAE@XZ 1000e370 f i MessageDefinition.obj
 0001:0000d3a0       ??1?$NPRPCBuffer@VAuthenticateValidateTicketResultMessage@@@@QAE@XZ 1000e3a0 f i MessageDefinition.obj
 0001:0000d3d0       ??1?$NPRPCBuffer@VAuthenticateWithDetailsMessage@@@@QAE@XZ 1000e3d0 f i MessageDefinition.obj
 0001:0000d400       ??1?$NPRPCBuffer@VAuthenticateWithKeyMessage@@@@QAE@XZ 1000e400 f i MessageDefinition.obj
 0001:0000d430       ??1?$NPRPCBuffer@VAuthenticateWithTokenMessage@@@@QAE@XZ 1000e430 f i MessageDefinition.obj
 0001:0000d460       ??1?$NPRPCBuffer@VCloseAppMessage@@@@QAE@XZ 1000e460 f i MessageDefinition.obj
 0001:0000d490       ??1?$NPRPCBuffer@VFriendsGetProfileDataMessage@@@@QAE@XZ 1000e490 f i MessageDefinition.obj
 0001:0000d4c0       ??1?$NPRPCBuffer@VFriendsGetProfileDataResultMessage@@@@QAE@XZ 1000e4c0 f i MessageDefinition.obj
 0001:0000d4f0       ??1?$NPRPCBuffer@VFriendsGetUserAvatarMessage@@@@QAE@XZ 1000e4f0 f i MessageDefinition.obj
 0001:0000d520       ??1?$NPRPCBuffer@VFriendsGetUserAvatarResultMessage@@@@QAE@XZ 1000e520 f i MessageDefinition.obj
 0001:0000d550       ??1?$NPRPCBuffer@VFriendsPresenceMessage@@@@QAE@XZ 1000e550 f i MessageDefinition.obj
 0001:0000d580       ??1?$NPRPCBuffer@VFriendsRosterMessage@@@@QAE@XZ 1000e580 f i MessageDefinition.obj
 0001:0000d5b0       ??1?$NPRPCBuffer@VFriendsSetPresenceMessage@@@@QAE@XZ 1000e5b0 f i MessageDefinition.obj
 0001:0000d5e0       ??1?$NPRPCBuffer@VFriendsSetSteamIDMessage@@@@QAE@XZ 1000e5e0 f i MessageDefinition.obj
 0001:0000d610       ??1?$NPRPCBuffer@VHelloMessage@@@@QAE@XZ 1000e610 f i MessageDefinition.obj
 0001:0000d640       ??1?$NPRPCBuffer@VMessagingSendDataMessage@@@@QAE@XZ 1000e640 f i MessageDefinition.obj
 0001:0000d670       ??1?$NPRPCBuffer@VServersCreateSessionMessage@@@@QAE@XZ 1000e670 f i MessageDefinition.obj
 0001:0000d6a0       ??1?$NPRPCBuffer@VServersCreateSessionResultMessage@@@@QAE@XZ 1000e6a0 f i MessageDefinition.obj
 0001:0000d6d0       ??1?$NPRPCBuffer@VServersDeleteSessionMessage@@@@QAE@XZ 1000e6d0 f i MessageDefinition.obj
 0001:0000d700       ??1?$NPRPCBuffer@VServersDeleteSessionResultMessage@@@@QAE@XZ 1000e700 f i MessageDefinition.obj
 0001:0000d730       ??1?$NPRPCBuffer@VServersGetSessionsMessage@@@@QAE@XZ 1000e730 f i MessageDefinition.obj
 0001:0000d760       ??1?$NPRPCBuffer@VServersGetSessionsResultMessage@@@@QAE@XZ 1000e760 f i MessageDefinition.obj
 0001:0000d790       ??1?$NPRPCBuffer@VServersUpdateSessionMessage@@@@QAE@XZ 1000e790 f i MessageDefinition.obj
 0001:0000d7c0       ??1?$NPRPCBuffer@VServersUpdateSessionResultMessage@@@@QAE@XZ 1000e7c0 f i MessageDefinition.obj
 0001:0000d7f0       ??1?$NPRPCBuffer@VStorageGetPublisherFileMessage@@@@QAE@XZ 1000e7f0 f i MessageDefinition.obj
 0001:0000d820       ??1?$NPRPCBuffer@VStorageGetUserFileMessage@@@@QAE@XZ 1000e820 f i MessageDefinition.obj
 0001:0000d850       ??1?$NPRPCBuffer@VStoragePublisherFileMessage@@@@QAE@XZ 1000e850 f i MessageDefinition.obj
 0001:0000d880       ??1?$NPRPCBuffer@VStorageSendRandomStringMessage@@@@QAE@XZ 1000e880 f i MessageDefinition.obj
 0001:0000d8b0       ??1?$NPRPCBuffer@VStorageUserFileMessage@@@@QAE@XZ 1000e8b0 f i MessageDefinition.obj
 0001:0000d8e0       ??1?$NPRPCBuffer@VStorageWriteUserFileMessage@@@@QAE@XZ 1000e8e0 f i MessageDefinition.obj
 0001:0000d910       ??1?$NPRPCBuffer@VStorageWriteUserFileResultMessage@@@@QAE@XZ 1000e910 f i MessageDefinition.obj
 0001:0000d940       ??1RPCAuthenticateExternalStatusMessage@@QAE@XZ 1000e940 f i MessageDefinition.obj
 0001:0000d970       ??1RPCAuthenticateKickUserMessage@@QAE@XZ 1000e970 f i MessageDefinition.obj
 0001:0000d9a0       ??1RPCAuthenticateRegisterServerMessage@@QAE@XZ 1000e9a0 f i MessageDefinition.obj
 0001:0000d9d0       ??1RPCAuthenticateRegisterServerResultMessage@@QAE@XZ 1000e9d0 f i MessageDefinition.obj
 0001:0000da00       ??1RPCAuthenticateResultMessage@@QAE@XZ 1000ea00 f i MessageDefinition.obj
 0001:0000da30       ??1RPCAuthenticateUserGroupMessage@@QAE@XZ 1000ea30 f i MessageDefinition.obj
 0001:0000da60       ??1RPCAuthenticateValidateTicketMessage@@QAE@XZ 1000ea60 f i MessageDefinition.obj
 0001:0000da90       ??1RPCAuthenticateValidateTicketResultMessage@@QAE@XZ 1000ea90 f i MessageDefinition.obj
 0001:0000dac0       ??1RPCAuthenticateWithDetailsMessage@@QAE@XZ 1000eac0 f i MessageDefinition.obj
 0001:0000daf0       ??1RPCAuthenticateWithKeyMessage@@QAE@XZ 1000eaf0 f i MessageDefinition.obj
 0001:0000db20       ??1RPCAuthenticateWithTokenMessage@@QAE@XZ 1000eb20 f i MessageDefinition.obj
 0001:0000db50       ??1RPCCloseAppMessage@@QAE@XZ 1000eb50 f i MessageDefinition.obj
 0001:0000db80       ??1RPCFriendsGetProfileDataMessage@@QAE@XZ 1000eb80 f i MessageDefinition.obj
 0001:0000dbb0       ??1RPCFriendsGetProfileDataResultMessage@@QAE@XZ 1000ebb0 f i MessageDefinition.obj
 0001:0000dbe0       ??1RPCFriendsGetUserAvatarMessage@@QAE@XZ 1000ebe0 f i MessageDefinition.obj
 0001:0000dc10       ??1RPCFriendsGetUserAvatarResultMessage@@QAE@XZ 1000ec10 f i MessageDefinition.obj
 0001:0000dc40       ??1RPCFriendsPresenceMessage@@QAE@XZ 1000ec40 f i MessageDefinition.obj
 0001:0000dc70       ??1RPCFriendsRosterMessage@@QAE@XZ 1000ec70 f i MessageDefinition.obj
 0001:0000dca0       ??1RPCFriendsSetPresenceMessage@@QAE@XZ 1000eca0 f i MessageDefinition.obj
 0001:0000dcd0       ??1RPCFriendsSetSteamIDMessage@@QAE@XZ 1000ecd0 f i MessageDefinition.obj
 0001:0000dd00       ??1RPCHelloMessage@@QAE@XZ 1000ed00 f i MessageDefinition.obj
 0001:0000dd30       ??1RPCMessagingSendDataMessage@@QAE@XZ 1000ed30 f i MessageDefinition.obj
 0001:0000dd60       ??1RPCServersCreateSessionMessage@@QAE@XZ 1000ed60 f i MessageDefinition.obj
 0001:0000dd90       ??1RPCServersCreateSessionResultMessage@@QAE@XZ 1000ed90 f i MessageDefinition.obj
 0001:0000ddc0       ??1RPCServersDeleteSessionMessage@@QAE@XZ 1000edc0 f i MessageDefinition.obj
 0001:0000ddf0       ??1RPCServersDeleteSessionResultMessage@@QAE@XZ 1000edf0 f i MessageDefinition.obj
 0001:0000de20       ??1RPCServersGetSessionsMessage@@QAE@XZ 1000ee20 f i MessageDefinition.obj
 0001:0000de50       ??1RPCServersGetSessionsResultMessage@@QAE@XZ 1000ee50 f i MessageDefinition.obj
 0001:0000de80       ??1RPCServersUpdateSessionMessage@@QAE@XZ 1000ee80 f i MessageDefinition.obj
 0001:0000deb0       ??1RPCServersUpdateSessionResultMessage@@QAE@XZ 1000eeb0 f i MessageDefinition.obj
 0001:0000dee0       ??1RPCStorageGetPublisherFileMessage@@QAE@XZ 1000eee0 f i MessageDefinition.obj
 0001:0000df10       ??1RPCStorageGetUserFileMessage@@QAE@XZ 1000ef10 f i MessageDefinition.obj
 0001:0000df40       ??1RPCStoragePublisherFileMessage@@QAE@XZ 1000ef40 f i MessageDefinition.obj
 0001:0000df70       ??1RPCStorageSendRandomStringMessage@@QAE@XZ 1000ef70 f i MessageDefinition.obj
 0001:0000dfa0       ??1RPCStorageUserFileMessage@@QAE@XZ 1000efa0 f i MessageDefinition.obj
 0001:0000dfd0       ??1RPCStorageWriteUserFileMessage@@QAE@XZ 1000efd0 f i MessageDefinition.obj
 0001:0000e000       ??1RPCStorageWriteUserFileResultMessage@@QAE@XZ 1000f000 f i MessageDefinition.obj
 0001:0000e030       ??_GRPCAuthenticateExternalStatusMessage@@QAEPAXI@Z 1000f030 f i MessageDefinition.obj
 0001:0000e080       ??_GRPCAuthenticateKickUserMessage@@QAEPAXI@Z 1000f080 f i MessageDefinition.obj
 0001:0000e0d0       ??_GRPCAuthenticateRegisterServerMessage@@QAEPAXI@Z 1000f0d0 f i MessageDefinition.obj
 0001:0000e120       ??_GRPCAuthenticateRegisterServerResultMessage@@QAEPAXI@Z 1000f120 f i MessageDefinition.obj
 0001:0000e170       ??_GRPCAuthenticateResultMessage@@QAEPAXI@Z 1000f170 f i MessageDefinition.obj
 0001:0000e1c0       ??_GRPCAuthenticateUserGroupMessage@@QAEPAXI@Z 1000f1c0 f i MessageDefinition.obj
 0001:0000e210       ??_GRPCAuthenticateValidateTicketMessage@@QAEPAXI@Z 1000f210 f i MessageDefinition.obj
 0001:0000e260       ??_GRPCAuthenticateValidateTicketResultMessage@@QAEPAXI@Z 1000f260 f i MessageDefinition.obj
 0001:0000e2b0       ??_GRPCAuthenticateWithDetailsMessage@@QAEPAXI@Z 1000f2b0 f i MessageDefinition.obj
 0001:0000e300       ??_GRPCAuthenticateWithKeyMessage@@QAEPAXI@Z 1000f300 f i MessageDefinition.obj
 0001:0000e350       ??_GRPCAuthenticateWithTokenMessage@@QAEPAXI@Z 1000f350 f i MessageDefinition.obj
 0001:0000e3a0       ??_GRPCCloseAppMessage@@QAEPAXI@Z 1000f3a0 f i MessageDefinition.obj
 0001:0000e3f0       ??_GRPCFriendsGetProfileDataMessage@@QAEPAXI@Z 1000f3f0 f i MessageDefinition.obj
 0001:0000e440       ??_GRPCFriendsGetProfileDataResultMessage@@QAEPAXI@Z 1000f440 f i MessageDefinition.obj
 0001:0000e490       ??_GRPCFriendsGetUserAvatarMessage@@QAEPAXI@Z 1000f490 f i MessageDefinition.obj
 0001:0000e4e0       ??_GRPCFriendsGetUserAvatarResultMessage@@QAEPAXI@Z 1000f4e0 f i MessageDefinition.obj
 0001:0000e530       ??_GRPCFriendsPresenceMessage@@QAEPAXI@Z 1000f530 f i MessageDefinition.obj
 0001:0000e580       ??_GRPCFriendsRosterMessage@@QAEPAXI@Z 1000f580 f i MessageDefinition.obj
 0001:0000e5d0       ??_GRPCFriendsSetPresenceMessage@@QAEPAXI@Z 1000f5d0 f i MessageDefinition.obj
 0001:0000e620       ??_GRPCFriendsSetSteamIDMessage@@QAEPAXI@Z 1000f620 f i MessageDefinition.obj
 0001:0000e670       ??_GRPCHelloMessage@@QAEPAXI@Z 1000f670 f i MessageDefinition.obj
 0001:0000e6c0       ??_GRPCMessagingSendDataMessage@@QAEPAXI@Z 1000f6c0 f i MessageDefinition.obj
 0001:0000e710       ??_GRPCServersCreateSessionMessage@@QAEPAXI@Z 1000f710 f i MessageDefinition.obj
 0001:0000e760       ??_GRPCServersCreateSessionResultMessage@@QAEPAXI@Z 1000f760 f i MessageDefinition.obj
 0001:0000e7b0       ??_GRPCServersDeleteSessionMessage@@QAEPAXI@Z 1000f7b0 f i MessageDefinition.obj
 0001:0000e800       ??_GRPCServersDeleteSessionResultMessage@@QAEPAXI@Z 1000f800 f i MessageDefinition.obj
 0001:0000e850       ??_GRPCServersGetSessionsMessage@@QAEPAXI@Z 1000f850 f i MessageDefinition.obj
 0001:0000e8a0       ??_GRPCServersGetSessionsResultMessage@@QAEPAXI@Z 1000f8a0 f i MessageDefinition.obj
 0001:0000e8f0       ??_GRPCServersUpdateSessionMessage@@QAEPAXI@Z 1000f8f0 f i MessageDefinition.obj
 0001:0000e940       ??_GRPCServersUpdateSessionResultMessage@@QAEPAXI@Z 1000f940 f i MessageDefinition.obj
 0001:0000e990       ??_GRPCStorageGetPublisherFileMessage@@QAEPAXI@Z 1000f990 f i MessageDefinition.obj
 0001:0000e9e0       ??_GRPCStorageGetUserFileMessage@@QAEPAXI@Z 1000f9e0 f i MessageDefinition.obj
 0001:0000ea30       ??_GRPCStoragePublisherFileMessage@@QAEPAXI@Z 1000fa30 f i MessageDefinition.obj
 0001:0000ea80       ??_GRPCStorageSendRandomStringMessage@@QAEPAXI@Z 1000fa80 f i MessageDefinition.obj
 0001:0000ead0       ??_GRPCStorageUserFileMessage@@QAEPAXI@Z 1000fad0 f i MessageDefinition.obj
 0001:0000eb20       ??_GRPCStorageWriteUserFileMessage@@QAEPAXI@Z 1000fb20 f i MessageDefinition.obj
 0001:0000eb70       ??_GRPCStorageWriteUserFileResultMessage@@QAEPAXI@Z 1000fb70 f i MessageDefinition.obj
 0001:0000ebc0       ?Deserialize@?$NPRPCBuffer@VAuthenticateExternalStatusMessage@@@@UAEXPBEI@Z 1000fbc0 f i MessageDefinition.obj
 0001:0000ec00       ?Deserialize@?$NPRPCBuffer@VAuthenticateKickUserMessage@@@@UAEXPBEI@Z 1000fc00 f i MessageDefinition.obj
 0001:0000ec40       ?Deserialize@?$NPRPCBuffer@VAuthenticateRegisterServerMessage@@@@UAEXPBEI@Z 1000fc40 f i MessageDefinition.obj
 0001:0000ec80       ?Deserialize@?$NPRPCBuffer@VAuthenticateRegisterServerResultMessage@@@@UAEXPBEI@Z 1000fc80 f i MessageDefinition.obj
 0001:0000ecc0       ?Deserialize@?$NPRPCBuffer@VAuthenticateResultMessage@@@@UAEXPBEI@Z 1000fcc0 f i MessageDefinition.obj
 0001:0000ed00       ?Deserialize@?$NPRPCBuffer@VAuthenticateUserGroupMessage@@@@UAEXPBEI@Z 1000fd00 f i MessageDefinition.obj
 0001:0000ed40       ?Deserialize@?$NPRPCBuffer@VAuthenticateValidateTicketMessage@@@@UAEXPBEI@Z 1000fd40 f i MessageDefinition.obj
 0001:0000ed80       ?Deserialize@?$NPRPCBuffer@VAuthenticateValidateTicketResultMessage@@@@UAEXPBEI@Z 1000fd80 f i MessageDefinition.obj
 0001:0000edc0       ?Deserialize@?$NPRPCBuffer@VAuthenticateWithDetailsMessage@@@@UAEXPBEI@Z 1000fdc0 f i MessageDefinition.obj
 0001:0000ee00       ?Deserialize@?$NPRPCBuffer@VAuthenticateWithKeyMessage@@@@UAEXPBEI@Z 1000fe00 f i MessageDefinition.obj
 0001:0000ee40       ?Deserialize@?$NPRPCBuffer@VAuthenticateWithTokenMessage@@@@UAEXPBEI@Z 1000fe40 f i MessageDefinition.obj
 0001:0000ee80       ?Deserialize@?$NPRPCBuffer@VCloseAppMessage@@@@UAEXPBEI@Z 1000fe80 f i MessageDefinition.obj
 0001:0000eec0       ?Deserialize@?$NPRPCBuffer@VFriendsGetProfileDataMessage@@@@UAEXPBEI@Z 1000fec0 f i MessageDefinition.obj
 0001:0000ef00       ?Deserialize@?$NPRPCBuffer@VFriendsGetProfileDataResultMessage@@@@UAEXPBEI@Z 1000ff00 f i MessageDefinition.obj
 0001:0000ef40       ?Deserialize@?$NPRPCBuffer@VFriendsGetUserAvatarMessage@@@@UAEXPBEI@Z 1000ff40 f i MessageDefinition.obj
 0001:0000ef80       ?Deserialize@?$NPRPCBuffer@VFriendsGetUserAvatarResultMessage@@@@UAEXPBEI@Z 1000ff80 f i MessageDefinition.obj
 0001:0000efc0       ?Deserialize@?$NPRPCBuffer@VFriendsPresenceMessage@@@@UAEXPBEI@Z 1000ffc0 f i MessageDefinition.obj
 0001:0000f000       ?Deserialize@?$NPRPCBuffer@VFriendsRosterMessage@@@@UAEXPBEI@Z 10010000 f i MessageDefinition.obj
 0001:0000f040       ?Deserialize@?$NPRPCBuffer@VFriendsSetPresenceMessage@@@@UAEXPBEI@Z 10010040 f i MessageDefinition.obj
 0001:0000f080       ?Deserialize@?$NPRPCBuffer@VFriendsSetSteamIDMessage@@@@UAEXPBEI@Z 10010080 f i MessageDefinition.obj
 0001:0000f0c0       ?Deserialize@?$NPRPCBuffer@VHelloMessage@@@@UAEXPBEI@Z 100100c0 f i MessageDefinition.obj
 0001:0000f100       ?Deserialize@?$NPRPCBuffer@VMessagingSendDataMessage@@@@UAEXPBEI@Z 10010100 f i MessageDefinition.obj
 0001:0000f140       ?Deserialize@?$NPRPCBuffer@VServersCreateSessionMessage@@@@UAEXPBEI@Z 10010140 f i MessageDefinition.obj
 0001:0000f180       ?Deserialize@?$NPRPCBuffer@VServersCreateSessionResultMessage@@@@UAEXPBEI@Z 10010180 f i MessageDefinition.obj
 0001:0000f1c0       ?Deserialize@?$NPRPCBuffer@VServersDeleteSessionMessage@@@@UAEXPBEI@Z 100101c0 f i MessageDefinition.obj
 0001:0000f200       ?Deserialize@?$NPRPCBuffer@VServersDeleteSessionResultMessage@@@@UAEXPBEI@Z 10010200 f i MessageDefinition.obj
 0001:0000f240       ?Deserialize@?$NPRPCBuffer@VServersGetSessionsMessage@@@@UAEXPBEI@Z 10010240 f i MessageDefinition.obj
 0001:0000f280       ?Deserialize@?$NPRPCBuffer@VServersGetSessionsResultMessage@@@@UAEXPBEI@Z 10010280 f i MessageDefinition.obj
 0001:0000f2c0       ?Deserialize@?$NPRPCBuffer@VServersUpdateSessionMessage@@@@UAEXPBEI@Z 100102c0 f i MessageDefinition.obj
 0001:0000f300       ?Deserialize@?$NPRPCBuffer@VServersUpdateSessionResultMessage@@@@UAEXPBEI@Z 10010300 f i MessageDefinition.obj
 0001:0000f340       ?Deserialize@?$NPRPCBuffer@VStorageGetPublisherFileMessage@@@@UAEXPBEI@Z 10010340 f i MessageDefinition.obj
 0001:0000f380       ?Deserialize@?$NPRPCBuffer@VStorageGetUserFileMessage@@@@UAEXPBEI@Z 10010380 f i MessageDefinition.obj
 0001:0000f3c0       ?Deserialize@?$NPRPCBuffer@VStoragePublisherFileMessage@@@@UAEXPBEI@Z 100103c0 f i MessageDefinition.obj
 0001:0000f400       ?Deserialize@?$NPRPCBuffer@VStorageUserFileMessage@@@@UAEXPBEI@Z 10010400 f i MessageDefinition.obj
 0001:0000f440       ?Deserialize@?$NPRPCBuffer@VStorageWriteUserFileMessage@@@@UAEXPBEI@Z 10010440 f i MessageDefinition.obj
 0001:0000f480       ?Deserialize@?$NPRPCBuffer@VStorageWriteUserFileResultMessage@@@@UAEXPBEI@Z 10010480 f i MessageDefinition.obj
 0001:0000f4c0       ?Deserialize@RPCAuthenticateExternalStatusMessage@@UAEXPBEI@Z 100104c0 f   MessageDefinition.obj
 0001:0000f500       ?Deserialize@RPCAuthenticateKickUserMessage@@UAEXPBEI@Z 10010500 f   MessageDefinition.obj
 0001:0000f540       ?Deserialize@RPCAuthenticateRegisterServerMessage@@UAEXPBEI@Z 10010540 f   MessageDefinition.obj
 0001:0000f580       ?Deserialize@RPCAuthenticateRegisterServerResultMessage@@UAEXPBEI@Z 10010580 f   MessageDefinition.obj
 0001:0000f5c0       ?Deserialize@RPCAuthenticateResultMessage@@UAEXPBEI@Z 100105c0 f   MessageDefinition.obj
 0001:0000f600       ?Deserialize@RPCAuthenticateUserGroupMessage@@UAEXPBEI@Z 10010600 f   MessageDefinition.obj
 0001:0000f640       ?Deserialize@RPCAuthenticateValidateTicketMessage@@UAEXPBEI@Z 10010640 f   MessageDefinition.obj
 0001:0000f680       ?Deserialize@RPCAuthenticateValidateTicketResultMessage@@UAEXPBEI@Z 10010680 f   MessageDefinition.obj
 0001:0000f6c0       ?Deserialize@RPCAuthenticateWithDetailsMessage@@UAEXPBEI@Z 100106c0 f   MessageDefinition.obj
 0001:0000f700       ?Deserialize@RPCAuthenticateWithKeyMessage@@UAEXPBEI@Z 10010700 f   MessageDefinition.obj
 0001:0000f740       ?Deserialize@RPCAuthenticateWithTokenMessage@@UAEXPBEI@Z 10010740 f   MessageDefinition.obj
 0001:0000f780       ?Deserialize@RPCCloseAppMessage@@UAEXPBEI@Z 10010780 f   MessageDefinition.obj
 0001:0000f7c0       ?Deserialize@RPCFriendsGetProfileDataMessage@@UAEXPBEI@Z 100107c0 f   MessageDefinition.obj
 0001:0000f800       ?Deserialize@RPCFriendsGetProfileDataResultMessage@@UAEXPBEI@Z 10010800 f   MessageDefinition.obj
 0001:0000f840       ?Deserialize@RPCFriendsGetUserAvatarMessage@@UAEXPBEI@Z 10010840 f   MessageDefinition.obj
 0001:0000f880       ?Deserialize@RPCFriendsGetUserAvatarResultMessage@@UAEXPBEI@Z 10010880 f   MessageDefinition.obj
 0001:0000f8c0       ?Deserialize@RPCFriendsPresenceMessage@@UAEXPBEI@Z 100108c0 f   MessageDefinition.obj
 0001:0000f900       ?Deserialize@RPCFriendsRosterMessage@@UAEXPBEI@Z 10010900 f   MessageDefinition.obj
 0001:0000f940       ?Deserialize@RPCFriendsSetPresenceMessage@@UAEXPBEI@Z 10010940 f   MessageDefinition.obj
 0001:0000f980       ?Deserialize@RPCFriendsSetSteamIDMessage@@UAEXPBEI@Z 10010980 f   MessageDefinition.obj
 0001:0000f9c0       ?Deserialize@RPCHelloMessage@@UAEXPBEI@Z 100109c0 f   MessageDefinition.obj
 0001:0000fa00       ?Deserialize@RPCMessagingSendDataMessage@@UAEXPBEI@Z 10010a00 f   MessageDefinition.obj
 0001:0000fa40       ?Deserialize@RPCServersCreateSessionMessage@@UAEXPBEI@Z 10010a40 f   MessageDefinition.obj
 0001:0000fa80       ?Deserialize@RPCServersCreateSessionResultMessage@@UAEXPBEI@Z 10010a80 f   MessageDefinition.obj
 0001:0000fac0       ?Deserialize@RPCServersDeleteSessionMessage@@UAEXPBEI@Z 10010ac0 f   MessageDefinition.obj
 0001:0000fb00       ?Deserialize@RPCServersDeleteSessionResultMessage@@UAEXPBEI@Z 10010b00 f   MessageDefinition.obj
 0001:0000fb40       ?Deserialize@RPCServersGetSessionsMessage@@UAEXPBEI@Z 10010b40 f   MessageDefinition.obj
 0001:0000fb80       ?Deserialize@RPCServersGetSessionsResultMessage@@UAEXPBEI@Z 10010b80 f   MessageDefinition.obj
 0001:0000fbc0       ?Deserialize@RPCServersUpdateSessionMessage@@UAEXPBEI@Z 10010bc0 f   MessageDefinition.obj
 0001:0000fc00       ?Deserialize@RPCServersUpdateSessionResultMessage@@UAEXPBEI@Z 10010c00 f   MessageDefinition.obj
 0001:0000fc40       ?Deserialize@RPCStorageGetPublisherFileMessage@@UAEXPBEI@Z 10010c40 f   MessageDefinition.obj
 0001:0000fc80       ?Deserialize@RPCStorageGetUserFileMessage@@UAEXPBEI@Z 10010c80 f   MessageDefinition.obj
 0001:0000fcc0       ?Deserialize@RPCStoragePublisherFileMessage@@UAEXPBEI@Z 10010cc0 f   MessageDefinition.obj
 0001:0000fd00       ?Deserialize@RPCStorageSendRandomStringMessage@@UAEXPBEI@Z 10010d00 f   MessageDefinition.obj
 0001:0000fd40       ?Deserialize@RPCStorageUserFileMessage@@UAEXPBEI@Z 10010d40 f   MessageDefinition.obj
 0001:0000fd80       ?Deserialize@RPCStorageWriteUserFileMessage@@UAEXPBEI@Z 10010d80 f   MessageDefinition.obj
 0001:0000fdc0       ?Deserialize@RPCStorageWriteUserFileResultMessage@@UAEXPBEI@Z 10010dc0 f   MessageDefinition.obj
 0001:0000fe00       ?Free@RPCAuthenticateExternalStatusMessage@@UAEXXZ 10010e00 f   MessageDefinition.obj
 0001:0000fe70       ?Free@RPCAuthenticateKickUserMessage@@UAEXXZ 10010e70 f   MessageDefinition.obj
 0001:0000fee0       ?Free@RPCAuthenticateRegisterServerMessage@@UAEXXZ 10010ee0 f   MessageDefinition.obj
 0001:0000ff50       ?Free@RPCAuthenticateRegisterServerResultMessage@@UAEXXZ 10010f50 f   MessageDefinition.obj
 0001:0000ffc0       ?Free@RPCAuthenticateResultMessage@@UAEXXZ 10010fc0 f   MessageDefinition.obj
 0001:00010030       ?Free@RPCAuthenticateUserGroupMessage@@UAEXXZ 10011030 f   MessageDefinition.obj
 0001:000100a0       ?Free@RPCAuthenticateValidateTicketMessage@@UAEXXZ 100110a0 f   MessageDefinition.obj
 0001:00010110       ?Free@RPCAuthenticateValidateTicketResultMessage@@UAEXXZ 10011110 f   MessageDefinition.obj
 0001:00010180       ?Free@RPCAuthenticateWithDetailsMessage@@UAEXXZ 10011180 f   MessageDefinition.obj
 0001:000101f0       ?Free@RPCAuthenticateWithKeyMessage@@UAEXXZ 100111f0 f   MessageDefinition.obj
 0001:00010260       ?Free@RPCAuthenticateWithTokenMessage@@UAEXXZ 10011260 f   MessageDefinition.obj
 0001:000102d0       ?Free@RPCCloseAppMessage@@UAEXXZ 100112d0 f   MessageDefinition.obj
 0001:00010340       ?Free@RPCFriendsGetProfileDataMessage@@UAEXXZ 10011340 f   MessageDefinition.obj
 0001:000103b0       ?Free@RPCFriendsGetProfileDataResultMessage@@UAEXXZ 100113b0 f   MessageDefinition.obj
 0001:00010420       ?Free@RPCFriendsGetUserAvatarMessage@@UAEXXZ 10011420 f   MessageDefinition.obj
 0001:00010490       ?Free@RPCFriendsGetUserAvatarResultMessage@@UAEXXZ 10011490 f   MessageDefinition.obj
 0001:00010500       ?Free@RPCFriendsPresenceMessage@@UAEXXZ 10011500 f   MessageDefinition.obj
 0001:00010570       ?Free@RPCFriendsRosterMessage@@UAEXXZ 10011570 f   MessageDefinition.obj
 0001:000105e0       ?Free@RPCFriendsSetPresenceMessage@@UAEXXZ 100115e0 f   MessageDefinition.obj
 0001:00010650       ?Free@RPCFriendsSetSteamIDMessage@@UAEXXZ 10011650 f   MessageDefinition.obj
 0001:000106c0       ?Free@RPCHelloMessage@@UAEXXZ 100116c0 f   MessageDefinition.obj
 0001:00010730       ?Free@RPCMessagingSendDataMessage@@UAEXXZ 10011730 f   MessageDefinition.obj
 0001:000107a0       ?Free@RPCServersCreateSessionMessage@@UAEXXZ 100117a0 f   MessageDefinition.obj
 0001:00010810       ?Free@RPCServersCreateSessionResultMessage@@UAEXXZ 10011810 f   MessageDefinition.obj
 0001:00010880       ?Free@RPCServersDeleteSessionMessage@@UAEXXZ 10011880 f   MessageDefinition.obj
 0001:000108f0       ?Free@RPCServersDeleteSessionResultMessage@@UAEXXZ 100118f0 f   MessageDefinition.obj
 0001:00010960       ?Free@RPCServersGetSessionsMessage@@UAEXXZ 10011960 f   MessageDefinition.obj
 0001:000109d0       ?Free@RPCServersGetSessionsResultMessage@@UAEXXZ 100119d0 f   MessageDefinition.obj
 0001:00010a40       ?Free@RPCServersUpdateSessionMessage@@UAEXXZ 10011a40 f   MessageDefinition.obj
 0001:00010ab0       ?Free@RPCServersUpdateSessionResultMessage@@UAEXXZ 10011ab0 f   MessageDefinition.obj
 0001:00010b20       ?Free@RPCStorageGetPublisherFileMessage@@UAEXXZ 10011b20 f   MessageDefinition.obj
 0001:00010b90       ?Free@RPCStorageGetUserFileMessage@@UAEXXZ 10011b90 f   MessageDefinition.obj
 0001:00010c00       ?Free@RPCStoragePublisherFileMessage@@UAEXXZ 10011c00 f   MessageDefinition.obj
 0001:00010c70       ?Free@RPCStorageSendRandomStringMessage@@UAEXXZ 10011c70 f   MessageDefinition.obj
 0001:00010ce0       ?Free@RPCStorageUserFileMessage@@UAEXXZ 10011ce0 f   MessageDefinition.obj
 0001:00010d50       ?Free@RPCStorageWriteUserFileMessage@@UAEXXZ 10011d50 f   MessageDefinition.obj
 0001:00010dc0       ?Free@RPCStorageWriteUserFileResultMessage@@UAEXXZ 10011dc0 f   MessageDefinition.obj
 0001:00010e30       ?FreePayload@RPCAuthenticateExternalStatusMessage@@UAEXXZ 10011e30 f   MessageDefinition.obj
 0001:00010e80       ?FreePayload@RPCAuthenticateKickUserMessage@@UAEXXZ 10011e80 f   MessageDefinition.obj
 0001:00010ed0       ?FreePayload@RPCAuthenticateRegisterServerMessage@@UAEXXZ 10011ed0 f   MessageDefinition.obj
 0001:00010f20       ?FreePayload@RPCAuthenticateRegisterServerResultMessage@@UAEXXZ 10011f20 f   MessageDefinition.obj
 0001:00010f70       ?FreePayload@RPCAuthenticateResultMessage@@UAEXXZ 10011f70 f   MessageDefinition.obj
 0001:00010fc0       ?FreePayload@RPCAuthenticateUserGroupMessage@@UAEXXZ 10011fc0 f   MessageDefinition.obj
 0001:00011010       ?FreePayload@RPCAuthenticateValidateTicketMessage@@UAEXXZ 10012010 f   MessageDefinition.obj
 0001:00011060       ?FreePayload@RPCAuthenticateValidateTicketResultMessage@@UAEXXZ 10012060 f   MessageDefinition.obj
 0001:000110b0       ?FreePayload@RPCAuthenticateWithDetailsMessage@@UAEXXZ 100120b0 f   MessageDefinition.obj
 0001:00011100       ?FreePayload@RPCAuthenticateWithKeyMessage@@UAEXXZ 10012100 f   MessageDefinition.obj
 0001:00011150       ?FreePayload@RPCAuthenticateWithTokenMessage@@UAEXXZ 10012150 f   MessageDefinition.obj
 0001:000111a0       ?FreePayload@RPCCloseAppMessage@@UAEXXZ 100121a0 f   MessageDefinition.obj
 0001:000111f0       ?FreePayload@RPCFriendsGetProfileDataMessage@@UAEXXZ 100121f0 f   MessageDefinition.obj
 0001:00011240       ?FreePayload@RPCFriendsGetProfileDataResultMessage@@UAEXXZ 10012240 f   MessageDefinition.obj
 0001:00011290       ?FreePayload@RPCFriendsGetUserAvatarMessage@@UAEXXZ 10012290 f   MessageDefinition.obj
 0001:000112e0       ?FreePayload@RPCFriendsGetUserAvatarResultMessage@@UAEXXZ 100122e0 f   MessageDefinition.obj
 0001:00011330       ?FreePayload@RPCFriendsPresenceMessage@@UAEXXZ 10012330 f   MessageDefinition.obj
 0001:00011380       ?FreePayload@RPCFriendsRosterMessage@@UAEXXZ 10012380 f   MessageDefinition.obj
 0001:000113d0       ?FreePayload@RPCFriendsSetPresenceMessage@@UAEXXZ 100123d0 f   MessageDefinition.obj
 0001:00011420       ?FreePayload@RPCFriendsSetSteamIDMessage@@UAEXXZ 10012420 f   MessageDefinition.obj
 0001:00011470       ?FreePayload@RPCHelloMessage@@UAEXXZ 10012470 f   MessageDefinition.obj
 0001:000114c0       ?FreePayload@RPCMessagingSendDataMessage@@UAEXXZ 100124c0 f   MessageDefinition.obj
 0001:00011510       ?FreePayload@RPCServersCreateSessionMessage@@UAEXXZ 10012510 f   MessageDefinition.obj
 0001:00011560       ?FreePayload@RPCServersCreateSessionResultMessage@@UAEXXZ 10012560 f   MessageDefinition.obj
 0001:000115b0       ?FreePayload@RPCServersDeleteSessionMessage@@UAEXXZ 100125b0 f   MessageDefinition.obj
 0001:00011600       ?FreePayload@RPCServersDeleteSessionResultMessage@@UAEXXZ 10012600 f   MessageDefinition.obj
 0001:00011650       ?FreePayload@RPCServersGetSessionsMessage@@UAEXXZ 10012650 f   MessageDefinition.obj
 0001:000116a0       ?FreePayload@RPCServersGetSessionsResultMessage@@UAEXXZ 100126a0 f   MessageDefinition.obj
 0001:000116f0       ?FreePayload@RPCServersUpdateSessionMessage@@UAEXXZ 100126f0 f   MessageDefinition.obj
 0001:00011740       ?FreePayload@RPCServersUpdateSessionResultMessage@@UAEXXZ 10012740 f   MessageDefinition.obj
 0001:00011790       ?FreePayload@RPCStorageGetPublisherFileMessage@@UAEXXZ 10012790 f   MessageDefinition.obj
 0001:000117e0       ?FreePayload@RPCStorageGetUserFileMessage@@UAEXXZ 100127e0 f   MessageDefinition.obj
 0001:00011830       ?FreePayload@RPCStoragePublisherFileMessage@@UAEXXZ 10012830 f   MessageDefinition.obj
 0001:00011880       ?FreePayload@RPCStorageSendRandomStringMessage@@UAEXXZ 10012880 f   MessageDefinition.obj
 0001:000118d0       ?FreePayload@RPCStorageUserFileMessage@@UAEXXZ 100128d0 f   MessageDefinition.obj
 0001:00011920       ?FreePayload@RPCStorageWriteUserFileMessage@@UAEXXZ 10012920 f   MessageDefinition.obj
 0001:00011970       ?FreePayload@RPCStorageWriteUserFileResultMessage@@UAEXXZ 10012970 f   MessageDefinition.obj
 0001:000119c0       ?GetBuffer@RPCAuthenticateExternalStatusMessage@@QAEPAVAuthenticateExternalStatusMessage@@XZ 100129c0 f   MessageDefinition.obj
 0001:000119f0       ?GetBuffer@RPCAuthenticateKickUserMessage@@QAEPAVAuthenticateKickUserMessage@@XZ 100129f0 f   MessageDefinition.obj
 0001:00011a20       ?GetBuffer@RPCAuthenticateRegisterServerMessage@@QAEPAVAuthenticateRegisterServerMessage@@XZ 10012a20 f   MessageDefinition.obj
 0001:00011a50       ?GetBuffer@RPCAuthenticateRegisterServerResultMessage@@QAEPAVAuthenticateRegisterServerResultMessage@@XZ 10012a50 f   MessageDefinition.obj
 0001:00011a80       ?GetBuffer@RPCAuthenticateResultMessage@@QAEPAVAuthenticateResultMessage@@XZ 10012a80 f   MessageDefinition.obj
 0001:00011ab0       ?GetBuffer@RPCAuthenticateUserGroupMessage@@QAEPAVAuthenticateUserGroupMessage@@XZ 10012ab0 f   MessageDefinition.obj
 0001:00011ae0       ?GetBuffer@RPCAuthenticateValidateTicketMessage@@QAEPAVAuthenticateValidateTicketMessage@@XZ 10012ae0 f   MessageDefinition.obj
 0001:00011b10       ?GetBuffer@RPCAuthenticateValidateTicketResultMessage@@QAEPAVAuthenticateValidateTicketResultMessage@@XZ 10012b10 f   MessageDefinition.obj
 0001:00011b40       ?GetBuffer@RPCAuthenticateWithDetailsMessage@@QAEPAVAuthenticateWithDetailsMessage@@XZ 10012b40 f   MessageDefinition.obj
 0001:00011b70       ?GetBuffer@RPCAuthenticateWithKeyMessage@@QAEPAVAuthenticateWithKeyMessage@@XZ 10012b70 f   MessageDefinition.obj
 0001:00011ba0       ?GetBuffer@RPCAuthenticateWithTokenMessage@@QAEPAVAuthenticateWithTokenMessage@@XZ 10012ba0 f   MessageDefinition.obj
 0001:00011bd0       ?GetBuffer@RPCCloseAppMessage@@QAEPAVCloseAppMessage@@XZ 10012bd0 f   MessageDefinition.obj
 0001:00011c00       ?GetBuffer@RPCFriendsGetProfileDataMessage@@QAEPAVFriendsGetProfileDataMessage@@XZ 10012c00 f   MessageDefinition.obj
 0001:00011c30       ?GetBuffer@RPCFriendsGetProfileDataResultMessage@@QAEPAVFriendsGetProfileDataResultMessage@@XZ 10012c30 f   MessageDefinition.obj
 0001:00011c60       ?GetBuffer@RPCFriendsGetUserAvatarMessage@@QAEPAVFriendsGetUserAvatarMessage@@XZ 10012c60 f   MessageDefinition.obj
 0001:00011c90       ?GetBuffer@RPCFriendsGetUserAvatarResultMessage@@QAEPAVFriendsGetUserAvatarResultMessage@@XZ 10012c90 f   MessageDefinition.obj
 0001:00011cc0       ?GetBuffer@RPCFriendsPresenceMessage@@QAEPAVFriendsPresenceMessage@@XZ 10012cc0 f   MessageDefinition.obj
 0001:00011cf0       ?GetBuffer@RPCFriendsRosterMessage@@QAEPAVFriendsRosterMessage@@XZ 10012cf0 f   MessageDefinition.obj
 0001:00011d20       ?GetBuffer@RPCFriendsSetPresenceMessage@@QAEPAVFriendsSetPresenceMessage@@XZ 10012d20 f   MessageDefinition.obj
 0001:00011d50       ?GetBuffer@RPCFriendsSetSteamIDMessage@@QAEPAVFriendsSetSteamIDMessage@@XZ 10012d50 f   MessageDefinition.obj
 0001:00011d80       ?GetBuffer@RPCHelloMessage@@QAEPAVHelloMessage@@XZ 10012d80 f   MessageDefinition.obj
 0001:00011db0       ?GetBuffer@RPCMessagingSendDataMessage@@QAEPAVMessagingSendDataMessage@@XZ 10012db0 f   MessageDefinition.obj
 0001:00011de0       ?GetBuffer@RPCServersCreateSessionMessage@@QAEPAVServersCreateSessionMessage@@XZ 10012de0 f   MessageDefinition.obj
 0001:00011e10       ?GetBuffer@RPCServersCreateSessionResultMessage@@QAEPAVServersCreateSessionResultMessage@@XZ 10012e10 f   MessageDefinition.obj
 0001:00011e40       ?GetBuffer@RPCServersDeleteSessionMessage@@QAEPAVServersDeleteSessionMessage@@XZ 10012e40 f   MessageDefinition.obj
 0001:00011e70       ?GetBuffer@RPCServersDeleteSessionResultMessage@@QAEPAVServersDeleteSessionResultMessage@@XZ 10012e70 f   MessageDefinition.obj
 0001:00011ea0       ?GetBuffer@RPCServersGetSessionsMessage@@QAEPAVServersGetSessionsMessage@@XZ 10012ea0 f   MessageDefinition.obj
 0001:00011ed0       ?GetBuffer@RPCServersGetSessionsResultMessage@@QAEPAVServersGetSessionsResultMessage@@XZ 10012ed0 f   MessageDefinition.obj
 0001:00011f00       ?GetBuffer@RPCServersUpdateSessionMessage@@QAEPAVServersUpdateSessionMessage@@XZ 10012f00 f   MessageDefinition.obj
 0001:00011f30       ?GetBuffer@RPCServersUpdateSessionResultMessage@@QAEPAVServersUpdateSessionResultMessage@@XZ 10012f30 f   MessageDefinition.obj
 0001:00011f60       ?GetBuffer@RPCStorageGetPublisherFileMessage@@QAEPAVStorageGetPublisherFileMessage@@XZ 10012f60 f   MessageDefinition.obj
 0001:00011f90       ?GetBuffer@RPCStorageGetUserFileMessage@@QAEPAVStorageGetUserFileMessage@@XZ 10012f90 f   MessageDefinition.obj
 0001:00011fc0       ?GetBuffer@RPCStoragePublisherFileMessage@@QAEPAVStoragePublisherFileMessage@@XZ 10012fc0 f   MessageDefinition.obj
 0001:00011ff0       ?GetBuffer@RPCStorageSendRandomStringMessage@@QAEPAVStorageSendRandomStringMessage@@XZ 10012ff0 f   MessageDefinition.obj
 0001:00012020       ?GetBuffer@RPCStorageUserFileMessage@@QAEPAVStorageUserFileMessage@@XZ 10013020 f   MessageDefinition.obj
 0001:00012050       ?GetBuffer@RPCStorageWriteUserFileMessage@@QAEPAVStorageWriteUserFileMessage@@XZ 10013050 f   MessageDefinition.obj
 0001:00012080       ?GetBuffer@RPCStorageWriteUserFileResultMessage@@QAEPAVStorageWriteUserFileResultMessage@@XZ 10013080 f   MessageDefinition.obj
 0001:000120b0       ?GetPayload@?$NPRPCBuffer@VAuthenticateExternalStatusMessage@@@@QAEPAVAuthenticateExternalStatusMessage@@XZ 100130b0 f i MessageDefinition.obj
 0001:000120d0       ?GetPayload@?$NPRPCBuffer@VAuthenticateKickUserMessage@@@@QAEPAVAuthenticateKickUserMessage@@XZ 100130d0 f i MessageDefinition.obj
 0001:000120f0       ?GetPayload@?$NPRPCBuffer@VAuthenticateRegisterServerMessage@@@@QAEPAVAuthenticateRegisterServerMessage@@XZ 100130f0 f i MessageDefinition.obj
 0001:00012110       ?GetPayload@?$NPRPCBuffer@VAuthenticateRegisterServerResultMessage@@@@QAEPAVAuthenticateRegisterServerResultMessage@@XZ 10013110 f i MessageDefinition.obj
 0001:00012130       ?GetPayload@?$NPRPCBuffer@VAuthenticateResultMessage@@@@QAEPAVAuthenticateResultMessage@@XZ 10013130 f i MessageDefinition.obj
 0001:00012150       ?GetPayload@?$NPRPCBuffer@VAuthenticateUserGroupMessage@@@@QAEPAVAuthenticateUserGroupMessage@@XZ 10013150 f i MessageDefinition.obj
 0001:00012170       ?GetPayload@?$NPRPCBuffer@VAuthenticateValidateTicketMessage@@@@QAEPAVAuthenticateValidateTicketMessage@@XZ 10013170 f i MessageDefinition.obj
 0001:00012190       ?GetPayload@?$NPRPCBuffer@VAuthenticateValidateTicketResultMessage@@@@QAEPAVAuthenticateValidateTicketResultMessage@@XZ 10013190 f i MessageDefinition.obj
 0001:000121b0       ?GetPayload@?$NPRPCBuffer@VAuthenticateWithDetailsMessage@@@@QAEPAVAuthenticateWithDetailsMessage@@XZ 100131b0 f i MessageDefinition.obj
 0001:000121d0       ?GetPayload@?$NPRPCBuffer@VAuthenticateWithKeyMessage@@@@QAEPAVAuthenticateWithKeyMessage@@XZ 100131d0 f i MessageDefinition.obj
 0001:000121f0       ?GetPayload@?$NPRPCBuffer@VAuthenticateWithTokenMessage@@@@QAEPAVAuthenticateWithTokenMessage@@XZ 100131f0 f i MessageDefinition.obj
 0001:00012210       ?GetPayload@?$NPRPCBuffer@VCloseAppMessage@@@@QAEPAVCloseAppMessage@@XZ 10013210 f i MessageDefinition.obj
 0001:00012230       ?GetPayload@?$NPRPCBuffer@VFriendsGetProfileDataMessage@@@@QAEPAVFriendsGetProfileDataMessage@@XZ 10013230 f i MessageDefinition.obj
 0001:00012250       ?GetPayload@?$NPRPCBuffer@VFriendsGetProfileDataResultMessage@@@@QAEPAVFriendsGetProfileDataResultMessage@@XZ 10013250 f i MessageDefinition.obj
 0001:00012270       ?GetPayload@?$NPRPCBuffer@VFriendsGetUserAvatarMessage@@@@QAEPAVFriendsGetUserAvatarMessage@@XZ 10013270 f i MessageDefinition.obj
 0001:00012290       ?GetPayload@?$NPRPCBuffer@VFriendsGetUserAvatarResultMessage@@@@QAEPAVFriendsGetUserAvatarResultMessage@@XZ 10013290 f i MessageDefinition.obj
 0001:000122b0       ?GetPayload@?$NPRPCBuffer@VFriendsPresenceMessage@@@@QAEPAVFriendsPresenceMessage@@XZ 100132b0 f i MessageDefinition.obj
 0001:000122d0       ?GetPayload@?$NPRPCBuffer@VFriendsRosterMessage@@@@QAEPAVFriendsRosterMessage@@XZ 100132d0 f i MessageDefinition.obj
 0001:000122f0       ?GetPayload@?$NPRPCBuffer@VFriendsSetPresenceMessage@@@@QAEPAVFriendsSetPresenceMessage@@XZ 100132f0 f i MessageDefinition.obj
 0001:00012310       ?GetPayload@?$NPRPCBuffer@VFriendsSetSteamIDMessage@@@@QAEPAVFriendsSetSteamIDMessage@@XZ 10013310 f i MessageDefinition.obj
 0001:00012330       ?GetPayload@?$NPRPCBuffer@VHelloMessage@@@@QAEPAVHelloMessage@@XZ 10013330 f i MessageDefinition.obj
 0001:00012350       ?GetPayload@?$NPRPCBuffer@VMessagingSendDataMessage@@@@QAEPAVMessagingSendDataMessage@@XZ 10013350 f i MessageDefinition.obj
 0001:00012370       ?GetPayload@?$NPRPCBuffer@VServersCreateSessionMessage@@@@QAEPAVServersCreateSessionMessage@@XZ 10013370 f i MessageDefinition.obj
 0001:00012390       ?GetPayload@?$NPRPCBuffer@VServersCreateSessionResultMessage@@@@QAEPAVServersCreateSessionResultMessage@@XZ 10013390 f i MessageDefinition.obj
 0001:000123b0       ?GetPayload@?$NPRPCBuffer@VServersDeleteSessionMessage@@@@QAEPAVServersDeleteSessionMessage@@XZ 100133b0 f i MessageDefinition.obj
 0001:000123d0       ?GetPayload@?$NPRPCBuffer@VServersDeleteSessionResultMessage@@@@QAEPAVServersDeleteSessionResultMessage@@XZ 100133d0 f i MessageDefinition.obj
 0001:000123f0       ?GetPayload@?$NPRPCBuffer@VServersGetSessionsMessage@@@@QAEPAVServersGetSessionsMessage@@XZ 100133f0 f i MessageDefinition.obj
 0001:00012410       ?GetPayload@?$NPRPCBuffer@VServersGetSessionsResultMessage@@@@QAEPAVServersGetSessionsResultMessage@@XZ 10013410 f i MessageDefinition.obj
 0001:00012430       ?GetPayload@?$NPRPCBuffer@VServersUpdateSessionMessage@@@@QAEPAVServersUpdateSessionMessage@@XZ 10013430 f i MessageDefinition.obj
 0001:00012450       ?GetPayload@?$NPRPCBuffer@VServersUpdateSessionResultMessage@@@@QAEPAVServersUpdateSessionResultMessage@@XZ 10013450 f i MessageDefinition.obj
 0001:00012470       ?GetPayload@?$NPRPCBuffer@VStorageGetPublisherFileMessage@@@@QAEPAVStorageGetPublisherFileMessage@@XZ 10013470 f i MessageDefinition.obj
 0001:00012490       ?GetPayload@?$NPRPCBuffer@VStorageGetUserFileMessage@@@@QAEPAVStorageGetUserFileMessage@@XZ 10013490 f i MessageDefinition.obj
 0001:000124b0       ?GetPayload@?$NPRPCBuffer@VStoragePublisherFileMessage@@@@QAEPAVStoragePublisherFileMessage@@XZ 100134b0 f i MessageDefinition.obj
 0001:000124d0       ?GetPayload@?$NPRPCBuffer@VStorageSendRandomStringMessage@@@@QAEPAVStorageSendRandomStringMessage@@XZ 100134d0 f i MessageDefinition.obj
 0001:000124f0       ?GetPayload@?$NPRPCBuffer@VStorageUserFileMessage@@@@QAEPAVStorageUserFileMessage@@XZ 100134f0 f i MessageDefinition.obj
 0001:00012510       ?GetPayload@?$NPRPCBuffer@VStorageWriteUserFileMessage@@@@QAEPAVStorageWriteUserFileMessage@@XZ 10013510 f i MessageDefinition.obj
 0001:00012530       ?GetPayload@?$NPRPCBuffer@VStorageWriteUserFileResultMessage@@@@QAEPAVStorageWriteUserFileResultMessage@@XZ 10013530 f i MessageDefinition.obj
 0001:00012550       ?GetType@RPCAuthenticateExternalStatusMessage@@UAEHXZ 10013550 f   MessageDefinition.obj
 0001:00012570       ?GetType@RPCAuthenticateKickUserMessage@@UAEHXZ 10013570 f   MessageDefinition.obj
 0001:00012590       ?GetType@RPCAuthenticateRegisterServerMessage@@UAEHXZ 10013590 f   MessageDefinition.obj
 0001:000125b0       ?GetType@RPCAuthenticateRegisterServerResultMessage@@UAEHXZ 100135b0 f   MessageDefinition.obj
 0001:000125d0       ?GetType@RPCAuthenticateResultMessage@@UAEHXZ 100135d0 f   MessageDefinition.obj
 0001:000125f0       ?GetType@RPCAuthenticateUserGroupMessage@@UAEHXZ 100135f0 f   MessageDefinition.obj
 0001:00012610       ?GetType@RPCAuthenticateValidateTicketMessage@@UAEHXZ 10013610 f   MessageDefinition.obj
 0001:00012630       ?GetType@RPCAuthenticateValidateTicketResultMessage@@UAEHXZ 10013630 f   MessageDefinition.obj
 0001:00012650       ?GetType@RPCAuthenticateWithDetailsMessage@@UAEHXZ 10013650 f   MessageDefinition.obj
 0001:00012670       ?GetType@RPCAuthenticateWithKeyMessage@@UAEHXZ 10013670 f   MessageDefinition.obj
 0001:00012690       ?GetType@RPCAuthenticateWithTokenMessage@@UAEHXZ 10013690 f   MessageDefinition.obj
 0001:000126b0       ?GetType@RPCCloseAppMessage@@UAEHXZ 100136b0 f   MessageDefinition.obj
 0001:000126d0       ?GetType@RPCFriendsGetProfileDataMessage@@UAEHXZ 100136d0 f   MessageDefinition.obj
 0001:000126f0       ?GetType@RPCFriendsGetProfileDataResultMessage@@UAEHXZ 100136f0 f   MessageDefinition.obj
 0001:00012710       ?GetType@RPCFriendsGetUserAvatarMessage@@UAEHXZ 10013710 f   MessageDefinition.obj
 0001:00012730       ?GetType@RPCFriendsGetUserAvatarResultMessage@@UAEHXZ 10013730 f   MessageDefinition.obj
 0001:00012750       ?GetType@RPCFriendsPresenceMessage@@UAEHXZ 10013750 f   MessageDefinition.obj
 0001:00012770       ?GetType@RPCFriendsRosterMessage@@UAEHXZ 10013770 f   MessageDefinition.obj
 0001:00012790       ?GetType@RPCFriendsSetPresenceMessage@@UAEHXZ 10013790 f   MessageDefinition.obj
 0001:000127b0       ?GetType@RPCFriendsSetSteamIDMessage@@UAEHXZ 100137b0 f   MessageDefinition.obj
 0001:000127d0       ?GetType@RPCHelloMessage@@UAEHXZ 100137d0 f   MessageDefinition.obj
 0001:000127f0       ?GetType@RPCMessagingSendDataMessage@@UAEHXZ 100137f0 f   MessageDefinition.obj
 0001:00012810       ?GetType@RPCServersCreateSessionMessage@@UAEHXZ 10013810 f   MessageDefinition.obj
 0001:00012830       ?GetType@RPCServersCreateSessionResultMessage@@UAEHXZ 10013830 f   MessageDefinition.obj
 0001:00012850       ?GetType@RPCServersDeleteSessionMessage@@UAEHXZ 10013850 f   MessageDefinition.obj
 0001:00012870       ?GetType@RPCServersDeleteSessionResultMessage@@UAEHXZ 10013870 f   MessageDefinition.obj
 0001:00012890       ?GetType@RPCServersGetSessionsMessage@@UAEHXZ 10013890 f   MessageDefinition.obj
 0001:000128b0       ?GetType@RPCServersGetSessionsResultMessage@@UAEHXZ 100138b0 f   MessageDefinition.obj
 0001:000128d0       ?GetType@RPCServersUpdateSessionMessage@@UAEHXZ 100138d0 f   MessageDefinition.obj
 0001:000128f0       ?GetType@RPCServersUpdateSessionResultMessage@@UAEHXZ 100138f0 f   MessageDefinition.obj
 0001:00012910       ?GetType@RPCStorageGetPublisherFileMessage@@UAEHXZ 10013910 f   MessageDefinition.obj
 0001:00012930       ?GetType@RPCStorageGetUserFileMessage@@UAEHXZ 10013930 f   MessageDefinition.obj
 0001:00012950       ?GetType@RPCStoragePublisherFileMessage@@UAEHXZ 10013950 f   MessageDefinition.obj
 0001:00012970       ?GetType@RPCStorageSendRandomStringMessage@@UAEHXZ 10013970 f   MessageDefinition.obj
 0001:00012990       ?GetType@RPCStorageUserFileMessage@@UAEHXZ 10013990 f   MessageDefinition.obj
 0001:000129b0       ?GetType@RPCStorageWriteUserFileMessage@@UAEHXZ 100139b0 f   MessageDefinition.obj
 0001:000129d0       ?GetType@RPCStorageWriteUserFileResultMessage@@UAEHXZ 100139d0 f   MessageDefinition.obj
 0001:000129f0       ?Serialize@?$NPRPCBuffer@VAuthenticateExternalStatusMessage@@@@UAE?AV?$basic_string@DU?$char_traits@D@std@@V?$allocator@D@2@@std@@XZ 100139f0 f i MessageDefinition.obj
 0001:00012ab0       ?Serialize@?$NPRPCBuffer@VAuthenticateKickUserMessage@@@@UAE?AV?$basic_string@DU?$char_traits@D@std@@V?$allocator@D@2@@std@@XZ 10013ab0 f i MessageDefinition.obj
 0001:00012b70       ?Serialize@?$NPRPCBuffer@VAuthenticateRegisterServerMessage@@@@UAE?AV?$basic_string@DU?$char_traits@D@std@@V?$allocator@D@2@@std@@XZ 10013b70 f i MessageDefinition.obj
 0001:00012c30       ?Serialize@?$NPRPCBuffer@VAuthenticateRegisterServerResultMessage@@@@UAE?AV?$basic_string@DU?$char_traits@D@std@@V?$allocator@D@2@@std@@XZ 10013c30 f i MessageDefinition.obj
 0001:00012cf0       ?Serialize@?$NPRPCBuffer@VAuthenticateResultMessage@@@@UAE?AV?$basic_string@DU?$char_traits@D@std@@V?$allocator@D@2@@std@@XZ 10013cf0 f i MessageDefinition.obj
 0001:00012db0       ?Serialize@?$NPRPCBuffer@VAuthenticateUserGroupMessage@@@@UAE?AV?$basic_string@DU?$char_traits@D@std@@V?$allocator@D@2@@std@@XZ 10013db0 f i MessageDefinition.obj
 0001:00012e70       ?Serialize@?$NPRPCBuffer@VAuthenticateValidateTicketMessage@@@@UAE?AV?$basic_string@DU?$char_traits@D@std@@V?$allocator@D@2@@std@@XZ 10013e70 f i MessageDefinition.obj
 0001:00012f30       ?Serialize@?$NPRPCBuffer@VAuthenticateValidateTicketResultMessage@@@@UAE?AV?$basic_string@DU?$char_traits@D@std@@V?$allocator@D@2@@std@@XZ 10013f30 f i MessageDefinition.obj
 0001:00012ff0       ?Serialize@?$NPRPCBuffer@VAuthenticateWithDetailsMessage@@@@UAE?AV?$basic_string@DU?$char_traits@D@std@@V?$allocator@D@2@@std@@XZ 10013ff0 f i MessageDefinition.obj
 0001:000130b0       ?Serialize@?$NPRPCBuffer@VAuthenticateWithKeyMessage@@@@UAE?AV?$basic_string@DU?$char_traits@D@std@@V?$allocator@D@2@@std@@XZ 100140b0 f i MessageDefinition.obj
 0001:00013170       ?Serialize@?$NPRPCBuffer@VAuthenticateWithTokenMessage@@@@UAE?AV?$basic_string@DU?$char_traits@D@std@@V?$allocator@D@2@@std@@XZ 10014170 f i MessageDefinition.obj
 0001:00013230       ?Serialize@?$NPRPCBuffer@VCloseAppMessage@@@@UAE?AV?$basic_string@DU?$char_traits@D@std@@V?$allocator@D@2@@std@@XZ 10014230 f i MessageDefinition.obj
 0001:000132f0       ?Serialize@?$NPRPCBuffer@VFriendsGetProfileDataMessage@@@@UAE?AV?$basic_string@DU?$char_traits@D@std@@V?$allocator@D@2@@std@@XZ 100142f0 f i MessageDefinition.obj
 0001:000133b0       ?Serialize@?$NPRPCBuffer@VFriendsGetProfileDataResultMessage@@@@UAE?AV?$basic_string@DU?$char_traits@D@std@@V?$allocator@D@2@@std@@XZ 100143b0 f i MessageDefinition.obj
 0001:00013470       ?Serialize@?$NPRPCBuffer@VFriendsGetUserAvatarMessage@@@@UAE?AV?$basic_string@DU?$char_traits@D@std@@V?$allocator@D@2@@std@@XZ 10014470 f i MessageDefinition.obj
 0001:00013530       ?Serialize@?$NPRPCBuffer@VFriendsGetUserAvatarResultMessage@@@@UAE?AV?$basic_string@DU?$char_traits@D@std@@V?$allocator@D@2@@std@@XZ 10014530 f i MessageDefinition.obj
 0001:000135f0       ?Serialize@?$NPRPCBuffer@VFriendsPresenceMessage@@@@UAE?AV?$basic_string@DU?$char_traits@D@std@@V?$allocator@D@2@@std@@XZ 100145f0 f i MessageDefinition.obj
 0001:000136b0       ?Serialize@?$NPRPCBuffer@VFriendsRosterMessage@@@@UAE?AV?$basic_string@DU?$char_traits@D@std@@V?$allocator@D@2@@std@@XZ 100146b0 f i MessageDefinition.obj
 0001:00013770       ?Serialize@?$NPRPCBuffer@VFriendsSetPresenceMessage@@@@UAE?AV?$basic_string@DU?$char_traits@D@std@@V?$allocator@D@2@@std@@XZ 10014770 f i MessageDefinition.obj
 0001:00013830       ?Serialize@?$NPRPCBuffer@VFriendsSetSteamIDMessage@@@@UAE?AV?$basic_string@DU?$char_traits@D@std@@V?$allocator@D@2@@std@@XZ 10014830 f i MessageDefinition.obj
 0001:000138f0       ?Serialize@?$NPRPCBuffer@VHelloMessage@@@@UAE?AV?$basic_string@DU?$char_traits@D@std@@V?$allocator@D@2@@std@@XZ 100148f0 f i MessageDefinition.obj
 0001:000139b0       ?Serialize@?$NPRPCBuffer@VMessagingSendDataMessage@@@@UAE?AV?$basic_string@DU?$char_traits@D@std@@V?$allocator@D@2@@std@@XZ 100149b0 f i MessageDefinition.obj
 0001:00013a70       ?Serialize@?$NPRPCBuffer@VServersCreateSessionMessage@@@@UAE?AV?$basic_string@DU?$char_traits@D@std@@V?$allocator@D@2@@std@@XZ 10014a70 f i MessageDefinition.obj
 0001:00013b30       ?Serialize@?$NPRPCBuffer@VServersCreateSessionResultMessage@@@@UAE?AV?$basic_string@DU?$char_traits@D@std@@V?$allocator@D@2@@std@@XZ 10014b30 f i MessageDefinition.obj
 0001:00013bf0       ?Serialize@?$NPRPCBuffer@VServersDeleteSessionMessage@@@@UAE?AV?$basic_string@DU?$char_traits@D@std@@V?$allocator@D@2@@std@@XZ 10014bf0 f i MessageDefinition.obj
 0001:00013cb0       ?Serialize@?$NPRPCBuffer@VServersDeleteSessionResultMessage@@@@UAE?AV?$basic_string@DU?$char_traits@D@std@@V?$allocator@D@2@@std@@XZ 10014cb0 f i MessageDefinition.obj
 0001:00013d70       ?Serialize@?$NPRPCBuffer@VServersGetSessionsMessage@@@@UAE?AV?$basic_string@DU?$char_traits@D@std@@V?$allocator@D@2@@std@@XZ 10014d70 f i MessageDefinition.obj
 0001:00013e30       ?Serialize@?$NPRPCBuffer@VServersGetSessionsResultMessage@@@@UAE?AV?$basic_string@DU?$char_traits@D@std@@V?$allocator@D@2@@std@@XZ 10014e30 f i MessageDefinition.obj
 0001:00013ef0       ?Serialize@?$NPRPCBuffer@VServersUpdateSessionMessage@@@@UAE?AV?$basic_string@DU?$char_traits@D@std@@V?$allocator@D@2@@std@@XZ 10014ef0 f i MessageDefinition.obj
 0001:00013fb0       ?Serialize@?$NPRPCBuffer@VServersUpdateSessionResultMessage@@@@UAE?AV?$basic_string@DU?$char_traits@D@std@@V?$allocator@D@2@@std@@XZ 10014fb0 f i MessageDefinition.obj
 0001:00014070       ?Serialize@?$NPRPCBuffer@VStorageGetPublisherFileMessage@@@@UAE?AV?$basic_string@DU?$char_traits@D@std@@V?$allocator@D@2@@std@@XZ 10015070 f i MessageDefinition.obj
 0001:00014130       ?Serialize@?$NPRPCBuffer@VStorageGetUserFileMessage@@@@UAE?AV?$basic_string@DU?$char_traits@D@std@@V?$allocator@D@2@@std@@XZ 10015130 f i MessageDefinition.obj
 0001:000141f0       ?Serialize@?$NPRPCBuffer@VStoragePublisherFileMessage@@@@UAE?AV?$basic_string@DU?$char_traits@D@std@@V?$allocator@D@2@@std@@XZ 100151f0 f i MessageDefinition.obj
 0001:000142b0       ?Serialize@?$NPRPCBuffer@VStorageUserFileMessage@@@@UAE?AV?$basic_string@DU?$char_traits@D@std@@V?$allocator@D@2@@std@@XZ 100152b0 f i MessageDefinition.obj
 0001:00014370       ?Serialize@?$NPRPCBuffer@VStorageWriteUserFileMessage@@@@UAE?AV?$basic_string@DU?$char_traits@D@std@@V?$allocator@D@2@@std@@XZ 10015370 f i MessageDefinition.obj
 0001:00014430       ?Serialize@?$NPRPCBuffer@VStorageWriteUserFileResultMessage@@@@UAE?AV?$basic_string@DU?$char_traits@D@std@@V?$allocator@D@2@@std@@XZ 10015430 f i MessageDefinition.obj
 0001:000144f0       ?Serialize@RPCAuthenticateExternalStatusMessage@@UAEPAEPAII@Z 100154f0 f   MessageDefinition.obj
 0001:00014690       ?Serialize@RPCAuthenticateKickUserMessage@@UAEPAEPAII@Z 10015690 f   MessageDefinition.obj
 0001:00014830       ?Serialize@RPCAuthenticateRegisterServerMessage@@UAEPAEPAII@Z 10015830 f   MessageDefinition.obj
 0001:000149d0       ?Serialize@RPCAuthenticateRegisterServerResultMessage@@UAEPAEPAII@Z 100159d0 f   MessageDefinition.obj
 0001:00014b70       ?Serialize@RPCAuthenticateResultMessage@@UAEPAEPAII@Z 10015b70 f   MessageDefinition.obj
 0001:00014d10       ?Serialize@RPCAuthenticateUserGroupMessage@@UAEPAEPAII@Z 10015d10 f   MessageDefinition.obj
 0001:00014eb0       ?Serialize@RPCAuthenticateValidateTicketMessage@@UAEPAEPAII@Z 10015eb0 f   MessageDefinition.obj
 0001:00015050       ?Serialize@RPCAuthenticateValidateTicketResultMessage@@UAEPAEPAII@Z 10016050 f   MessageDefinition.obj
 0001:000151f0       ?Serialize@RPCAuthenticateWithDetailsMessage@@UAEPAEPAII@Z 100161f0 f   MessageDefinition.obj
 0001:00015390       ?Serialize@RPCAuthenticateWithKeyMessage@@UAEPAEPAII@Z 10016390 f   MessageDefinition.obj
 0001:00015530       ?Serialize@RPCAuthenticateWithTokenMessage@@UAEPAEPAII@Z 10016530 f   MessageDefinition.obj
 0001:000156d0       ?Serialize@RPCCloseAppMessage@@UAEPAEPAII@Z 100166d0 f   MessageDefinition.obj
 0001:00015870       ?Serialize@RPCFriendsGetProfileDataMessage@@UAEPAEPAII@Z 10016870 f   MessageDefinition.obj
 0001:00015a10       ?Serialize@RPCFriendsGetProfileDataResultMessage@@UAEPAEPAII@Z 10016a10 f   MessageDefinition.obj
 0001:00015bb0       ?Serialize@RPCFriendsGetUserAvatarMessage@@UAEPAEPAII@Z 10016bb0 f   MessageDefinition.obj
 0001:00015d50       ?Serialize@RPCFriendsGetUserAvatarResultMessage@@UAEPAEPAII@Z 10016d50 f   MessageDefinition.obj
 0001:00015ef0       ?Serialize@RPCFriendsPresenceMessage@@UAEPAEPAII@Z 10016ef0 f   MessageDefinition.obj
 0001:00016090       ?Serialize@RPCFriendsRosterMessage@@UAEPAEPAII@Z 10017090 f   MessageDefinition.obj
 0001:00016230       ?Serialize@RPCFriendsSetPresenceMessage@@UAEPAEPAII@Z 10017230 f   MessageDefinition.obj
 0001:000163d0       ?Serialize@RPCFriendsSetSteamIDMessage@@UAEPAEPAII@Z 100173d0 f   MessageDefinition.obj
 0001:00016570       ?Serialize@RPCHelloMessage@@UAEPAEPAII@Z 10017570 f   MessageDefinition.obj
 0001:00016710       ?Serialize@RPCMessagingSendDataMessage@@UAEPAEPAII@Z 10017710 f   MessageDefinition.obj
 0001:000168b0       ?Serialize@RPCServersCreateSessionMessage@@UAEPAEPAII@Z 100178b0 f   MessageDefinition.obj
 0001:00016a50       ?Serialize@RPCServersCreateSessionResultMessage@@UAEPAEPAII@Z 10017a50 f   MessageDefinition.obj
 0001:00016bf0       ?Serialize@RPCServersDeleteSessionMessage@@UAEPAEPAII@Z 10017bf0 f   MessageDefinition.obj
 0001:00016d90       ?Serialize@RPCServersDeleteSessionResultMessage@@UAEPAEPAII@Z 10017d90 f   MessageDefinition.obj
 0001:00016f30       ?Serialize@RPCServersGetSessionsMessage@@UAEPAEPAII@Z 10017f30 f   MessageDefinition.obj
 0001:000170d0       ?Serialize@RPCServersGetSessionsResultMessage@@UAEPAEPAII@Z 100180d0 f   MessageDefinition.obj
 0001:00017270       ?Serialize@RPCServersUpdateSessionMessage@@UAEPAEPAII@Z 10018270 f   MessageDefinition.obj
 0001:00017410       ?Serialize@RPCServersUpdateSessionResultMessage@@UAEPAEPAII@Z 10018410 f   MessageDefinition.obj
 0001:000175b0       ?Serialize@RPCStorageGetPublisherFileMessage@@UAEPAEPAII@Z 100185b0 f   MessageDefinition.obj
 0001:00017750       ?Serialize@RPCStorageGetUserFileMessage@@UAEPAEPAII@Z 10018750 f   MessageDefinition.obj
 0001:000178f0       ?Serialize@RPCStoragePublisherFileMessage@@UAEPAEPAII@Z 100188f0 f   MessageDefinition.obj
 0001:00017a90       ?Serialize@RPCStorageSendRandomStringMessage@@UAEPAEPAII@Z 10018a90 f   MessageDefinition.obj
 0001:00017c30       ?Serialize@RPCStorageUserFileMessage@@UAEPAEPAII@Z 10018c30 f   MessageDefinition.obj
 0001:00017dd0       ?Serialize@RPCStorageWriteUserFileMessage@@UAEPAEPAII@Z 10018dd0 f   MessageDefinition.obj
 0001:00017f70       ?Serialize@RPCStorageWriteUserFileResultMessage@@UAEPAEPAII@Z 10018f70 f   MessageDefinition.obj
 0001:00018110       ?c_str@?$basic_string@DU?$char_traits@D@std@@V?$allocator@D@2@@std@@QBEPBDXZ 10019110 f i MessageDefinition.obj
 0001:00018140       ?length@?$basic_string@DU?$char_traits@D@std@@V?$allocator@D@2@@std@@QBEIXZ 10019140 f i MessageDefinition.obj
 0001:00018160       ??$?0PAVNPAsyncCallback@@@?$allocator@PAPAVNPAsyncCallback@@@std@@QAE@ABV?$allocator@PAVNPAsyncCallback@@@1@@Z 10019160 f i NPAsync.obj
 0001:00018180       ??$?0U?$_Wrap_alloc@V?$allocator@PAVNPAsyncCallback@@@std@@@std@@@?$_Wrap_alloc@V?$allocator@PAPAVNPAsyncCallback@@@std@@@std@@QAE@ABU?$_Wrap_alloc@V?$allocator@PAVNPAsyncCallback@@@std@@@1@@Z 10019180 f i NPAsync.obj
 0001:000181b0       ??$_Allocate@U_Container_proxy@std@@@std@@YAPAU_Container_proxy@0@IPAU10@@Z 100191b0 f i NPAsync.obj
 0001:00018210       ??$construct@U_Container_proxy@std@@U12@@?$_Wrap_alloc@V?$allocator@U_Container_proxy@std@@@std@@@std@@QAEXPAU_Container_proxy@1@$$QAU21@@Z 10019210 f i NPAsync.obj
 0001:00018250       ??$construct@U_Container_proxy@std@@U12@@?$allocator@U_Container_proxy@std@@@std@@QAEXPAU_Container_proxy@1@$$QAU21@@Z 10019250 f i NPAsync.obj
 0001:00018310       ??$construct@U_Container_proxy@std@@U12@@?$allocator_traits@V?$allocator@U_Container_proxy@std@@@std@@@std@@SAXAAV?$allocator@U_Container_proxy@std@@@1@PAU_Container_proxy@1@$$QAU31@@Z 10019310 f i NPAsync.obj
 0001:00018350       ??$destroy@PAPAVNPAsyncCallback@@@?$_Wrap_alloc@V?$allocator@PAVNPAsyncCallback@@@std@@@std@@QAEXPAPAPAVNPAsyncCallback@@@Z 10019350 f i NPAsync.obj
 0001:00018380       ??$destroy@PAPAVNPAsyncCallback@@@?$allocator@PAVNPAsyncCallback@@@std@@QAEXPAPAPAVNPAsyncCallback@@@Z 10019380 f i NPAsync.obj
 0001:000183a0       ??$destroy@PAPAVNPAsyncCallback@@@?$allocator_traits@V?$allocator@PAVNPAsyncCallback@@@std@@@std@@SAXAAV?$allocator@PAVNPAsyncCallback@@@1@PAPAPAVNPAsyncCallback@@@Z 100193a0 f i NPAsync.obj
 0001:000183d0       ??$destroy@PAVNPAsyncCallback@@@?$_Wrap_alloc@V?$allocator@PAVNPAsyncCallback@@@std@@@std@@QAEXPAPAVNPAsyncCallback@@@Z 100193d0 f i NPAsync.obj
 0001:00018400       ??$destroy@PAVNPAsyncCallback@@@?$allocator@PAVNPAsyncCallback@@@std@@QAEXPAPAVNPAsyncCallback@@@Z 10019400 f i NPAsync.obj
 0001:00018420       ??$destroy@PAVNPAsyncCallback@@@?$allocator_traits@V?$allocator@PAVNPAsyncCallback@@@std@@@std@@SAXAAV?$allocator@PAVNPAsyncCallback@@@1@PAPAVNPAsyncCallback@@@Z 10019420 f i NPAsync.obj
 0001:00018450       ??$destroy@U_Container_proxy@std@@@?$_Wrap_alloc@V?$allocator@U_Container_proxy@std@@@std@@@std@@QAEXPAU_Container_proxy@1@@Z 10019450 f i NPAsync.obj
 0001:00018480       ??$destroy@U_Container_proxy@std@@@?$allocator@U_Container_proxy@std@@@std@@QAEXPAU_Container_proxy@1@@Z 10019480 f i NPAsync.obj
 0001:000184a0       ??$destroy@U_Container_proxy@std@@@?$allocator_traits@V?$allocator@U_Container_proxy@std@@@std@@@std@@SAXAAV?$allocator@U_Container_proxy@std@@@1@PAU_Container_proxy@1@@Z 100194a0 f i NPAsync.obj
 0001:000184d0       ??$forward@U_Container_proxy@std@@@std@@YA$$QAU_Container_proxy@0@AAU10@@Z 100194d0 f i NPAsync.obj
 0001:000184f0       ??0?$_Deque_alloc@$0A@U?$_Deque_base_types@PAVNPAsyncCallback@@V?$allocator@PAVNPAsyncCallback@@@std@@@std@@@std@@QAE@ABV?$allocator@PAVNPAsyncCallback@@@1@@Z 100194f0 f i NPAsync.obj
 0001:00018570       ??0?$_Deque_const_iterator@V?$_Deque_val@U?$_Deque_simple_types@PAVNPAsyncCallback@@@std@@@std@@@std@@QAE@IPBU_Container_base12@1@@Z 10019570 f i NPAsync.obj
 0001:00018600       ??0?$_Deque_iterator@V?$_Deque_val@U?$_Deque_simple_types@PAVNPAsyncCallback@@@std@@@std@@@std@@QAE@IPBU_Container_base12@1@@Z 10019600 f i NPAsync.obj
 0001:00018640       ??0?$_Deque_val@U?$_Deque_simple_types@PAVNPAsyncCallback@@@std@@@std@@QAE@XZ 10019640 f i NPAsync.obj
 0001:000186a0       ??0?$_Wrap_alloc@V?$allocator@PAVNPAsyncCallback@@@std@@@std@@QAE@XZ 100196a0 f i NPAsync.obj
 0001:000186d0       ??0?$_Wrap_alloc@V?$allocator@U_Container_proxy@std@@@std@@@std@@QAE@XZ 100196d0 f i NPAsync.obj
 0001:00018700       ??0?$allocator@PAVNPAsyncCallback@@@std@@QAE@XZ 10019700 f i NPAsync.obj
 0001:00018720       ??0?$allocator@U_Container_proxy@std@@@std@@QAE@XZ 10019720 f i NPAsync.obj
 0001:00018740       ??0?$deque@PAVNPAsyncCallback@@V?$allocator@PAVNPAsyncCallback@@@std@@@std@@QAE@XZ 10019740 f i NPAsync.obj
 0001:00018770       ??0?$queue@PAVNPAsyncCallback@@V?$deque@PAVNPAsyncCallback@@V?$allocator@PAVNPAsyncCallback@@@std@@@std@@@std@@QAE@XZ 10019770 f i NPAsync.obj
 0001:000187a0       ??0_Container_base12@std@@QAE@XZ 100197a0 f i NPAsync.obj
 0001:000187d0       ??0_Container_proxy@std@@QAE@XZ 100197d0 f i NPAsync.obj
 0001:00018810       ??0_Iterator_base12@std@@QAE@XZ 10019810 f i NPAsync.obj
 0001:00018850       ??1?$_Deque_alloc@$0A@U?$_Deque_base_types@PAVNPAsyncCallback@@V?$allocator@PAVNPAsyncCallback@@@std@@@std@@@std@@QAE@XZ 10019850 f i NPAsync.obj
 0001:00018880       ??1?$_Deque_const_iterator@V?$_Deque_val@U?$_Deque_simple_types@PAVNPAsyncCallback@@@std@@@std@@@std@@QAE@XZ 10019880 f i NPAsync.obj
 0001:000188b0       ??1?$_Deque_iterator@V?$_Deque_val@U?$_Deque_simple_types@PAVNPAsyncCallback@@@std@@@std@@@std@@QAE@XZ 100198b0 f i NPAsync.obj
 0001:000188e0       ??1?$_Deque_val@U?$_Deque_simple_types@PAVNPAsyncCallback@@@std@@@std@@QAE@XZ 100198e0 f i NPAsync.obj
 0001:00018910       ??1?$deque@PAVNPAsyncCallback@@V?$allocator@PAVNPAsyncCallback@@@std@@@std@@QAE@XZ 10019910 f i NPAsync.obj
 0001:00018940       ??1?$queue@PAVNPAsyncCallback@@V?$deque@PAVNPAsyncCallback@@V?$allocator@PAVNPAsyncCallback@@@std@@@std@@@std@@QAE@XZ 10019940 f i NPAsync.obj
 0001:00018970       ??1_Container_base12@std@@QAE@XZ 10019970 f i NPAsync.obj
 0001:000189a0       ??1_Iterator_base12@std@@QAE@XZ 100199a0 f i NPAsync.obj
 0001:000189c0       ??D?$_Deque_const_iterator@V?$_Deque_val@U?$_Deque_simple_types@PAVNPAsyncCallback@@@std@@@std@@@std@@QBEABQAVNPAsyncCallback@@XZ 100199c0 f i NPAsync.obj
 0001:00018a30       ??D?$_Deque_iterator@V?$_Deque_val@U?$_Deque_simple_types@PAVNPAsyncCallback@@@std@@@std@@@std@@QBEAAPAVNPAsyncCallback@@XZ 10019a30 f i NPAsync.obj
 0001:00018a60       ?Async_RunCallbacks@@YAXXZ 10019a60 f   NPAsync.obj
 0001:00018ae0       ?_Adopt@_Iterator_base12@std@@QAEXPBU_Container_base12@2@@Z 10019ae0 f i NPAsync.obj
 0001:00018b80       ?_Alloc_proxy@?$_Deque_alloc@$0A@U?$_Deque_base_types@PAVNPAsyncCallback@@V?$allocator@PAVNPAsyncCallback@@@std@@@std@@@std@@QAEXXZ 10019b80 f i NPAsync.obj
 0001:00018be0       ?_Free_proxy@?$_Deque_alloc@$0A@U?$_Deque_base_types@PAVNPAsyncCallback@@V?$allocator@PAVNPAsyncCallback@@@std@@@std@@@std@@QAEXXZ 10019be0 f i NPAsync.obj
 0001:00018c40       ?_Getal@?$_Deque_alloc@$0A@U?$_Deque_base_types@PAVNPAsyncCallback@@V?$allocator@PAVNPAsyncCallback@@@std@@@std@@@std@@QBE?AU?$_Wrap_alloc@V?$allocator@PAVNPAsyncCallback@@@std@@@2@XZ 10019c40 f i NPAsync.obj
 0001:00018c70       ?_Getblock@?$_Deque_val@U?$_Deque_simple_types@PAVNPAsyncCallback@@@std@@@std@@QBEII@Z 10019c70 f i NPAsync.obj
 0001:00018ca0       ?_Getcont@_Iterator_base12@std@@QBEPBU_Container_base12@2@XZ 10019ca0 f i NPAsync.obj
 0001:00018ce0       ?_Orphan_all@_Container_base12@std@@QAEXXZ 10019ce0 f i NPAsync.obj
 0001:00018d00       ?_Orphan_me@_Iterator_base12@std@@QAEXXZ 10019d00 f i NPAsync.obj
 0001:00018d20       ?_Setcont@?$_Deque_const_iterator@V?$_Deque_val@U?$_Deque_simple_types@PAVNPAsyncCallback@@@std@@@std@@@std@@QAEXPBV?$_Deque_val@U?$_Deque_simple_types@PAVNPAsyncCallback@@@std@@@2@@Z 10019d20 f i NPAsync.obj
 0001:00018d50       ?_Tidy@?$deque@PAVNPAsyncCallback@@V?$allocator@PAVNPAsyncCallback@@@std@@@std@@IAEXXZ 10019d50 f i NPAsync.obj
 0001:00018e70       ?allocate@?$_Wrap_alloc@V?$allocator@U_Container_proxy@std@@@std@@@std@@QAEPAU_Container_proxy@2@I@Z 10019e70 f i NPAsync.obj
 0001:00018ea0       ?allocate@?$allocator@U_Container_proxy@std@@@std@@QAEPAU_Container_proxy@2@I@Z 10019ea0 f i NPAsync.obj
 0001:00018ed0       ?begin@?$deque@PAVNPAsyncCallback@@V?$allocator@PAVNPAsyncCallback@@@std@@@std@@QAE?AV?$_Deque_iterator@V?$_Deque_val@U?$_Deque_simple_types@PAVNPAsyncCallback@@@std@@@std@@@2@XZ 10019ed0 f i NPAsync.obj
 0001:00018f10       ?deallocate@?$_Wrap_alloc@V?$allocator@PAPAVNPAsyncCallback@@@std@@@std@@QAEXPAPAPAVNPAsyncCallback@@I@Z 10019f10 f i NPAsync.obj
 0001:00018f40       ?deallocate@?$_Wrap_alloc@V?$allocator@PAVNPAsyncCallback@@@std@@@std@@QAEXPAPAVNPAsyncCallback@@I@Z 10019f40 f i NPAsync.obj
 0001:00018f70       ?deallocate@?$_Wrap_alloc@V?$allocator@U_Container_proxy@std@@@std@@@std@@QAEXPAU_Container_proxy@2@I@Z 10019f70 f i NPAsync.obj
 0001:00018fa0       ?deallocate@?$allocator@PAPAVNPAsyncCallback@@@std@@QAEXPAPAPAVNPAsyncCallback@@I@Z 10019fa0 f i NPAsync.obj
 0001:00018fd0       ?deallocate@?$allocator@PAVNPAsyncCallback@@@std@@QAEXPAPAVNPAsyncCallback@@I@Z 10019fd0 f i NPAsync.obj
 0001:00019000       ?deallocate@?$allocator@U_Container_proxy@std@@@std@@QAEXPAU_Container_proxy@2@I@Z 1001a000 f i NPAsync.obj
 0001:00019030       ?empty@?$deque@PAVNPAsyncCallback@@V?$allocator@PAVNPAsyncCallback@@@std@@@std@@QBE_NXZ 1001a030 f i NPAsync.obj
 0001:00019070       ?empty@?$queue@PAVNPAsyncCallback@@V?$deque@PAVNPAsyncCallback@@V?$allocator@PAVNPAsyncCallback@@@std@@@std@@@std@@QBE_NXZ 1001a070 f i NPAsync.obj
 0001:000190a0       ?front@?$deque@PAVNPAsyncCallback@@V?$allocator@PAVNPAsyncCallback@@@std@@@std@@QAEAAPAVNPAsyncCallback@@XZ 1001a0a0 f i NPAsync.obj
 0001:00019140       ?front@?$queue@PAVNPAsyncCallback@@V?$deque@PAVNPAsyncCallback@@V?$allocator@PAVNPAsyncCallback@@@std@@@std@@@std@@QAEAAPAVNPAsyncCallback@@XZ 1001a140 f i NPAsync.obj
 0001:00019170       ?pop@?$queue@PAVNPAsyncCallback@@V?$deque@PAVNPAsyncCallback@@V?$allocator@PAVNPAsyncCallback@@@std@@@std@@@std@@QAEXXZ 1001a170 f i NPAsync.obj
 0001:000191a0       ?pop_back@?$deque@PAVNPAsyncCallback@@V?$allocator@PAVNPAsyncCallback@@@std@@@std@@QAEXXZ 1001a1a0 f i NPAsync.obj
 0001:00019260       ?pop_front@?$deque@PAVNPAsyncCallback@@V?$allocator@PAVNPAsyncCallback@@@std@@@std@@QAEXXZ 1001a260 f i NPAsync.obj
 0001:00019330       ??$_Allocate@PAPAVNPAsyncCallback@@@std@@YAPAPAPAVNPAsyncCallback@@IPAPAPAV1@@Z 1001a330 f i NPAuthenticate.obj
 0001:00019390       ??$_Allocate@PAVNPAsyncCallback@@@std@@YAPAPAVNPAsyncCallback@@IPAPAV1@@Z 1001a390 f i NPAuthenticate.obj
 0001:000193f0       ??$_Destroy_range@U?$_Wrap_alloc@V?$allocator@PAPAVNPAsyncCallback@@@std@@@std@@@std@@YAXPAPAPAVNPAsyncCallback@@0AAU?$_Wrap_alloc@V?$allocator@PAPAVNPAsyncCallback@@@std@@@0@@Z 1001a3f0 f i NPAuthenticate.obj
 0001:00019440       ??$_Destroy_range@U?$_Wrap_alloc@V?$allocator@PAPAVNPAsyncCallback@@@std@@@std@@@std@@YAXPAPAPAVNPAsyncCallback@@0AAU?$_Wrap_alloc@V?$allocator@PAPAVNPAsyncCallback@@@std@@@0@U_Scalar_ptr_iterator_tag@0@@Z 1001a440 f i NPAuthenticate.obj
 0001:00019460       ??$_Fill_n@PAPAPAVNPAsyncCallback@@IPAPAV1@@std@@YAPAPAPAVNPAsyncCallback@@PAPAPAV1@IABQAPAV1@@Z 1001a460 f i NPAuthenticate.obj
 0001:000194b0       ??$_Ptr_cat@PAPAVNPAsyncCallback@@PAPAV1@@std@@YA?AU_Scalar_ptr_iterator_tag@0@PAPAPAVNPAsyncCallback@@0@Z 1001a4b0 f i NPAuthenticate.obj
 0001:000194d0       ??$_Uninit_copy@PAPAVNPAsyncCallback@@PAPAV1@@std@@YAPAPAPAVNPAsyncCallback@@PAPAPAV1@00AAU?$_Wrap_alloc@V?$allocator@PAPAVNPAsyncCallback@@@std@@@0@U_Scalar_ptr_iterator_tag@0@@Z 1001a4d0 f i NPAuthenticate.obj
 0001:00019520       ??$_Uninit_def_fill_n@PAPAVNPAsyncCallback@@IPAPAV1@@std@@YAXPAPAPAVNPAsyncCallback@@IAAU?$_Wrap_alloc@V?$allocator@PAPAVNPAsyncCallback@@@std@@@0@0U_Scalar_ptr_iterator_tag@0@@Z 1001a520 f i NPAuthenticate.obj
 0001:00019560       ??$_Uninitialized_copy@PAPAPAVNPAsyncCallback@@PAPAPAV1@U?$_Wrap_alloc@V?$allocator@PAPAVNPAsyncCallback@@@std@@@std@@@std@@YAPAPAPAVNPAsyncCallback@@PAPAPAV1@00AAU?$_Wrap_alloc@V?$allocator@PAPAVNPAsyncCallback@@@std@@@0@@Z 1001a560 f i NPAuthenticate.obj
 0001:000195b0       ??$_Uninitialized_default_fill_n@PAPAPAVNPAsyncCallback@@IU?$_Wrap_alloc@V?$allocator@PAPAVNPAsyncCallback@@@std@@@std@@@std@@YAXPAPAPAVNPAsyncCallback@@IAAU?$_Wrap_alloc@V?$allocator@PAPAVNPAsyncCallback@@@std@@@0@@Z 1001a5b0 f i NPAuthenticate.obj
 0001:00019610       ??$_Val_type@PAPAPAVNPAsyncCallback@@@std@@YAPAPAPAVNPAsyncCallback@@PAPAPAV1@@Z 1001a610 f i NPAuthenticate.obj
 0001:00019630       ??$construct@PAVNPAsyncCallback@@PAV1@@?$_Wrap_alloc@V?$allocator@PAVNPAsyncCallback@@@std@@@std@@QAEXPAPAVNPAsyncCallback@@$$QAPAV2@@Z 1001a630 f i NPAuthenticate.obj
 0001:00019670       ??$construct@PAVNPAsyncCallback@@PAV1@@?$allocator@PAVNPAsyncCallback@@@std@@QAEXPAPAVNPAsyncCallback@@$$QAPAV2@@Z 1001a670 f i NPAuthenticate.obj
 0001:00019720       ??$construct@PAVNPAsyncCallback@@PAV1@@?$allocator_traits@V?$allocator@PAVNPAsyncCallback@@@std@@@std@@SAXAAV?$allocator@PAVNPAsyncCallback@@@1@PAPAVNPAsyncCallback@@$$QAPAV3@@Z 1001a720 f i NPAuthenticate.obj
 0001:00019760       ??$forward@PAVNPAsyncCallback@@@std@@YA$$QAPAVNPAsyncCallback@@AAPAV1@@Z 1001a760 f i NPAuthenticate.obj
 0001:00019780       ??$move@AAPAVNPAsyncCallback@@@std@@YA$$QAPAVNPAsyncCallback@@AAPAV1@@Z 1001a780 f i NPAuthenticate.obj
 0001:000197a0       ??$strcpy_s@$0CA@@@YAHAAY0CA@DPBD@Z 1001a7a0 f i NPAuthenticate.obj
 0001:000197d0       ??0?$NPAsync@VNPAuthenticateResult@@@@QAE@XZ 1001a7d0 f i NPAuthenticate.obj
 0001:00019800       ??0?$NPAsync@VNPRegisterServerResult@@@@QAE@XZ 1001a800 f i NPAuthenticate.obj
 0001:00019830       ??0?$NPAsync@VNPValidateUserTicketResult@@@@QAE@XZ 1001a830 f i NPAuthenticate.obj
 0001:00019860       ??0?$NPAsyncImpl@VNPAuthenticateResult@@@@QAE@XZ 1001a860 f i NPAuthenticate.obj
 0001:000198f0       ??0?$NPAsyncImpl@VNPRegisterServerResult@@@@QAE@XZ 1001a8f0 f i NPAuthenticate.obj
 0001:00019980       ??0?$NPAsyncImpl@VNPValidateUserTicketResult@@@@QAE@XZ 1001a980 f i NPAuthenticate.obj
 0001:00019a10       ??0?$_Wrap_alloc@V?$allocator@D@std@@@std@@QAE@ABV?$allocator@D@1@@Z 1001aa10 f i NPAuthenticate.obj
 0001:00019a40       ??0?$allocator@D@std@@QAE@ABV01@@Z 1001aa40 f i NPAuthenticate.obj
 0001:00019a60       ??0?$basic_string@DU?$char_traits@D@std@@V?$allocator@D@2@@std@@QAE@ABV01@@Z 1001aa60 f i NPAuthenticate.obj
 0001:00019ad0       ??0?$basic_string@DU?$char_traits@D@std@@V?$allocator@D@2@@std@@QAE@PBDI@Z 1001aad0 f i NPAuthenticate.obj
 0001:00019b30       ??0NPAsyncCallback@@QAE@XZ 1001ab30 f i NPAuthenticate.obj
 0001:00019d00       ?Authenticate_EAHandler@@YAXPAVINPRPCMessage@@@Z 1001ad00 f   NPAuthenticate.obj
 0001:00019d50       ?Authenticate_Init@@YAXXZ  1001ad50 f   NPAuthenticate.obj
 0001:00019db0       ?Authenticate_KickUser@@YAXPAVINPRPCMessage@@@Z 1001adb0 f   NPAuthenticate.obj
 0001:00019e20       ?Authenticate_Reauthenticate@@YAXXZ 1001ae20 f   NPAuthenticate.obj
 0001:00019ea0       ?Authenticate_SetUserGroup@@YAXPAVINPRPCMessage@@@Z 1001aea0 f   NPAuthenticate.obj
 0001:00019ee0       ?Free@?$NPAsyncImpl@VNPAuthenticateResult@@@@UAEXXZ 1001aee0 f i NPAuthenticate.obj
 0001:00019f44       ?Free@?$NPAsyncImpl@VNPAuthenticateResult@@@@W3AEXXZ 1001af44 f i NPAuthenticate.obj
 0001:00019f50       ?Free@?$NPAsyncImpl@VNPRegisterServerResult@@@@UAEXXZ 1001af50 f i NPAuthenticate.obj
 0001:00019fb4       ?Free@?$NPAsyncImpl@VNPRegisterServerResult@@@@W3AEXXZ 1001afb4 f i NPAuthenticate.obj
 0001:00019fc0       ?Free@?$NPAsyncImpl@VNPValidateUserTicketResult@@@@UAEXXZ 1001afc0 f i NPAuthenticate.obj
 0001:0001a024       ?Free@?$NPAsyncImpl@VNPValidateUserTicketResult@@@@W3AEXXZ 1001b024 f i NPAuthenticate.obj
 0001:0001a030       ?GetResult@?$NPAsyncImpl@VNPAuthenticateResult@@@@UAEPAVNPAuthenticateResult@@XZ 1001b030 f i NPAuthenticate.obj
 0001:0001a050       ?GetResult@?$NPAsyncImpl@VNPRegisterServerResult@@@@UAEPAVNPRegisterServerResult@@XZ 1001b050 f i NPAuthenticate.obj
 0001:0001a070       ?GetResult@?$NPAsyncImpl@VNPValidateUserTicketResult@@@@UAEPAVNPValidateUserTicketResult@@XZ 1001b070 f i NPAuthenticate.obj
 0001:0001a090       ?GetUserData@?$NPAsyncImpl@VNPAuthenticateResult@@@@UAEPAXXZ 1001b090 f i NPAuthenticate.obj
 0001:0001a0b0       ?GetUserData@?$NPAsyncImpl@VNPRegisterServerResult@@@@UAEPAXXZ 1001b0b0 f i NPAuthenticate.obj
 0001:0001a0d0       ?GetUserData@?$NPAsyncImpl@VNPValidateUserTicketResult@@@@UAEPAXXZ 1001b0d0 f i NPAuthenticate.obj
 0001:0001a0f0       ?HasCompleted@?$NPAsyncImpl@VNPAuthenticateResult@@@@UAE_NXZ 1001b0f0 f i NPAuthenticate.obj
 0001:0001a130       ?HasCompleted@?$NPAsyncImpl@VNPRegisterServerResult@@@@UAE_NXZ 1001b130 f i NPAuthenticate.obj
 0001:0001a170       ?HasCompleted@?$NPAsyncImpl@VNPValidateUserTicketResult@@@@UAE_NXZ 1001b170 f i NPAuthenticate.obj
 0001:0001a320       ?RunCallback@?$NPAsyncImpl@VNPAuthenticateResult@@@@UAE_NXZ 1001b320 f i NPAuthenticate.obj
 0001:0001a390       ?RunCallback@?$NPAsyncImpl@VNPRegisterServerResult@@@@UAE_NXZ 1001b390 f i NPAuthenticate.obj
 0001:0001a400       ?RunCallback@?$NPAsyncImpl@VNPValidateUserTicketResult@@@@UAE_NXZ 1001b400 f i NPAuthenticate.obj
 0001:0001a470       ?SetCallback@?$NPAsyncImpl@VNPAuthenticateResult@@@@UAEXP6AXPAV?$NPAsync@VNPAuthenticateResult@@@@@ZPAX@Z 1001b470 f i NPAuthenticate.obj
 0001:0001a4b0       ?SetCallback@?$NPAsyncImpl@VNPRegisterServerResult@@@@UAEXP6AXPAV?$NPAsync@VNPRegisterServerResult@@@@@ZPAX@Z 1001b4b0 f i NPAuthenticate.obj
 0001:0001a4f0       ?SetCallback@?$NPAsyncImpl@VNPValidateUserTicketResult@@@@UAEXP6AXPAV?$NPAsync@VNPValidateUserTicketResult@@@@@ZPAX@Z 1001b4f0 f i NPAuthenticate.obj
 0001:0001a530       ?SetResult@?$NPAsyncImpl@VNPAuthenticateResult@@@@QAEXPAVNPAuthenticateResult@@@Z 1001b530 f i NPAuthenticate.obj
 0001:0001a5a0       ?SetResult@?$NPAsyncImpl@VNPRegisterServerResult@@@@QAEXPAVNPRegisterServerResult@@@Z 1001b5a0 f i NPAuthenticate.obj
 0001:0001a610       ?SetResult@?$NPAsyncImpl@VNPValidateUserTicketResult@@@@QAEXPAVNPValidateUserTicketResult@@@Z 1001b610 f i NPAuthenticate.obj
 0001:0001a770       ?Wait@?$NPAsyncImpl@VNPAuthenticateResult@@@@UAEPAVNPAuthenticateResult@@XZ 1001b770 f i NPAuthenticate.obj
 0001:0001a7d0       ?Wait@?$NPAsyncImpl@VNPRegisterServerResult@@@@UAEPAVNPRegisterServerResult@@XZ 1001b7d0 f i NPAuthenticate.obj
 0001:0001a830       ?Wait@?$NPAsyncImpl@VNPValidateUserTicketResult@@@@UAEPAVNPValidateUserTicketResult@@XZ 1001b830 f i NPAuthenticate.obj
 0001:0001a890       ?_Growmap@?$deque@PAVNPAsyncCallback@@V?$allocator@PAVNPAsyncCallback@@@std@@@std@@IAEXI@Z 1001b890 f i NPAuthenticate.obj
 0001:0001ab30       ?_Xlen@?$deque@PAVNPAsyncCallback@@V?$allocator@PAVNPAsyncCallback@@@std@@@std@@IBEXXZ 1001bb30 f i NPAuthenticate.obj
 0001:0001ab60       ?allocate@?$_Wrap_alloc@V?$allocator@PAPAVNPAsyncCallback@@@std@@@std@@QAEPAPAPAVNPAsyncCallback@@I@Z 1001bb60 f i NPAuthenticate.obj
 0001:0001ab90       ?allocate@?$_Wrap_alloc@V?$allocator@PAVNPAsyncCallback@@@std@@@std@@QAEPAPAVNPAsyncCallback@@I@Z 1001bb90 f i NPAuthenticate.obj
 0001:0001abc0       ?allocate@?$allocator@PAPAVNPAsyncCallback@@@std@@QAEPAPAPAVNPAsyncCallback@@I@Z 1001bbc0 f i NPAuthenticate.obj
 0001:0001abf0       ?allocate@?$allocator@PAVNPAsyncCallback@@@std@@QAEPAPAVNPAsyncCallback@@I@Z 1001bbf0 f i NPAuthenticate.obj
 0001:0001ac20       ?assign@?$basic_string@DU?$char_traits@D@std@@V?$allocator@D@2@@std@@QAEAAV12@ABV12@@Z 1001bc20 f i NPAuthenticate.obj
 0001:0001ac60       ?groupid@AuthenticateUserGroupMessage@@QBEHXZ 1001bc60 f i NPAuthenticate.obj
 0001:0001ac80       ?groupid@AuthenticateValidateTicketResultMessage@@QBEHXZ 1001bc80 f i NPAuthenticate.obj
 0001:0001aca0       ?licensekey@AuthenticateRegisterServerResultMessage@@QBEABV?$basic_string@DU?$char_traits@D@std@@V?$allocator@D@2@@std@@XZ 1001bca0 f i NPAuthenticate.obj
 0001:0001acc0       ?max_size@?$_Wrap_alloc@V?$allocator@PAVNPAsyncCallback@@@std@@@std@@QBEIXZ 1001bcc0 f i NPAuthenticate.obj
 0001:0001acf0       ?max_size@?$allocator@PAVNPAsyncCallback@@@std@@QBEIXZ 1001bcf0 f i NPAuthenticate.obj
 0001:0001ad10       ?max_size@?$allocator_traits@V?$allocator@PAVNPAsyncCallback@@@std@@@std@@SAIABV?$allocator@PAVNPAsyncCallback@@@2@@Z 1001bd10 f i NPAuthenticate.obj
 0001:0001ad30       ?max_size@?$deque@PAVNPAsyncCallback@@V?$allocator@PAVNPAsyncCallback@@@std@@@std@@QBEIXZ 1001bd30 f i NPAuthenticate.obj
 0001:0001ad60       ?npid@AuthenticateKickUserMessage@@QBE_KXZ 1001bd60 f i NPAuthenticate.obj
 0001:0001ad90       ?npid@AuthenticateResultMessage@@QBE_KXZ 1001bd90 f i NPAuthenticate.obj
 0001:0001adc0       ?npid@AuthenticateValidateTicketResultMessage@@QBE_KXZ 1001bdc0 f i NPAuthenticate.obj
 0001:0001adf0       ?push@?$queue@PAVNPAsyncCallback@@V?$deque@PAVNPAsyncCallback@@V?$allocator@PAVNPAsyncCallback@@@std@@@std@@@std@@QAEX$$QAPAVNPAsyncCallback@@@Z 1001bdf0 f i NPAuthenticate.obj
 0001:0001ae30       ?push_back@?$deque@PAVNPAsyncCallback@@V?$allocator@PAVNPAsyncCallback@@@std@@@std@@QAEX$$QAPAVNPAsyncCallback@@@Z 1001be30 f i NPAuthenticate.obj
 0001:0001af80       ?reasonstring@AuthenticateKickUserMessage@@QBEABV?$basic_string@DU?$char_traits@D@std@@V?$allocator@D@2@@std@@XZ 1001bf80 f i NPAuthenticate.obj
 0001:0001afa0       ?result@AuthenticateRegisterServerResultMessage@@QBEHXZ 1001bfa0 f i NPAuthenticate.obj
 0001:0001afc0       ?result@AuthenticateResultMessage@@QBEHXZ 1001bfc0 f i NPAuthenticate.obj
 0001:0001afe0       ?result@AuthenticateValidateTicketResultMessage@@QBEHXZ 1001bfe0 f i NPAuthenticate.obj
 0001:0001b000       ?select_on_container_copy_construction@?$_Wrap_alloc@V?$allocator@D@std@@@std@@QBE?AU12@XZ 1001c000 f i NPAuthenticate.obj
 0001:0001b040       ?select_on_container_copy_construction@?$allocator@D@std@@QBE?AV12@XZ 1001c040 f i NPAuthenticate.obj
 0001:0001b070       ?select_on_container_copy_construction@?$allocator_traits@V?$allocator@D@std@@@std@@SA?AV?$allocator@D@2@ABV32@@Z 1001c070 f i NPAuthenticate.obj
 0001:0001b0a0       ?serverid@AuthenticateRegisterServerResultMessage@@QBEHXZ 1001c0a0 f i NPAuthenticate.obj
 0001:0001b0c0       ?sessiontoken@AuthenticateResultMessage@@QBEABV?$basic_string@DU?$char_traits@D@std@@V?$allocator@D@2@@std@@XZ 1001c0c0 f i NPAuthenticate.obj
 0001:0001b0e0       ?set_clientip@AuthenticateValidateTicketMessage@@QAEXI@Z 1001c0e0 f i NPAuthenticate.obj
 0001:0001b110       ?set_configpath@AuthenticateRegisterServerMessage@@QAEXPBD@Z 1001c110 f i NPAuthenticate.obj
 0001:0001b1e0       ?set_has_clientip@AuthenticateValidateTicketMessage@@AAEXXZ 1001c1e0 f i NPAuthenticate.obj
 0001:0001b230       ?set_has_configpath@AuthenticateRegisterServerMessage@@AAEXXZ 1001c230 f i NPAuthenticate.obj
 0001:0001b280       ?set_has_licensekey@AuthenticateWithKeyMessage@@AAEXXZ 1001c280 f i NPAuthenticate.obj
 0001:0001b2d0       ?set_has_npid@AuthenticateValidateTicketMessage@@AAEXXZ 1001c2d0 f i NPAuthenticate.obj
 0001:0001b320       ?set_has_password@AuthenticateWithDetailsMessage@@AAEXXZ 1001c320 f i NPAuthenticate.obj
 0001:0001b370       ?set_has_ticket@AuthenticateValidateTicketMessage@@AAEXXZ 1001c370 f i NPAuthenticate.obj
 0001:0001b3c0       ?set_has_token@AuthenticateWithTokenMessage@@AAEXXZ 1001c3c0 f i NPAuthenticate.obj
 0001:0001b410       ?set_has_username@AuthenticateWithDetailsMessage@@AAEXXZ 1001c410 f i NPAuthenticate.obj
 0001:0001b460       ?set_licensekey@AuthenticateWithKeyMessage@@QAEXPBD@Z 1001c460 f i NPAuthenticate.obj
 0001:0001b530       ?set_npid@AuthenticateValidateTicketMessage@@QAEX_K@Z 1001c530 f i NPAuthenticate.obj
 0001:0001b570       ?set_password@AuthenticateWithDetailsMessage@@QAEXPBD@Z 1001c570 f i NPAuthenticate.obj
 0001:0001b640       ?set_ticket@AuthenticateValidateTicketMessage@@QAEXABV?$basic_string@DU?$char_traits@D@std@@V?$allocator@D@2@@std@@@Z 1001c640 f i NPAuthenticate.obj
 0001:0001b710       ?set_token@AuthenticateWithTokenMessage@@QAEXPBD@Z 1001c710 f i NPAuthenticate.obj
 0001:0001b7e0       ?set_username@AuthenticateWithDetailsMessage@@QAEXPBD@Z 1001c7e0 f i NPAuthenticate.obj
 0001:0001b8b0       ?status@AuthenticateExternalStatusMessage@@QBEHXZ 1001c8b0 f i NPAuthenticate.obj
 0001:0001b8d0       _NP_AuthenticateWithDetails 1001c8d0 f   NPAuthenticate.obj
 0001:0001ba20       _NP_AuthenticateWithLicenseKey 1001ca20 f   NPAuthenticate.obj
 0001:0001bb40       _NP_AuthenticateWithToken  1001cb40 f   NPAuthenticate.obj
 0001:0001bc60       _NP_GetNPID                1001cc60 f   NPAuthenticate.obj
 0001:0001bcb0       _NP_GetUserGroup           1001ccb0 f   NPAuthenticate.obj
 0001:0001bcd0       _NP_GetUserTicket          1001ccd0 f   NPAuthenticate.obj
 0001:0001bd70       _NP_LoadGameModule         1001cd70 f   NPAuthenticate.obj
 0001:0001bf00       _NP_RegisterEACallback     1001cf00 f   NPAuthenticate.obj
 0001:0001bf30       _NP_RegisterKickCallback   1001cf30 f   NPAuthenticate.obj
 0001:0001bf50       _NP_RegisterServer         1001cf50 f   NPAuthenticate.obj
 0001:0001c040       _NP_TerminateGameConnection 1001d040 f   NPAuthenticate.obj
 0001:0001c060       _NP_ValidateUserTicket     1001d060 f   NPAuthenticate.obj
 0001:0001c1d0       ??$?0AAIABI@?$pair@II@std@@QAE@AAIABIPAPAX@Z 1001d1d0 f i NPFriends.obj
 0001:0001c220       ??$?0AAV?$_Tree_iterator@V?$_Tree_val@U?$_Tree_simple_types@U?$pair@$$CBV?$basic_string@DU?$char_traits@D@std@@V?$allocator@D@2@@std@@V12@@std@@@std@@@std@@@std@@AAV01@@?$pair@V?$_Tree_iterator@V?$_Tree_val@U?$_Tree_simple_types@U?$pair@$$CBV?$basic_string@DU?$char_traits@D@std@@V?$allocator@D@2@@std@@V12@@std@@@std@@@std@@@std@@V12@@std@@QAE@AAV?$_Tree_iterator@V?$_Tree_val@U?$_Tree_simple_types@U?$pair@$$CBV?$basic_string@DU?$char_traits@D@std@@V?$allocator@D@2@@std@@V12@@std@@@std@@@std@@@1@0PAPAX@Z 1001d220 f i NPFriends.obj
 0001:0001c270       ??$?0AAV?$_Tree_iterator@V?$_Tree_val@U?$_Tree_simple_types@U?$pair@$$CBV?$basic_string@DU?$char_traits@D@std@@V?$allocator@D@2@@std@@V12@@std@@@std@@@std@@@std@@_N@?$pair@V?$_Tree_iterator@V?$_Tree_val@U?$_Tree_simple_types@U?$pair@$$CBV?$basic_string@DU?$char_traits@D@std@@V?$allocator@D@2@@std@@V12@@std@@@std@@@std@@@std@@_N@std@@QAE@AAV?$_Tree_iterator@V?$_Tree_val@U?$_Tree_simple_types@U?$pair@$$CBV?$basic_string@DU?$char_traits@D@std@@V?$allocator@D@2@@std@@V12@@std@@@std@@@std@@@1@$$QA_NPAPAX@Z 1001d270 f i NPFriends.obj
 0001:0001c2c0       ??$?0ABIAAI@?$pair@II@std@@QAE@ABIAAIPAPAX@Z 1001d2c0 f i NPFriends.obj
 0001:0001c310       ??$?0ABV?$basic_string@DU?$char_traits@D@std@@V?$allocator@D@2@@std@@V01@@?$pair@V?$basic_string@DU?$char_traits@D@std@@V?$allocator@D@2@@std@@V12@@std@@QAE@ABV?$basic_string@DU?$char_traits@D@std@@V?$allocator@D@2@@1@$$QAV21@PAPAX@Z 1001d310 f i NPFriends.obj
 0001:0001c3b0       ??$?0AB_KUFriendState@@@?$pair@$$CB_KUFriendState@@@std@@QAE@AB_K$$QAUFriendState@@PAPAX@Z 1001d3b0 f i NPFriends.obj
 0001:0001c410       ??$?0AB_KUFriendState@@@?$pair@_KUFriendState@@@std@@QAE@AB_K$$QAUFriendState@@PAPAX@Z 1001d410 f i NPFriends.obj
 0001:0001c470       ??$?0II@?$pair@II@std@@QAE@$$QAU01@PAPAX@Z 1001d470 f i NPFriends.obj
 0001:0001c4d0       ??$?0U?$_Tree_node@U?$pair@$$CBV?$basic_string@DU?$char_traits@D@std@@V?$allocator@D@2@@std@@V12@@std@@PAX@std@@@?$allocator@U?$pair@$$CBV?$basic_string@DU?$char_traits@D@std@@V?$allocator@D@2@@std@@V12@@std@@@std@@QAE@ABV?$allocator@U?$_Tree_node@U?$pair@$$CBV?$basic_string@DU?$char_traits@D@std@@V?$allocator@D@2@@std@@V12@@std@@PAX@std@@@1@@Z 1001d4d0 f i NPFriends.obj
 0001:0001c4f0       ??$?0U?$dense_hashtable_iterator@U?$pair@$$CB_KUFriendState@@@std@@_KV?$hash_compare@_KU?$less@_K@std@@@stdext@@USelectKey@?$dense_hash_map@_KUFriendState@@V?$hash_compare@_KU?$less@_K@std@@@stdext@@U?$equal_to@_K@std@@V?$libc_allocator_with_realloc@U?$pair@$$CB_KUFriendState@@@std@@@google@@@google@@USetKey@67@U?$equal_to@_K@2@V?$libc_allocator_with_realloc@U?$pair@$$CB_KUFriendState@@@std@@@7@@google@@_N@?$pair@U?$dense_hashtable_iterator@U?$pair@$$CB_KUFriendState@@@std@@_KV?$hash_compare@_KU?$less@_K@std@@@stdext@@USelectKey@?$dense_hash_map@_KUFriendState@@V?$hash_compare@_KU?$less@_K@std@@@stdext@@U?$equal_to@_K@std@@V?$libc_allocator_with_realloc@U?$pair@$$CB_KUFriendState@@@std@@@google@@@google@@USetKey@67@U?$equal_to@_K@2@V?$libc_allocator_with_realloc@U?$pair@$$CB_KUFriendState@@@std@@@7@@google@@_N@std@@QAE@$$QAU01@PAPAX@Z 1001d4f0 f i NPFriends.obj
 0001:0001c560       ??$?0U?$dense_hashtable_iterator@U?$pair@$$CB_KUFriendState@@@std@@_KV?$hash_compare@_KU?$less@_K@std@@@stdext@@USelectKey@?$dense_hash_map@_KUFriendState@@V?$hash_compare@_KU?$less@_K@std@@@stdext@@U?$equal_to@_K@std@@V?$libc_allocator_with_realloc@U?$pair@$$CB_KUFriendState@@@std@@@google@@@google@@USetKey@67@U?$equal_to@_K@2@V?$libc_allocator_with_realloc@U?$pair@$$CB_KUFriendState@@@std@@@7@@google@@_N@?$pair@U?$dense_hashtable_iterator@U?$pair@$$CB_KUFriendState@@@std@@_KV?$hash_compare@_KU?$less@_K@std@@@stdext@@USelectKey@?$dense_hash_map@_KUFriendState@@V?$hash_compare@_KU?$less@_K@std@@@stdext@@U?$equal_to@_K@std@@V?$libc_allocator_with_realloc@U?$pair@$$CB_KUFriendState@@@std@@@google@@@google@@USetKey@67@U?$equal_to@_K@2@V?$libc_allocator_with_realloc@U?$pair@$$CB_KUFriendState@@@std@@@7@@google@@_N@std@@QAE@$$QAU?$dense_hashtable_iterator@U?$pair@$$CB_KUFriendState@@@std@@_KV?$hash_compare@_KU?$less@_K@std@@@stdext@@USelectKey@?$dense_hash_map@_KUFriendState@@V?$hash_compare@_KU?$less@_K@std@@@stdext@@U?$equal_to@_K@std@@V?$libc_allocator_with_realloc@U?$pair@$$CB_KUFriendState@@@std@@@google@@@google@@USetKey@67@U?$equal_to@_K@2@V?$libc_allocator_with_realloc@U?$pair@$$CB_KUFriendState@@@std@@@7@@google@@$$QA_NPAPAX@Z 1001d560 f i NPFriends.obj
 0001:0001c5c0       ??$?0V?$_Tree_iterator@V?$_Tree_val@U?$_Tree_simple_types@U?$pair@$$CBV?$basic_string@DU?$char_traits@D@std@@V?$allocator@D@2@@std@@V12@@std@@@std@@@std@@@std@@V01@@?$pair@V?$_Tree_iterator@V?$_Tree_val@U?$_Tree_simple_types@U?$pair@$$CBV?$basic_string@DU?$char_traits@D@std@@V?$allocator@D@2@@std@@V12@@std@@@std@@@std@@@std@@V12@@std@@QAE@$$QAU01@PAPAX@Z 1001d5c0 f i NPFriends.obj
 0001:0001c620       ??$?0V?$_Tree_iterator@V?$_Tree_val@U?$_Tree_simple_types@U?$pair@$$CBV?$basic_string@DU?$char_traits@D@std@@V?$allocator@D@2@@std@@V12@@std@@@std@@@std@@@std@@_N@?$pair@V?$_Tree_iterator@V?$_Tree_val@U?$_Tree_simple_types@U?$pair@$$CBV?$basic_string@DU?$char_traits@D@std@@V?$allocator@D@2@@std@@V12@@std@@@std@@@std@@@std@@_N@std@@QAE@$$QAU01@PAPAX@Z 1001d620 f i NPFriends.obj
 0001:0001c680       ??$?0V?$_Tree_iterator@V?$_Tree_val@U?$_Tree_simple_types@U?$pair@$$CBV?$basic_string@DU?$char_traits@D@std@@V?$allocator@D@2@@std@@V12@@std@@@std@@@std@@@std@@_N@?$pair@V?$_Tree_iterator@V?$_Tree_val@U?$_Tree_simple_types@U?$pair@$$CBV?$basic_string@DU?$char_traits@D@std@@V?$allocator@D@2@@std@@V12@@std@@@std@@@std@@@std@@_N@std@@QAE@$$QAV?$_Tree_iterator@V?$_Tree_val@U?$_Tree_simple_types@U?$pair@$$CBV?$basic_string@DU?$char_traits@D@std@@V?$allocator@D@2@@std@@V12@@std@@@std@@@std@@@1@$$QA_NPAPAX@Z 1001d680 f i NPFriends.obj
 0001:0001c6d0       ??$?0V?$basic_string@DU?$char_traits@D@std@@V?$allocator@D@2@@std@@V01@@?$pair@$$CBV?$basic_string@DU?$char_traits@D@std@@V?$allocator@D@2@@std@@V12@@std@@QAE@$$QAU?$pair@V?$basic_string@DU?$char_traits@D@std@@V?$allocator@D@2@@std@@V12@@1@PAPAX@Z 1001d6d0 f i NPFriends.obj
 0001:0001c770       ??$?0V?$basic_string@DU?$char_traits@D@std@@V?$allocator@D@2@@std@@V01@@?$pair@V?$basic_string@DU?$char_traits@D@std@@V?$allocator@D@2@@std@@V12@@std@@QAE@$$QAV?$basic_string@DU?$char_traits@D@std@@V?$allocator@D@2@@1@0PAPAX@Z 1001d770 f i NPFriends.obj
 0001:0001c810       ??$?0_KUFriendState@@@?$pair@$$CB_KUFriendState@@@std@@QAE@$$QAU?$pair@_KUFriendState@@@1@PAPAX@Z 1001d810 f i NPFriends.obj
 0001:0001c870       ??$?0_KUFriendState@@@?$pair@_KUFriendState@@@std@@QAE@$$QAU01@PAPAX@Z 1001d870 f i NPFriends.obj
 0001:0001c8d0       ??$?8DD@std@@YA_NABV?$allocator@D@0@0@Z 1001d8d0 f i NPFriends.obj
 0001:0001c8f0       ??$?8U?$_Tree_node@U?$pair@$$CBV?$basic_string@DU?$char_traits@D@std@@V?$allocator@D@2@@std@@V12@@std@@PAX@std@@U01@@std@@YA_NABV?$allocator@U?$_Tree_node@U?$pair@$$CBV?$basic_string@DU?$char_traits@D@std@@V?$allocator@D@2@@std@@V12@@std@@PAX@std@@@0@0@Z 1001d8f0 f i NPFriends.obj
 0001:0001c910       ??$?8V?$allocator@D@std@@V01@@std@@YA_NABU?$_Wrap_alloc@V?$allocator@D@std@@@0@0@Z 1001d910 f i NPFriends.obj
 0001:0001c950       ??$?8V?$allocator@U?$_Tree_node@U?$pair@$$CBV?$basic_string@DU?$char_traits@D@std@@V?$allocator@D@2@@std@@V12@@std@@PAX@std@@@std@@V01@@std@@YA_NABU?$_Wrap_alloc@V?$allocator@U?$_Tree_node@U?$pair@$$CBV?$basic_string@DU?$char_traits@D@std@@V?$allocator@D@2@@std@@V12@@std@@PAX@std@@@std@@@0@0@Z 1001d950 f i NPFriends.obj
 0001:0001c990       ??$?9V?$allocator@D@std@@V01@@std@@YA_NABU?$_Wrap_alloc@V?$allocator@D@std@@@0@0@Z 1001d990 f i NPFriends.obj
 0001:0001c9e0       ??$?9V?$allocator@U?$_Tree_node@U?$pair@$$CBV?$basic_string@DU?$char_traits@D@std@@V?$allocator@D@2@@std@@V12@@std@@PAX@std@@@std@@V01@@std@@YA_NABU?$_Wrap_alloc@V?$allocator@U?$_Tree_node@U?$pair@$$CBV?$basic_string@DU?$char_traits@D@std@@V?$allocator@D@2@@std@@V12@@std@@PAX@std@@@std@@@0@0@Z 1001d9e0 f i NPFriends.obj
 0001:0001ca30       ??$?MDU?$char_traits@D@std@@V?$allocator@D@1@@std@@YA_NABV?$basic_string@DU?$char_traits@D@std@@V?$allocator@D@2@@0@0@Z 1001da30 f i NPFriends.obj
 0001:0001ca70       ??$Add@VTypeHandler@?$RepeatedPtrField@VFriendsPresence@@@protobuf@google@@@RepeatedPtrFieldBase@internal@protobuf@google@@IAEPAVFriendsPresence@@XZ 1001da70 f i NPFriends.obj
 0001:0001cb50       ??$Get@VTypeHandler@?$RepeatedPtrField@VFriendDetails@@@protobuf@google@@@RepeatedPtrFieldBase@internal@protobuf@google@@IBEABVFriendDetails@@H@Z 1001db50 f i NPFriends.obj
 0001:0001cc80       ??$Get@VTypeHandler@?$RepeatedPtrField@VFriendsPresence@@@protobuf@google@@@RepeatedPtrFieldBase@internal@protobuf@google@@IBEABVFriendsPresence@@H@Z 1001dc80 f i NPFriends.obj
 0001:0001cdb0       ??$_Allocate@U?$_Tree_node@U?$pair@$$CBV?$basic_string@DU?$char_traits@D@std@@V?$allocator@D@2@@std@@V12@@std@@PAX@std@@@std@@YAPAU?$_Tree_node@U?$pair@$$CBV?$basic_string@DU?$char_traits@D@std@@V?$allocator@D@2@@std@@V12@@std@@PAX@0@IPAU10@@Z 1001ddb0 f i NPFriends.obj
 0001:0001ce10       ??$_Buynode@AAU?$pair@$$CBV?$basic_string@DU?$char_traits@D@std@@V?$allocator@D@2@@std@@V12@@std@@@?$_Tree_buy@U?$pair@$$CBV?$basic_string@DU?$char_traits@D@std@@V?$allocator@D@2@@std@@V12@@std@@V?$allocator@U?$pair@$$CBV?$basic_string@DU?$char_traits@D@std@@V?$allocator@D@2@@std@@V12@@std@@@2@@std@@QAEPAU?$_Tree_node@U?$pair@$$CBV?$basic_string@DU?$char_traits@D@std@@V?$allocator@D@2@@std@@V12@@std@@PAX@1@AAU?$pair@$$CBV?$basic_string@DU?$char_traits@D@std@@V?$allocator@D@2@@std@@V12@@1@@Z 1001de10 f i NPFriends.obj
 0001:0001cf40       ??$_Buynode@U?$pair@V?$basic_string@DU?$char_traits@D@std@@V?$allocator@D@2@@std@@V12@@std@@@?$_Tree_buy@U?$pair@$$CBV?$basic_string@DU?$char_traits@D@std@@V?$allocator@D@2@@std@@V12@@std@@V?$allocator@U?$pair@$$CBV?$basic_string@DU?$char_traits@D@std@@V?$allocator@D@2@@std@@V12@@std@@@2@@std@@QAEPAU?$_Tree_node@U?$pair@$$CBV?$basic_string@DU?$char_traits@D@std@@V?$allocator@D@2@@std@@V12@@std@@PAX@1@$$QAU?$pair@V?$basic_string@DU?$char_traits@D@std@@V?$allocator@D@2@@std@@V12@@1@@Z 1001df40 f i NPFriends.obj
 0001:0001d070       ??$_Buynode_if_nil@AAU?$pair@$$CBV?$basic_string@DU?$char_traits@D@std@@V?$allocator@D@2@@std@@V12@@std@@@?$_Tree@V?$_Tmap_traits@V?$basic_string@DU?$char_traits@D@std@@V?$allocator@D@2@@std@@V12@U?$less@V?$basic_string@DU?$char_traits@D@std@@V?$allocator@D@2@@std@@@2@V?$allocator@U?$pair@$$CBV?$basic_string@DU?$char_traits@D@std@@V?$allocator@D@2@@std@@V12@@std@@@2@$0A@@std@@@std@@IAEPAU?$_Tree_node@U?$pair@$$CBV?$basic_string@DU?$char_traits@D@std@@V?$allocator@D@2@@std@@V12@@std@@PAX@1@PAU21@AAU?$pair@$$CBV?$basic_string@DU?$char_traits@D@std@@V?$allocator@D@2@@std@@V12@@1@@Z 1001e070 f i NPFriends.obj
 0001:0001d090       ??$_Construct@U?$pair@$$CB_KUFriendState@@@std@@ABU12@@std@@YAXPAU?$pair@$$CB_KUFriendState@@@0@ABU10@@Z 1001e090 f i NPFriends.obj
 0001:0001d150       ??$_Copy@U?$integral_constant@_N$0A@@std@@@?$_Tree@V?$_Tmap_traits@V?$basic_string@DU?$char_traits@D@std@@V?$allocator@D@2@@std@@V12@U?$less@V?$basic_string@DU?$char_traits@D@std@@V?$allocator@D@2@@std@@@2@V?$allocator@U?$pair@$$CBV?$basic_string@DU?$char_traits@D@std@@V?$allocator@D@2@@std@@V12@@std@@@2@$0A@@std@@@std@@IAEXABV01@U?$integral_constant@_N$0A@@1@@Z 1001e150 f i NPFriends.obj
 0001:0001d250       ??$_Copy_nodes@U?$integral_constant@_N$0A@@std@@@?$_Tree@V?$_Tmap_traits@V?$basic_string@DU?$char_traits@D@std@@V?$allocator@D@2@@std@@V12@U?$less@V?$basic_string@DU?$char_traits@D@std@@V?$allocator@D@2@@std@@@2@V?$allocator@U?$pair@$$CBV?$basic_string@DU?$char_traits@D@std@@V?$allocator@D@2@@std@@V12@@std@@@2@$0A@@std@@@std@@IAEPAU?$_Tree_node@U?$pair@$$CBV?$basic_string@DU?$char_traits@D@std@@V?$allocator@D@2@@std@@V12@@std@@PAX@1@PAU21@0U?$integral_constant@_N$0A@@1@@Z 1001e250 f i NPFriends.obj
 0001:0001d420       ??$_Copy_or_move@U?$integral_constant@_N$0A@@std@@U?$integral_constant@_N$00@2@@?$_Tree@V?$_Tmap_traits@V?$basic_string@DU?$char_traits@D@std@@V?$allocator@D@2@@std@@V12@U?$less@V?$basic_string@DU?$char_traits@D@std@@V?$allocator@D@2@@std@@@2@V?$allocator@U?$pair@$$CBV?$basic_string@DU?$char_traits@D@std@@V?$allocator@D@2@@std@@V12@@std@@@2@$0A@@std@@@std@@IAEPAU?$_Tree_node@U?$pair@$$CBV?$basic_string@DU?$char_traits@D@std@@V?$allocator@D@2@@std@@V12@@std@@PAX@1@PAU21@U?$integral_constant@_N$0A@@1@U?$integral_constant@_N$00@1@@Z 1001e420 f i NPFriends.obj
 0001:0001d460       ??$_Destroy@U?$pair@$$CB_KUFriendState@@@std@@@std@@YAXPAU?$pair@$$CB_KUFriendState@@@0@@Z 1001e460 f i NPFriends.obj
 0001:0001d480       ??$_Distance2@V?$_Tree_iterator@V?$_Tree_val@U?$_Tree_simple_types@U?$pair@$$CBV?$basic_string@DU?$char_traits@D@std@@V?$allocator@D@2@@std@@V12@@std@@@std@@@std@@@std@@I@std@@YAXV?$_Tree_iterator@V?$_Tree_val@U?$_Tree_simple_types@U?$pair@$$CBV?$basic_string@DU?$char_traits@D@std@@V?$allocator@D@2@@std@@V12@@std@@@std@@@std@@@0@0AAIUbidirectional_iterator_tag@0@@Z 1001e480 f i NPFriends.obj
 0001:0001d4d0       ??$_Distance@V?$_Tree_iterator@V?$_Tree_val@U?$_Tree_simple_types@U?$pair@$$CBV?$basic_string@DU?$char_traits@D@std@@V?$allocator@D@2@@std@@V12@@std@@@std@@@std@@@std@@I@std@@YAXV?$_Tree_iterator@V?$_Tree_val@U?$_Tree_simple_types@U?$pair@$$CBV?$basic_string@DU?$char_traits@D@std@@V?$allocator@D@2@@std@@V12@@std@@@std@@@std@@@0@0AAI@Z 1001e4d0 f i NPFriends.obj
 0001:0001d520       ??$_Insert_at@AAU?$pair@$$CBV?$basic_string@DU?$char_traits@D@std@@V?$allocator@D@2@@std@@V12@@std@@PAU?$_Tree_node@U?$pair@$$CBV?$basic_string@DU?$char_traits@D@std@@V?$allocator@D@2@@std@@V12@@std@@PAX@2@@?$_Tree@V?$_Tmap_traits@V?$basic_string@DU?$char_traits@D@std@@V?$allocator@D@2@@std@@V12@U?$less@V?$basic_string@DU?$char_traits@D@std@@V?$allocator@D@2@@std@@@2@V?$allocator@U?$pair@$$CBV?$basic_string@DU?$char_traits@D@std@@V?$allocator@D@2@@std@@V12@@std@@@2@$0A@@std@@@std@@IAE?AV?$_Tree_iterator@V?$_Tree_val@U?$_Tree_simple_types@U?$pair@$$CBV?$basic_string@DU?$char_traits@D@std@@V?$allocator@D@2@@std@@V12@@std@@@std@@@std@@@1@_NPAU?$_Tree_node@U?$pair@$$CBV?$basic_string@DU?$char_traits@D@std@@V?$allocator@D@2@@std@@V12@@std@@PAX@1@AAU?$pair@$$CBV?$basic_string@DU?$char_traits@D@std@@V?$allocator@D@2@@std@@V12@@1@1@Z 1001e520 f i NPFriends.obj
 0001:0001da60       ??$_Insert_hint@AAU?$pair@$$CBV?$basic_string@DU?$char_traits@D@std@@V?$allocator@D@2@@std@@V12@@std@@PAU?$_Tree_node@U?$pair@$$CBV?$basic_string@DU?$char_traits@D@std@@V?$allocator@D@2@@std@@V12@@std@@PAX@2@@?$_Tree@V?$_Tmap_traits@V?$basic_string@DU?$char_traits@D@std@@V?$allocator@D@2@@std@@V12@U?$less@V?$basic_string@DU?$char_traits@D@std@@V?$allocator@D@2@@std@@@2@V?$allocator@U?$pair@$$CBV?$basic_string@DU?$char_traits@D@std@@V?$allocator@D@2@@std@@V12@@std@@@2@$0A@@std@@@std@@IAE?AV?$_Tree_iterator@V?$_Tree_val@U?$_Tree_simple_types@U?$pair@$$CBV?$basic_string@DU?$char_traits@D@std@@V?$allocator@D@2@@std@@V12@@std@@@std@@@std@@@1@V?$_Tree_const_iterator@V?$_Tree_val@U?$_Tree_simple_types@U?$pair@$$CBV?$basic_string@DU?$char_traits@D@std@@V?$allocator@D@2@@std@@V12@@std@@@std@@@std@@@1@AAU?$pair@$$CBV?$basic_string@DU?$char_traits@D@std@@V?$allocator@D@2@@std@@V12@@1@PAU?$_Tree_node@U?$pair@$$CBV?$basic_string@DU?$char_traits@D@std@@V?$allocator@D@2@@std@@V12@@std@@PAX@1@@Z 1001ea60 f i NPFriends.obj
 0001:0001ea20       ??$_Insert_nohint@AAU?$pair@$$CBV?$basic_string@DU?$char_traits@D@std@@V?$allocator@D@2@@std@@V12@@std@@PAU?$_Tree_node@U?$pair@$$CBV?$basic_string@DU?$char_traits@D@std@@V?$allocator@D@2@@std@@V12@@std@@PAX@2@@?$_Tree@V?$_Tmap_traits@V?$basic_string@DU?$char_traits@D@std@@V?$allocator@D@2@@std@@V12@U?$less@V?$basic_string@DU?$char_traits@D@std@@V?$allocator@D@2@@std@@@2@V?$allocator@U?$pair@$$CBV?$basic_string@DU?$char_traits@D@std@@V?$allocator@D@2@@std@@V12@@std@@@2@$0A@@std@@@std@@IAE?AU?$pair@V?$_Tree_iterator@V?$_Tree_val@U?$_Tree_simple_types@U?$pair@$$CBV?$basic_string@DU?$char_traits@D@std@@V?$allocator@D@2@@std@@V12@@std@@@std@@@std@@@std@@_N@1@_NAAU?$pair@$$CBV?$basic_string@DU?$char_traits@D@std@@V?$allocator@D@2@@std@@V12@@1@PAU?$_Tree_node@U?$pair@$$CBV?$basic_string@DU?$char_traits@D@std@@V?$allocator@D@2@@std@@V12@@std@@PAX@1@@Z 1001fa20 f i NPFriends.obj
 0001:0001efd0       ??$_Iter_cat@V?$_Tree_iterator@V?$_Tree_val@U?$_Tree_simple_types@U?$pair@$$CBV?$basic_string@DU?$char_traits@D@std@@V?$allocator@D@2@@std@@V12@@std@@@std@@@std@@@std@@@std@@YA?AUbidirectional_iterator_tag@0@ABV?$_Tree_iterator@V?$_Tree_val@U?$_Tree_simple_types@U?$pair@$$CBV?$basic_string@DU?$char_traits@D@std@@V?$allocator@D@2@@std@@V12@@std@@@std@@@std@@@0@@Z 1001ffd0 f i NPFriends.obj
 0001:0001f000       ??$_Kfn@$$CBV?$basic_string@DU?$char_traits@D@std@@V?$allocator@D@2@@std@@V12@@?$_Tmap_traits@V?$basic_string@DU?$char_traits@D@std@@V?$allocator@D@2@@std@@V12@U?$less@V?$basic_string@DU?$char_traits@D@std@@V?$allocator@D@2@@std@@@2@V?$allocator@U?$pair@$$CBV?$basic_string@DU?$char_traits@D@std@@V?$allocator@D@2@@std@@V12@@std@@@2@$0A@@std@@SAABV?$basic_string@DU?$char_traits@D@std@@V?$allocator@D@2@@1@ABU?$pair@$$CBV?$basic_string@DU?$char_traits@D@std@@V?$allocator@D@2@@std@@V12@@1@@Z 10020000 f i NPFriends.obj
 0001:0001f020       ??$_Move@AAD@std@@YA$$QADAAD@Z 10020020 f i NPFriends.obj
 0001:0001f040       ??$_Move@AAI@std@@YA$$QAIAAI@Z 10020040 f i NPFriends.obj
 0001:0001f060       ??$_Move@AAPAU?$pair@$$CB_KUFriendState@@@std@@@std@@YA$$QAPAU?$pair@$$CB_KUFriendState@@@0@AAPAU10@@Z 10020060 f i NPFriends.obj
 0001:0001f080       ??$_Move@AAUSettings@?$dense_hashtable@U?$pair@$$CB_KUFriendState@@@std@@_KV?$hash_compare@_KU?$less@_K@std@@@stdext@@USelectKey@?$dense_hash_map@_KUFriendState@@V?$hash_compare@_KU?$less@_K@std@@@stdext@@U?$equal_to@_K@std@@V?$libc_allocator_with_realloc@U?$pair@$$CB_KUFriendState@@@std@@@google@@@google@@USetKey@67@U?$equal_to@_K@2@V?$libc_allocator_with_realloc@U?$pair@$$CB_KUFriendState@@@std@@@7@@google@@@std@@YA$$QAUSettings@?$dense_hashtable@U?$pair@$$CB_KUFriendState@@@std@@_KV?$hash_compare@_KU?$less@_K@std@@@stdext@@USelectKey@?$dense_hash_map@_KUFriendState@@V?$hash_compare@_KU?$less@_K@std@@@stdext@@U?$equal_to@_K@std@@V?$libc_allocator_with_realloc@U?$pair@$$CB_KUFriendState@@@std@@@google@@@google@@USetKey@67@U?$equal_to@_K@2@V?$libc_allocator_with_realloc@U?$pair@$$CB_KUFriendState@@@std@@@7@@google@@AAU123@@Z 10020080 f i NPFriends.obj
 0001:0001f0a0       ??$_Move@AAVKeyInfo@?$dense_hashtable@U?$pair@$$CB_KUFriendState@@@std@@_KV?$hash_compare@_KU?$less@_K@std@@@stdext@@USelectKey@?$dense_hash_map@_KUFriendState@@V?$hash_compare@_KU?$less@_K@std@@@stdext@@U?$equal_to@_K@std@@V?$libc_allocator_with_realloc@U?$pair@$$CB_KUFriendState@@@std@@@google@@@google@@USetKey@67@U?$equal_to@_K@2@V?$libc_allocator_with_realloc@U?$pair@$$CB_KUFriendState@@@std@@@7@@google@@@std@@YA$$QAVKeyInfo@?$dense_hashtable@U?$pair@$$CB_KUFriendState@@@std@@_KV?$hash_compare@_KU?$less@_K@std@@@stdext@@USelectKey@?$dense_hash_map@_KUFriendState@@V?$hash_compare@_KU?$less@_K@std@@@stdext@@U?$equal_to@_K@std@@V?$libc_allocator_with_realloc@U?$pair@$$CB_KUFriendState@@@std@@@google@@@google@@USetKey@67@U?$equal_to@_K@2@V?$libc_allocator_with_realloc@U?$pair@$$CB_KUFriendState@@@std@@@7@@google@@AAV123@@Z 100200a0 f i NPFriends.obj
 0001:0001f0c0       ??$_Ptr_cat@U?$pair@$$CB_KUFriendState@@@std@@U12@@std@@YA?AU_Nonscalar_ptr_iterator_tag@0@PAU?$pair@$$CB_KUFriendState@@@0@0@Z 100200c0 f i NPFriends.obj
 0001:0001f0e0       ??$_Uninit_fill@PAU?$pair@$$CB_KUFriendState@@@std@@U12@@std@@YAXPAU?$pair@$$CB_KUFriendState@@@0@0ABU10@U_Nonscalar_ptr_iterator_tag@0@@Z 100200e0 f i NPFriends.obj
 0001:0001f1d0       ??$addressof@PAU?$_Tree_node@U?$pair@$$CBV?$basic_string@DU?$char_traits@D@std@@V?$allocator@D@2@@std@@V12@@std@@PAX@std@@@std@@YAPAPAU?$_Tree_node@U?$pair@$$CBV?$basic_string@DU?$char_traits@D@std@@V?$allocator@D@2@@std@@V12@@std@@PAX@0@AAPAU10@@Z 100201d0 f i NPFriends.obj
 0001:0001f1f0       ??$addressof@U?$pair@$$CBV?$basic_string@DU?$char_traits@D@std@@V?$allocator@D@2@@std@@V12@@std@@@std@@YAPAU?$pair@$$CBV?$basic_string@DU?$char_traits@D@std@@V?$allocator@D@2@@std@@V12@@0@AAU10@@Z 100201f0 f i NPFriends.obj
 0001:0001f210       ??$cast@VTypeHandler@?$RepeatedPtrField@VFriendDetails@@@protobuf@google@@@RepeatedPtrFieldBase@internal@protobuf@google@@CAPAVFriendDetails@@PAX@Z 10020210 f i NPFriends.obj
 0001:0001f230       ??$cast@VTypeHandler@?$RepeatedPtrField@VFriendsPresence@@@protobuf@google@@@RepeatedPtrFieldBase@internal@protobuf@google@@CAPAVFriendsPresence@@PAX@Z 10020230 f i NPFriends.obj
 0001:0001f250       ??$construct@PAU?$_Tree_node@U?$pair@$$CBV?$basic_string@DU?$char_traits@D@std@@V?$allocator@D@2@@std@@V12@@std@@PAX@std@@AAPAU12@@?$_Wrap_alloc@V?$allocator@U?$_Tree_node@U?$pair@$$CBV?$basic_string@DU?$char_traits@D@std@@V?$allocator@D@2@@std@@V12@@std@@PAX@std@@@std@@@std@@QAEXPAPAU?$_Tree_node@U?$pair@$$CBV?$basic_string@DU?$char_traits@D@std@@V?$allocator@D@2@@std@@V12@@std@@PAX@1@AAPAU21@@Z 10020250 f i NPFriends.obj
 0001:0001f290       ??$construct@PAU?$_Tree_node@U?$pair@$$CBV?$basic_string@DU?$char_traits@D@std@@V?$allocator@D@2@@std@@V12@@std@@PAX@std@@AAPAU12@@?$allocator@U?$_Tree_node@U?$pair@$$CBV?$basic_string@DU?$char_traits@D@std@@V?$allocator@D@2@@std@@V12@@std@@PAX@std@@@std@@QAEXPAPAU?$_Tree_node@U?$pair@$$CBV?$basic_string@DU?$char_traits@D@std@@V?$allocator@D@2@@std@@V12@@std@@PAX@1@AAPAU21@@Z 10020290 f i NPFriends.obj
 0001:0001f340       ??$construct@PAU?$_Tree_node@U?$pair@$$CBV?$basic_string@DU?$char_traits@D@std@@V?$allocator@D@2@@std@@V12@@std@@PAX@std@@AAPAU12@@?$allocator_traits@V?$allocator@U?$_Tree_node@U?$pair@$$CBV?$basic_string@DU?$char_traits@D@std@@V?$allocator@D@2@@std@@V12@@std@@PAX@std@@@std@@@std@@SAXAAV?$allocator@U?$_Tree_node@U?$pair@$$CBV?$basic_string@DU?$char_traits@D@std@@V?$allocator@D@2@@std@@V12@@std@@PAX@std@@@1@PAPAU?$_Tree_node@U?$pair@$$CBV?$basic_string@DU?$char_traits@D@std@@V?$allocator@D@2@@std@@V12@@std@@PAX@1@AAPAU31@@Z 10020340 f i NPFriends.obj
 0001:0001f380       ??$construct@U?$pair@$$CBV?$basic_string@DU?$char_traits@D@std@@V?$allocator@D@2@@std@@V12@@std@@AAU12@@?$_Wrap_alloc@V?$allocator@U?$_Tree_node@U?$pair@$$CBV?$basic_string@DU?$char_traits@D@std@@V?$allocator@D@2@@std@@V12@@std@@PAX@std@@@std@@@std@@QAEXPAU?$pair@$$CBV?$basic_string@DU?$char_traits@D@std@@V?$allocator@D@2@@std@@V12@@1@AAU21@@Z 10020380 f i NPFriends.obj
 0001:0001f3c0       ??$construct@U?$pair@$$CBV?$basic_string@DU?$char_traits@D@std@@V?$allocator@D@2@@std@@V12@@std@@AAU12@@?$allocator@U?$_Tree_node@U?$pair@$$CBV?$basic_string@DU?$char_traits@D@std@@V?$allocator@D@2@@std@@V12@@std@@PAX@std@@@std@@QAEXPAU?$pair@$$CBV?$basic_string@DU?$char_traits@D@std@@V?$allocator@D@2@@std@@V12@@1@AAU21@@Z 100203c0 f i NPFriends.obj
 0001:0001f470       ??$construct@U?$pair@$$CBV?$basic_string@DU?$char_traits@D@std@@V?$allocator@D@2@@std@@V12@@std@@AAU12@@?$allocator_traits@V?$allocator@U?$_Tree_node@U?$pair@$$CBV?$basic_string@DU?$char_traits@D@std@@V?$allocator@D@2@@std@@V12@@std@@PAX@std@@@std@@@std@@SAXAAV?$allocator@U?$_Tree_node@U?$pair@$$CBV?$basic_string@DU?$char_traits@D@std@@V?$allocator@D@2@@std@@V12@@std@@PAX@std@@@1@PAU?$pair@$$CBV?$basic_string@DU?$char_traits@D@std@@V?$allocator@D@2@@std@@V12@@1@AAU31@@Z 10020470 f i NPFriends.obj
 0001:0001f4b0       ??$construct@U?$pair@$$CBV?$basic_string@DU?$char_traits@D@std@@V?$allocator@D@2@@std@@V12@@std@@U?$pair@V?$basic_string@DU?$char_traits@D@std@@V?$allocator@D@2@@std@@V12@@2@@?$_Wrap_alloc@V?$allocator@U?$_Tree_node@U?$pair@$$CBV?$basic_string@DU?$char_traits@D@std@@V?$allocator@D@2@@std@@V12@@std@@PAX@std@@@std@@@std@@QAEXPAU?$pair@$$CBV?$basic_string@DU?$char_traits@D@std@@V?$allocator@D@2@@std@@V12@@1@$$QAU?$pair@V?$basic_string@DU?$char_traits@D@std@@V?$allocator@D@2@@std@@V12@@1@@Z 100204b0 f i NPFriends.obj
 0001:0001f4f0       ??$construct@U?$pair@$$CBV?$basic_string@DU?$char_traits@D@std@@V?$allocator@D@2@@std@@V12@@std@@U?$pair@V?$basic_string@DU?$char_traits@D@std@@V?$allocator@D@2@@std@@V12@@2@@?$allocator@U?$_Tree_node@U?$pair@$$CBV?$basic_string@DU?$char_traits@D@std@@V?$allocator@D@2@@std@@V12@@std@@PAX@std@@@std@@QAEXPAU?$pair@$$CBV?$basic_string@DU?$char_traits@D@std@@V?$allocator@D@2@@std@@V12@@1@$$QAU?$pair@V?$basic_string@DU?$char_traits@D@std@@V?$allocator@D@2@@std@@V12@@1@@Z 100204f0 f i NPFriends.obj
 0001:0001f5a0       ??$construct@U?$pair@$$CBV?$basic_string@DU?$char_traits@D@std@@V?$allocator@D@2@@std@@V12@@std@@U?$pair@V?$basic_string@DU?$char_traits@D@std@@V?$allocator@D@2@@std@@V12@@2@@?$allocator_traits@V?$allocator@U?$_Tree_node@U?$pair@$$CBV?$basic_string@DU?$char_traits@D@std@@V?$allocator@D@2@@std@@V12@@std@@PAX@std@@@std@@@std@@SAXAAV?$allocator@U?$_Tree_node@U?$pair@$$CBV?$basic_string@DU?$char_traits@D@std@@V?$allocator@D@2@@std@@V12@@std@@PAX@std@@@1@PAU?$pair@$$CBV?$basic_string@DU?$char_traits@D@std@@V?$allocator@D@2@@std@@V12@@1@$$QAU?$pair@V?$basic_string@DU?$char_traits@D@std@@V?$allocator@D@2@@std@@V12@@1@@Z 100205a0 f i NPFriends.obj
 0001:0001f5e0       ??$destroy@PAU?$_Tree_node@U?$pair@$$CBV?$basic_string@DU?$char_traits@D@std@@V?$allocator@D@2@@std@@V12@@std@@PAX@std@@@?$_Wrap_alloc@V?$allocator@U?$_Tree_node@U?$pair@$$CBV?$basic_string@DU?$char_traits@D@std@@V?$allocator@D@2@@std@@V12@@std@@PAX@std@@@std@@@std@@QAEXPAPAU?$_Tree_node@U?$pair@$$CBV?$basic_string@DU?$char_traits@D@std@@V?$allocator@D@2@@std@@V12@@std@@PAX@1@@Z 100205e0 f i NPFriends.obj
 0001:0001f610       ??$destroy@PAU?$_Tree_node@U?$pair@$$CBV?$basic_string@DU?$char_traits@D@std@@V?$allocator@D@2@@std@@V12@@std@@PAX@std@@@?$allocator@U?$_Tree_node@U?$pair@$$CBV?$basic_string@DU?$char_traits@D@std@@V?$allocator@D@2@@std@@V12@@std@@PAX@std@@@std@@QAEXPAPAU?$_Tree_node@U?$pair@$$CBV?$basic_string@DU?$char_traits@D@std@@V?$allocator@D@2@@std@@V12@@std@@PAX@1@@Z 10020610 f i NPFriends.obj
 0001:0001f630       ??$destroy@PAU?$_Tree_node@U?$pair@$$CBV?$basic_string@DU?$char_traits@D@std@@V?$allocator@D@2@@std@@V12@@std@@PAX@std@@@?$allocator_traits@V?$allocator@U?$_Tree_node@U?$pair@$$CBV?$basic_string@DU?$char_traits@D@std@@V?$allocator@D@2@@std@@V12@@std@@PAX@std@@@std@@@std@@SAXAAV?$allocator@U?$_Tree_node@U?$pair@$$CBV?$basic_string@DU?$char_traits@D@std@@V?$allocator@D@2@@std@@V12@@std@@PAX@std@@@1@PAPAU?$_Tree_node@U?$pair@$$CBV?$basic_string@DU?$char_traits@D@std@@V?$allocator@D@2@@std@@V12@@std@@PAX@1@@Z 10020630 f i NPFriends.obj
 0001:0001f660       ??$destroy@U?$pair@$$CBV?$basic_string@DU?$char_traits@D@std@@V?$allocator@D@2@@std@@V12@@std@@@?$_Wrap_alloc@V?$allocator@U?$_Tree_node@U?$pair@$$CBV?$basic_string@DU?$char_traits@D@std@@V?$allocator@D@2@@std@@V12@@std@@PAX@std@@@std@@@std@@QAEXPAU?$pair@$$CBV?$basic_string@DU?$char_traits@D@std@@V?$allocator@D@2@@std@@V12@@1@@Z 10020660 f i NPFriends.obj
 0001:0001f690       ??$destroy@U?$pair@$$CBV?$basic_string@DU?$char_traits@D@std@@V?$allocator@D@2@@std@@V12@@std@@@?$allocator@U?$_Tree_node@U?$pair@$$CBV?$basic_string@DU?$char_traits@D@std@@V?$allocator@D@2@@std@@V12@@std@@PAX@std@@@std@@QAEXPAU?$pair@$$CBV?$basic_string@DU?$char_traits@D@std@@V?$allocator@D@2@@std@@V12@@1@@Z 10020690 f i NPFriends.obj
 0001:0001f6c0       ??$destroy@U?$pair@$$CBV?$basic_string@DU?$char_traits@D@std@@V?$allocator@D@2@@std@@V12@@std@@@?$allocator_traits@V?$allocator@U?$_Tree_node@U?$pair@$$CBV?$basic_string@DU?$char_traits@D@std@@V?$allocator@D@2@@std@@V12@@std@@PAX@std@@@std@@@std@@SAXAAV?$allocator@U?$_Tree_node@U?$pair@$$CBV?$basic_string@DU?$char_traits@D@std@@V?$allocator@D@2@@std@@V12@@std@@PAX@std@@@1@PAU?$pair@$$CBV?$basic_string@DU?$char_traits@D@std@@V?$allocator@D@2@@std@@V12@@1@@Z 100206c0 f i NPFriends.obj
 0001:0001f6f0       ??$find_or_insert@UDefaultValue@?$dense_hash_map@_KUFriendState@@V?$hash_compare@_KU?$less@_K@std@@@stdext@@U?$equal_to@_K@std@@V?$libc_allocator_with_realloc@U?$pair@$$CB_KUFriendState@@@std@@@google@@@google@@@?$dense_hashtable@U?$pair@$$CB_KUFriendState@@@std@@_KV?$hash_compare@_KU?$less@_K@std@@@stdext@@USelectKey@?$dense_hash_map@_KUFriendState@@V?$hash_compare@_KU?$less@_K@std@@@stdext@@U?$equal_to@_K@std@@V?$libc_allocator_with_realloc@U?$pair@$$CB_KUFriendState@@@std@@@google@@@google@@USetKey@67@U?$equal_to@_K@2@V?$libc_allocator_with_realloc@U?$pair@$$CB_KUFriendState@@@std@@@7@@google@@QAEAAU?$pair@$$CB_KUFriendState@@@std@@AB_K@Z 100206f0 f i NPFriends.obj
 0001:0001f8d0       ??$forward@AAI@std@@YAAAIAAI@Z 100208d0 f i NPFriends.obj
 0001:0001f8f0       ??$forward@AAPAU?$_Tree_node@U?$pair@$$CBV?$basic_string@DU?$char_traits@D@std@@V?$allocator@D@2@@std@@V12@@std@@PAX@std@@@std@@YAAAPAU?$_Tree_node@U?$pair@$$CBV?$basic_string@DU?$char_traits@D@std@@V?$allocator@D@2@@std@@V12@@std@@PAX@0@AAPAU10@@Z 100208f0 f i NPFriends.obj
 0001:0001f910       ??$forward@AAU?$pair@$$CBV?$basic_string@DU?$char_traits@D@std@@V?$allocator@D@2@@std@@V12@@std@@@std@@YAAAU?$pair@$$CBV?$basic_string@DU?$char_traits@D@std@@V?$allocator@D@2@@std@@V12@@0@AAU10@@Z 10020910 f i NPFriends.obj
 0001:0001f930       ??$forward@AAV?$_Tree_iterator@V?$_Tree_val@U?$_Tree_simple_types@U?$pair@$$CBV?$basic_string@DU?$char_traits@D@std@@V?$allocator@D@2@@std@@V12@@std@@@std@@@std@@@std@@@std@@YAAAV?$_Tree_iterator@V?$_Tree_val@U?$_Tree_simple_types@U?$pair@$$CBV?$basic_string@DU?$char_traits@D@std@@V?$allocator@D@2@@std@@V12@@std@@@std@@@std@@@0@AAV10@@Z 10020930 f i NPFriends.obj
 0001:0001f950       ??$forward@ABI@std@@YAABIABI@Z 10020950 f i NPFriends.obj
 0001:0001f970       ??$forward@ABU?$pair@$$CB_KUFriendState@@@std@@@std@@YAABU?$pair@$$CB_KUFriendState@@@0@ABU10@@Z 10020970 f i NPFriends.obj
 0001:0001f990       ??$forward@ABV?$basic_string@DU?$char_traits@D@std@@V?$allocator@D@2@@std@@@std@@YAABV?$basic_string@DU?$char_traits@D@std@@V?$allocator@D@2@@0@ABV10@@Z 10020990 f i NPFriends.obj
 0001:0001f9b0       ??$forward@AB_K@std@@YAAB_KAB_K@Z 100209b0 f i NPFriends.obj
 0001:0001f9d0       ??$forward@I@std@@YA$$QAIAAI@Z 100209d0 f i NPFriends.obj
 0001:0001f9f0       ??$forward@U?$dense_hashtable_iterator@U?$pair@$$CB_KUFriendState@@@std@@_KV?$hash_compare@_KU?$less@_K@std@@@stdext@@USelectKey@?$dense_hash_map@_KUFriendState@@V?$hash_compare@_KU?$less@_K@std@@@stdext@@U?$equal_to@_K@std@@V?$libc_allocator_with_realloc@U?$pair@$$CB_KUFriendState@@@std@@@google@@@google@@USetKey@67@U?$equal_to@_K@2@V?$libc_allocator_with_realloc@U?$pair@$$CB_KUFriendState@@@std@@@7@@google@@@std@@YA$$QAU?$dense_hashtable_iterator@U?$pair@$$CB_KUFriendState@@@std@@_KV?$hash_compare@_KU?$less@_K@std@@@stdext@@USelectKey@?$dense_hash_map@_KUFriendState@@V?$hash_compare@_KU?$less@_K@std@@@stdext@@U?$equal_to@_K@std@@V?$libc_allocator_with_realloc@U?$pair@$$CB_KUFriendState@@@std@@@google@@@google@@USetKey@67@U?$equal_to@_K@2@V?$libc_allocator_with_realloc@U?$pair@$$CB_KUFriendState@@@std@@@7@@google@@AAU12@@Z 100209f0 f i NPFriends.obj
 0001:0001fa10       ??$forward@U?$pair@V?$basic_string@DU?$char_traits@D@std@@V?$allocator@D@2@@std@@V12@@std@@@std@@YA$$QAU?$pair@V?$basic_string@DU?$char_traits@D@std@@V?$allocator@D@2@@std@@V12@@0@AAU10@@Z 10020a10 f i NPFriends.obj
 0001:0001fa30       ??$forward@UFriendState@@@std@@YA$$QAUFriendState@@AAU1@@Z 10020a30 f i NPFriends.obj
 0001:0001fa50       ??$forward@V?$_Tree_iterator@V?$_Tree_val@U?$_Tree_simple_types@U?$pair@$$CBV?$basic_string@DU?$char_traits@D@std@@V?$allocator@D@2@@std@@V12@@std@@@std@@@std@@@std@@@std@@YA$$QAV?$_Tree_iterator@V?$_Tree_val@U?$_Tree_simple_types@U?$pair@$$CBV?$basic_string@DU?$char_traits@D@std@@V?$allocator@D@2@@std@@V12@@std@@@std@@@std@@@0@AAV10@@Z 10020a50 f i NPFriends.obj
 0001:0001fa70       ??$forward@_K@std@@YA$$QA_KAA_K@Z 10020a70 f i NPFriends.obj
 0001:0001fa90       ??$forward@_N@std@@YA$$QA_NAA_N@Z 10020a90 f i NPFriends.obj
 0001:0001fab0       ??$hash_value@_K@stdext@@YAIAB_K@Z 10020ab0 f i NPFriends.obj
 0001:0001fad0       ??$insert@U?$pair@V?$basic_string@DU?$char_traits@D@std@@V?$allocator@D@2@@std@@V12@@std@@@?$_Tree@V?$_Tmap_traits@V?$basic_string@DU?$char_traits@D@std@@V?$allocator@D@2@@std@@V12@U?$less@V?$basic_string@DU?$char_traits@D@std@@V?$allocator@D@2@@std@@@2@V?$allocator@U?$pair@$$CBV?$basic_string@DU?$char_traits@D@std@@V?$allocator@D@2@@std@@V12@@std@@@2@$0A@@std@@@std@@QAE?AV?$_Tree_iterator@V?$_Tree_val@U?$_Tree_simple_types@U?$pair@$$CBV?$basic_string@DU?$char_traits@D@std@@V?$allocator@D@2@@std@@V12@@std@@@std@@@std@@@1@V?$_Tree_const_iterator@V?$_Tree_val@U?$_Tree_simple_types@U?$pair@$$CBV?$basic_string@DU?$char_traits@D@std@@V?$allocator@D@2@@std@@V12@@std@@@std@@@std@@@1@$$QAU?$pair@V?$basic_string@DU?$char_traits@D@std@@V?$allocator@D@2@@std@@V12@@1@@Z 10020ad0 f i NPFriends.obj
 0001:0001fb40       ??$make_pair@AB_KUFriendState@@@std@@YA?AU?$pair@_KUFriendState@@@0@AB_K$$QAUFriendState@@@Z 10020b40 f i NPFriends.obj
 0001:0001fc40       ??$move@AAV?$basic_string@DU?$char_traits@D@std@@V?$allocator@D@2@@std@@@std@@YA$$QAV?$basic_string@DU?$char_traits@D@std@@V?$allocator@D@2@@0@AAV10@@Z 10020c40 f i NPFriends.obj
 0001:0001fc60       ??$swap@D@std@@YAXAAD0@Z   10020c60 f i NPFriends.obj
 0001:0001fcc0       ??$swap@I@std@@YAXAAI0@Z   10020cc0 f i NPFriends.obj
 0001:0001fd20       ??$swap@PAU?$pair@$$CB_KUFriendState@@@std@@@std@@YAXAAPAU?$pair@$$CB_KUFriendState@@@0@0@Z 10020d20 f i NPFriends.obj
 0001:0001fd80       ??$swap@USettings@?$dense_hashtable@U?$pair@$$CB_KUFriendState@@@std@@_KV?$hash_compare@_KU?$less@_K@std@@@stdext@@USelectKey@?$dense_hash_map@_KUFriendState@@V?$hash_compare@_KU?$less@_K@std@@@stdext@@U?$equal_to@_K@std@@V?$libc_allocator_with_realloc@U?$pair@$$CB_KUFriendState@@@std@@@google@@@google@@USetKey@67@U?$equal_to@_K@2@V?$libc_allocator_with_realloc@U?$pair@$$CB_KUFriendState@@@std@@@7@@google@@@std@@YAXAAUSettings@?$dense_hashtable@U?$pair@$$CB_KUFriendState@@@std@@_KV?$hash_compare@_KU?$less@_K@std@@@stdext@@USelectKey@?$dense_hash_map@_KUFriendState@@V?$hash_compare@_KU?$less@_K@std@@@stdext@@U?$equal_to@_K@std@@V?$libc_allocator_with_realloc@U?$pair@$$CB_KUFriendState@@@std@@@google@@@google@@USetKey@67@U?$equal_to@_K@2@V?$libc_allocator_with_realloc@U?$pair@$$CB_KUFriendState@@@std@@@7@@google@@0@Z 10020d80 f i NPFriends.obj
 0001:0001fe50       ??$swap@VKeyInfo@?$dense_hashtable@U?$pair@$$CB_KUFriendState@@@std@@_KV?$hash_compare@_KU?$less@_K@std@@@stdext@@USelectKey@?$dense_hash_map@_KUFriendState@@V?$hash_compare@_KU?$less@_K@std@@@stdext@@U?$equal_to@_K@std@@V?$libc_allocator_with_realloc@U?$pair@$$CB_KUFriendState@@@std@@@google@@@google@@USetKey@67@U?$equal_to@_K@2@V?$libc_allocator_with_realloc@U?$pair@$$CB_KUFriendState@@@std@@@7@@google@@@std@@YAXAAVKeyInfo@?$dense_hashtable@U?$pair@$$CB_KUFriendState@@@std@@_KV?$hash_compare@_KU?$less@_K@std@@@stdext@@USelectKey@?$dense_hash_map@_KUFriendState@@V?$hash_compare@_KU?$less@_K@std@@@stdext@@U?$equal_to@_K@std@@V?$libc_allocator_with_realloc@U?$pair@$$CB_KUFriendState@@@std@@@google@@@google@@USetKey@67@U?$equal_to@_K@2@V?$libc_allocator_with_realloc@U?$pair@$$CB_KUFriendState@@@std@@@7@@google@@0@Z 10020e50 f i NPFriends.obj
 0001:0001fef0       ??$uninitialized_fill@PAU?$pair@$$CB_KUFriendState@@@std@@U12@@std@@YAXPAU?$pair@$$CB_KUFriendState@@@0@0ABU10@@Z 10020ef0 f i NPFriends.obj
 0001:0001ff40       ??0<unnamed-type-g_friends>@@QAE@XZ 10020f40 f i NPFriends.obj
 0001:00020010       ??0?$NPAsync@UNPGetUserAvatarResult@@@@QAE@XZ 10021010 f i NPFriends.obj
 0001:00020040       ??0?$NPAsyncImpl@UNPGetUserAvatarResult@@@@QAE@XZ 10021040 f i NPFriends.obj
 0001:000200d0       ??0?$_Hash_pr@$0A@_KU?$less@_K@std@@@stdext@@QAE@U?$less@_K@std@@@Z 100210d0 f i NPFriends.obj
 0001:000200f0       ??0?$_Tree@V?$_Tmap_traits@V?$basic_string@DU?$char_traits@D@std@@V?$allocator@D@2@@std@@V12@U?$less@V?$basic_string@DU?$char_traits@D@std@@V?$allocator@D@2@@std@@@2@V?$allocator@U?$pair@$$CBV?$basic_string@DU?$char_traits@D@std@@V?$allocator@D@2@@std@@V12@@std@@@2@$0A@@std@@@std@@QAE@ABU?$less@V?$basic_string@DU?$char_traits@D@std@@V?$allocator@D@2@@std@@@1@ABV?$allocator@U?$pair@$$CBV?$basic_string@DU?$char_traits@D@std@@V?$allocator@D@2@@std@@V12@@std@@@1@@Z 100210f0 f i NPFriends.obj
 0001:00020130       ??0?$_Tree@V?$_Tmap_traits@V?$basic_string@DU?$char_traits@D@std@@V?$allocator@D@2@@std@@V12@U?$less@V?$basic_string@DU?$char_traits@D@std@@V?$allocator@D@2@@std@@@2@V?$allocator@U?$pair@$$CBV?$basic_string@DU?$char_traits@D@std@@V?$allocator@D@2@@std@@V12@@std@@@2@$0A@@std@@@std@@QAE@ABV01@ABV?$allocator@U?$pair@$$CBV?$basic_string@DU?$char_traits@D@std@@V?$allocator@D@2@@std@@V12@@std@@@1@@Z 10021130 f i NPFriends.obj
 0001:00020210       ??0?$_Tree_alloc@$0A@U?$_Tree_base_types@U?$pair@$$CBV?$basic_string@DU?$char_traits@D@std@@V?$allocator@D@2@@std@@V12@@std@@V?$allocator@U?$pair@$$CBV?$basic_string@DU?$char_traits@D@std@@V?$allocator@D@2@@std@@V12@@std@@@2@@std@@@std@@QAE@ABV?$allocator@U?$pair@$$CBV?$basic_string@DU?$char_traits@D@std@@V?$allocator@D@2@@std@@V12@@std@@@1@@Z 10021210 f i NPFriends.obj
 0001:00020250       ??0?$_Tree_buy@U?$pair@$$CBV?$basic_string@DU?$char_traits@D@std@@V?$allocator@D@2@@std@@V12@@std@@V?$allocator@U?$pair@$$CBV?$basic_string@DU?$char_traits@D@std@@V?$allocator@D@2@@std@@V12@@std@@@2@@std@@QAE@ABV?$allocator@U?$pair@$$CBV?$basic_string@DU?$char_traits@D@std@@V?$allocator@D@2@@std@@V12@@std@@@1@@Z 10021250 f i NPFriends.obj
 0001:00020280       ??0?$_Tree_comp@$0A@V?$_Tmap_traits@V?$basic_string@DU?$char_traits@D@std@@V?$allocator@D@2@@std@@V12@U?$less@V?$basic_string@DU?$char_traits@D@std@@V?$allocator@D@2@@std@@@2@V?$allocator@U?$pair@$$CBV?$basic_string@DU?$char_traits@D@std@@V?$allocator@D@2@@std@@V12@@std@@@2@$0A@@std@@@std@@QAE@ABU?$less@V?$basic_string@DU?$char_traits@D@std@@V?$allocator@D@2@@std@@@1@ABV?$allocator@U?$pair@$$CBV?$basic_string@DU?$char_traits@D@std@@V?$allocator@D@2@@std@@V12@@std@@@1@@Z 10021280 f i NPFriends.obj
 0001:000202b0       ??0?$_Tree_const_iterator@V?$_Tree_val@U?$_Tree_simple_types@U?$pair@$$CBV?$basic_string@DU?$char_traits@D@std@@V?$allocator@D@2@@std@@V12@@std@@@std@@@std@@@std@@QAE@PAU?$_Tree_node@U?$pair@$$CBV?$basic_string@DU?$char_traits@D@std@@V?$allocator@D@2@@std@@V12@@std@@PAX@1@PBV?$_Tree_val@U?$_Tree_simple_types@U?$pair@$$CBV?$basic_string@DU?$char_traits@D@std@@V?$allocator@D@2@@std@@V12@@std@@@std@@@1@@Z 100212b0 f i NPFriends.obj
 0001:000202f0       ??0?$_Tree_const_iterator@V?$_Tree_val@U?$_Tree_simple_types@U?$pair@$$CBV?$basic_string@DU?$char_traits@D@std@@V?$allocator@D@2@@std@@V12@@std@@@std@@@std@@@std@@QAE@XZ 100212f0 f i NPFriends.obj
 0001:00020320       ??0?$_Tree_iterator@V?$_Tree_val@U?$_Tree_simple_types@U?$pair@$$CBV?$basic_string@DU?$char_traits@D@std@@V?$allocator@D@2@@std@@V12@@std@@@std@@@std@@@std@@QAE@PAU?$_Tree_node@U?$pair@$$CBV?$basic_string@DU?$char_traits@D@std@@V?$allocator@D@2@@std@@V12@@std@@PAX@1@PBV?$_Tree_val@U?$_Tree_simple_types@U?$pair@$$CBV?$basic_string@DU?$char_traits@D@std@@V?$allocator@D@2@@std@@V12@@std@@@std@@@1@@Z 10021320 f i NPFriends.obj
 0001:00020360       ??0?$_Tree_unchecked_const_iterator@V?$_Tree_val@U?$_Tree_simple_types@U?$pair@$$CBV?$basic_string@DU?$char_traits@D@std@@V?$allocator@D@2@@std@@V12@@std@@@std@@@std@@U_Iterator_base0@2@@std@@QAE@PAU?$_Tree_node@U?$pair@$$CBV?$basic_string@DU?$char_traits@D@std@@V?$allocator@D@2@@std@@V12@@std@@PAX@1@PBV?$_Tree_val@U?$_Tree_simple_types@U?$pair@$$CBV?$basic_string@DU?$char_traits@D@std@@V?$allocator@D@2@@std@@V12@@std@@@std@@@1@@Z 10021360 f i NPFriends.obj
 0001:000203a0       ??0?$_Tree_unchecked_const_iterator@V?$_Tree_val@U?$_Tree_simple_types@U?$pair@$$CBV?$basic_string@DU?$char_traits@D@std@@V?$allocator@D@2@@std@@V12@@std@@@std@@@std@@U_Iterator_base0@2@@std@@QAE@XZ 100213a0 f i NPFriends.obj
 0001:000203d0       ??0?$_Tree_val@U?$_Tree_simple_types@U?$pair@$$CBV?$basic_string@DU?$char_traits@D@std@@V?$allocator@D@2@@std@@V12@@std@@@std@@@std@@QAE@XZ 100213d0 f i NPFriends.obj
 0001:00020410       ??0?$_Wrap_alloc@V?$allocator@U?$_Tree_node@U?$pair@$$CBV?$basic_string@DU?$char_traits@D@std@@V?$allocator@D@2@@std@@V12@@std@@PAX@std@@@std@@@std@@QAE@ABV?$allocator@U?$_Tree_node@U?$pair@$$CBV?$basic_string@DU?$char_traits@D@std@@V?$allocator@D@2@@std@@V12@@std@@PAX@std@@@1@@Z 10021410 f i NPFriends.obj
 0001:00020440       ??0?$_Wrap_alloc@V?$allocator@U?$_Tree_node@U?$pair@$$CBV?$basic_string@DU?$char_traits@D@std@@V?$allocator@D@2@@std@@V12@@std@@PAX@std@@@std@@@std@@QAE@XZ 10021440 f i NPFriends.obj
 0001:00020470       ??0?$alloc_impl@V?$libc_allocator_with_realloc@U?$pair@$$CB_KUFriendState@@@std@@@google@@@?$dense_hashtable@U?$pair@$$CB_KUFriendState@@@std@@_KV?$hash_compare@_KU?$less@_K@std@@@stdext@@USelectKey@?$dense_hash_map@_KUFriendState@@V?$hash_compare@_KU?$less@_K@std@@@stdext@@U?$equal_to@_K@std@@V?$libc_allocator_with_realloc@U?$pair@$$CB_KUFriendState@@@std@@@google@@@google@@USetKey@67@U?$equal_to@_K@2@V?$libc_allocator_with_realloc@U?$pair@$$CB_KUFriendState@@@std@@@7@@google@@QAE@ABV012@@Z 10021470 f i NPFriends.obj
 0001:000204a0       ??0?$alloc_impl@V?$libc_allocator_with_realloc@U?$pair@$$CB_KUFriendState@@@std@@@google@@@?$dense_hashtable@U?$pair@$$CB_KUFriendState@@@std@@_KV?$hash_compare@_KU?$less@_K@std@@@stdext@@USelectKey@?$dense_hash_map@_KUFriendState@@V?$hash_compare@_KU?$less@_K@std@@@stdext@@U?$equal_to@_K@std@@V?$libc_allocator_with_realloc@U?$pair@$$CB_KUFriendState@@@std@@@google@@@google@@USetKey@67@U?$equal_to@_K@2@V?$libc_allocator_with_realloc@U?$pair@$$CB_KUFriendState@@@std@@@7@@google@@QAE@ABV?$libc_allocator_with_realloc@U?$pair@$$CB_KUFriendState@@@std@@@2@@Z 100214a0 f i NPFriends.obj
 0001:000204d0       ??0?$allocator@U?$_Tree_node@U?$pair@$$CBV?$basic_string@DU?$char_traits@D@std@@V?$allocator@D@2@@std@@V12@@std@@PAX@std@@@std@@QAE@ABV01@@Z 100214d0 f i NPFriends.obj
 0001:000204f0       ??0?$allocator@U?$_Tree_node@U?$pair@$$CBV?$basic_string@DU?$char_traits@D@std@@V?$allocator@D@2@@std@@V12@@std@@PAX@std@@@std@@QAE@XZ 100214f0 f i NPFriends.obj
 0001:00020510       ??0?$allocator@U?$pair@$$CBV?$basic_string@DU?$char_traits@D@std@@V?$allocator@D@2@@std@@V12@@std@@@std@@QAE@XZ 10021510 f i NPFriends.obj
 0001:00020530       ??0?$dense_hash_map@_KUFriendState@@V?$hash_compare@_KU?$less@_K@std@@@stdext@@U?$equal_to@_K@std@@V?$libc_allocator_with_realloc@U?$pair@$$CB_KUFriendState@@@std@@@google@@@google@@QAE@IABV?$hash_compare@_KU?$less@_K@std@@@stdext@@ABU?$equal_to@_K@std@@ABV?$libc_allocator_with_realloc@U?$pair@$$CB_KUFriendState@@@std@@@1@@Z 10021530 f i NPFriends.obj
 0001:00020590       ??0?$dense_hashtable@U?$pair@$$CB_KUFriendState@@@std@@_KV?$hash_compare@_KU?$less@_K@std@@@stdext@@USelectKey@?$dense_hash_map@_KUFriendState@@V?$hash_compare@_KU?$less@_K@std@@@stdext@@U?$equal_to@_K@std@@V?$libc_allocator_with_realloc@U?$pair@$$CB_KUFriendState@@@std@@@google@@@google@@USetKey@67@U?$equal_to@_K@2@V?$libc_allocator_with_realloc@U?$pair@$$CB_KUFriendState@@@std@@@7@@google@@QAE@ABV01@I@Z 10021590 f i NPFriends.obj
 0001:00020720       ??0?$dense_hashtable@U?$pair@$$CB_KUFriendState@@@std@@_KV?$hash_compare@_KU?$less@_K@std@@@stdext@@USelectKey@?$dense_hash_map@_KUFriendState@@V?$hash_compare@_KU?$less@_K@std@@@stdext@@U?$equal_to@_K@std@@V?$libc_allocator_with_realloc@U?$pair@$$CB_KUFriendState@@@std@@@google@@@google@@USetKey@67@U?$equal_to@_K@2@V?$libc_allocator_with_realloc@U?$pair@$$CB_KUFriendState@@@std@@@7@@google@@QAE@IABV?$hash_compare@_KU?$less@_K@std@@@stdext@@ABU?$equal_to@_K@std@@ABUSelectKey@?$dense_hash_map@_KUFriendState@@V?$hash_compare@_KU?$less@_K@std@@@stdext@@U?$equal_to@_K@std@@V?$libc_allocator_with_realloc@U?$pair@$$CB_KUFriendState@@@std@@@google@@@1@ABUSetKey@71@ABV?$libc_allocator_with_realloc@U?$pair@$$CB_KUFriendState@@@std@@@1@@Z 10021720 f i NPFriends.obj
 0001:00020860       ??0?$dense_hashtable_const_iterator@U?$pair@$$CB_KUFriendState@@@std@@_KV?$hash_compare@_KU?$less@_K@std@@@stdext@@USelectKey@?$dense_hash_map@_KUFriendState@@V?$hash_compare@_KU?$less@_K@std@@@stdext@@U?$equal_to@_K@std@@V?$libc_allocator_with_realloc@U?$pair@$$CB_KUFriendState@@@std@@@google@@@google@@USetKey@67@U?$equal_to@_K@2@V?$libc_allocator_with_realloc@U?$pair@$$CB_KUFriendState@@@std@@@7@@google@@QAE@PBV?$dense_hashtable@U?$pair@$$CB_KUFriendState@@@std@@_KV?$hash_compare@_KU?$less@_K@std@@@stdext@@USelectKey@?$dense_hash_map@_KUFriendState@@V?$hash_compare@_KU?$less@_K@std@@@stdext@@U?$equal_to@_K@std@@V?$libc_allocator_with_realloc@U?$pair@$$CB_KUFriendState@@@std@@@google@@@google@@USetKey@67@U?$equal_to@_K@2@V?$libc_allocator_with_realloc@U?$pair@$$CB_KUFriendState@@@std@@@7@@1@PBU?$pair@$$CB_KUFriendState@@@std@@1_N@Z 10021860 f i NPFriends.obj
 0001:000208c0       ??0?$dense_hashtable_iterator@U?$pair@$$CB_KUFriendState@@@std@@_KV?$hash_compare@_KU?$less@_K@std@@@stdext@@USelectKey@?$dense_hash_map@_KUFriendState@@V?$hash_compare@_KU?$less@_K@std@@@stdext@@U?$equal_to@_K@std@@V?$libc_allocator_with_realloc@U?$pair@$$CB_KUFriendState@@@std@@@google@@@google@@USetKey@67@U?$equal_to@_K@2@V?$libc_allocator_with_realloc@U?$pair@$$CB_KUFriendState@@@std@@@7@@google@@QAE@PBV?$dense_hashtable@U?$pair@$$CB_KUFriendState@@@std@@_KV?$hash_compare@_KU?$less@_K@std@@@stdext@@USelectKey@?$dense_hash_map@_KUFriendState@@V?$hash_compare@_KU?$less@_K@std@@@stdext@@U?$equal_to@_K@std@@V?$libc_allocator_with_realloc@U?$pair@$$CB_KUFriendState@@@std@@@google@@@google@@USetKey@67@U?$equal_to@_K@2@V?$libc_allocator_with_realloc@U?$pair@$$CB_KUFriendState@@@std@@@7@@1@PAU?$pair@$$CB_KUFriendState@@@std@@1_N@Z 100218c0 f i NPFriends.obj
 0001:00020920       ??0?$hash_compare@_KU?$less@_K@std@@@stdext@@QAE@U?$less@_K@std@@@Z 10021920 f i NPFriends.obj
 0001:00020950       ??0?$libc_allocator_with_realloc@U?$pair@$$CB_KUFriendState@@@std@@@google@@QAE@ABV01@@Z 10021950 f i NPFriends.obj
 0001:00020970       ??0?$libc_allocator_with_realloc@U?$pair@$$CB_KUFriendState@@@std@@@google@@QAE@XZ 10021970 f i NPFriends.obj
 0001:00020990       ??0?$map@V?$basic_string@DU?$char_traits@D@std@@V?$allocator@D@2@@std@@V12@U?$less@V?$basic_string@DU?$char_traits@D@std@@V?$allocator@D@2@@std@@@2@V?$allocator@U?$pair@$$CBV?$basic_string@DU?$char_traits@D@std@@V?$allocator@D@2@@std@@V12@@std@@@2@@std@@QAE@ABV01@@Z 10021990 f i NPFriends.obj
 0001:000209f0       ??0?$map@V?$basic_string@DU?$char_traits@D@std@@V?$allocator@D@2@@std@@V12@U?$less@V?$basic_string@DU?$char_traits@D@std@@V?$allocator@D@2@@std@@@2@V?$allocator@U?$pair@$$CBV?$basic_string@DU?$char_traits@D@std@@V?$allocator@D@2@@std@@V12@@std@@@2@@std@@QAE@XZ 100219f0 f i NPFriends.obj
 0001:00020a30       ??0?$pair@$$CBV?$basic_string@DU?$char_traits@D@std@@V?$allocator@D@2@@std@@V12@@std@@QAE@ABU01@@Z 10021a30 f i NPFriends.obj
 0001:00020ac0       ??0?$pair@$$CB_KUFriendState@@@std@@QAE@ABU01@@Z 10021ac0 f i NPFriends.obj
 0001:00020b10       ??0?$pair@$$CB_KUFriendState@@@std@@QAE@XZ 10021b10 f i NPFriends.obj
 0001:00020b50       ??0?$sh_hashtable_settings@_KV?$hash_compare@_KU?$less@_K@std@@@stdext@@I$03@@QAE@ABV?$hash_compare@_KU?$less@_K@std@@@stdext@@MM@Z 10021b50 f i NPFriends.obj
 0001:00020be0       ??0FriendState@@QAE@ABU0@@Z 10021be0 f i NPFriends.obj
 0001:00020c80       ??0FriendState@@QAE@XZ     10021c80 f i NPFriends.obj
 0001:00020cb0       ??0KeyInfo@?$dense_hashtable@U?$pair@$$CB_KUFriendState@@@std@@_KV?$hash_compare@_KU?$less@_K@std@@@stdext@@USelectKey@?$dense_hash_map@_KUFriendState@@V?$hash_compare@_KU?$less@_K@std@@@stdext@@U?$equal_to@_K@std@@V?$libc_allocator_with_realloc@U?$pair@$$CB_KUFriendState@@@std@@@google@@@google@@USetKey@67@U?$equal_to@_K@2@V?$libc_allocator_with_realloc@U?$pair@$$CB_KUFriendState@@@std@@@7@@google@@QAE@ABUSelectKey@?$dense_hash_map@_KUFriendState@@V?$hash_compare@_KU?$less@_K@std@@@stdext@@U?$equal_to@_K@std@@V?$libc_allocator_with_realloc@U?$pair@$$CB_KUFriendState@@@std@@@google@@@2@ABUSetKey@42@ABU?$equal_to@_K@std@@@Z 10021cb0 f i NPFriends.obj
 0001:00020cd0       ??0Settings@?$dense_hashtable@U?$pair@$$CB_KUFriendState@@@std@@_KV?$hash_compare@_KU?$less@_K@std@@@stdext@@USelectKey@?$dense_hash_map@_KUFriendState@@V?$hash_compare@_KU?$less@_K@std@@@stdext@@U?$equal_to@_K@std@@V?$libc_allocator_with_realloc@U?$pair@$$CB_KUFriendState@@@std@@@google@@@google@@USetKey@67@U?$equal_to@_K@2@V?$libc_allocator_with_realloc@U?$pair@$$CB_KUFriendState@@@std@@@7@@google@@QAE@ABV?$hash_compare@_KU?$less@_K@std@@@stdext@@@Z 10021cd0 f i NPFriends.obj
 0001:00020d40       ??0ValInfo@?$dense_hashtable@U?$pair@$$CB_KUFriendState@@@std@@_KV?$hash_compare@_KU?$less@_K@std@@@stdext@@USelectKey@?$dense_hash_map@_KUFriendState@@V?$hash_compare@_KU?$less@_K@std@@@stdext@@U?$equal_to@_K@std@@V?$libc_allocator_with_realloc@U?$pair@$$CB_KUFriendState@@@std@@@google@@@google@@USetKey@67@U?$equal_to@_K@2@V?$libc_allocator_with_realloc@U?$pair@$$CB_KUFriendState@@@std@@@7@@google@@QAE@ABV012@@Z 10021d40 f i NPFriends.obj
 0001:00020dd0       ??0ValInfo@?$dense_hashtable@U?$pair@$$CB_KUFriendState@@@std@@_KV?$hash_compare@_KU?$less@_K@std@@@stdext@@USelectKey@?$dense_hash_map@_KUFriendState@@V?$hash_compare@_KU?$less@_K@std@@@stdext@@U?$equal_to@_K@std@@V?$libc_allocator_with_realloc@U?$pair@$$CB_KUFriendState@@@std@@@google@@@google@@USetKey@67@U?$equal_to@_K@2@V?$libc_allocator_with_realloc@U?$pair@$$CB_KUFriendState@@@std@@@7@@google@@QAE@ABV?$alloc_impl@V?$libc_allocator_with_realloc@U?$pair@$$CB_KUFriendState@@@std@@@google@@@12@@Z 10021dd0 f i NPFriends.obj
 0001:00020e50       ??0_Ignore@std@@QAE@XZ     10021e50 f i NPFriends.obj
 0001:00020e70       ??0length_error@std@@QAE@ABV01@@Z 10021e70 f i NPFriends.obj
 0001:00020eb0       ??0length_error@std@@QAE@PBD@Z 10021eb0 f i NPFriends.obj
 0001:00020ef0       ??0logic_error@std@@QAE@ABV01@@Z 10021ef0 f i NPFriends.obj
 0001:00020f30       ??0logic_error@std@@QAE@PBD@Z 10021f30 f i NPFriends.obj
 0001:00020f70       ??1<unnamed-type-g_friends>@@QAE@XZ 10021f70 f i NPFriends.obj
 0001:00020fb0       ??1?$_Tree@V?$_Tmap_traits@V?$basic_string@DU?$char_traits@D@std@@V?$allocator@D@2@@std@@V12@U?$less@V?$basic_string@DU?$char_traits@D@std@@V?$allocator@D@2@@std@@@2@V?$allocator@U?$pair@$$CBV?$basic_string@DU?$char_traits@D@std@@V?$allocator@D@2@@std@@V12@@std@@@2@$0A@@std@@@std@@QAE@XZ 10021fb0 f i NPFriends.obj
 0001:00020fe0       ??1?$_Tree_alloc@$0A@U?$_Tree_base_types@U?$pair@$$CBV?$basic_string@DU?$char_traits@D@std@@V?$allocator@D@2@@std@@V12@@std@@V?$allocator@U?$pair@$$CBV?$basic_string@DU?$char_traits@D@std@@V?$allocator@D@2@@std@@V12@@std@@@2@@std@@@std@@QAE@XZ 10021fe0 f i NPFriends.obj
 0001:00021010       ??1?$_Tree_buy@U?$pair@$$CBV?$basic_string@DU?$char_traits@D@std@@V?$allocator@D@2@@std@@V12@@std@@V?$allocator@U?$pair@$$CBV?$basic_string@DU?$char_traits@D@std@@V?$allocator@D@2@@std@@V12@@std@@@2@@std@@QAE@XZ 10022010 f i NPFriends.obj
 0001:00021040       ??1?$_Tree_comp@$0A@V?$_Tmap_traits@V?$basic_string@DU?$char_traits@D@std@@V?$allocator@D@2@@std@@V12@U?$less@V?$basic_string@DU?$char_traits@D@std@@V?$allocator@D@2@@std@@@2@V?$allocator@U?$pair@$$CBV?$basic_string@DU?$char_traits@D@std@@V?$allocator@D@2@@std@@V12@@std@@@2@$0A@@std@@@std@@QAE@XZ 10022040 f i NPFriends.obj
 0001:00021070       ??1?$alloc_impl@V?$libc_allocator_with_realloc@U?$pair@$$CB_KUFriendState@@@std@@@google@@@?$dense_hashtable@U?$pair@$$CB_KUFriendState@@@std@@_KV?$hash_compare@_KU?$less@_K@std@@@stdext@@USelectKey@?$dense_hash_map@_KUFriendState@@V?$hash_compare@_KU?$less@_K@std@@@stdext@@U?$equal_to@_K@std@@V?$libc_allocator_with_realloc@U?$pair@$$CB_KUFriendState@@@std@@@google@@@google@@USetKey@67@U?$equal_to@_K@2@V?$libc_allocator_with_realloc@U?$pair@$$CB_KUFriendState@@@std@@@7@@google@@QAE@XZ 10022070 f i NPFriends.obj
 0001:000210a0       ??1?$dense_hash_map@_KUFriendState@@V?$hash_compare@_KU?$less@_K@std@@@stdext@@U?$equal_to@_K@std@@V?$libc_allocator_with_realloc@U?$pair@$$CB_KUFriendState@@@std@@@google@@@google@@QAE@XZ 100220a0 f i NPFriends.obj
 0001:000210d0       ??1?$dense_hashtable@U?$pair@$$CB_KUFriendState@@@std@@_KV?$hash_compare@_KU?$less@_K@std@@@stdext@@USelectKey@?$dense_hash_map@_KUFriendState@@V?$hash_compare@_KU?$less@_K@std@@@stdext@@U?$equal_to@_K@std@@V?$libc_allocator_with_realloc@U?$pair@$$CB_KUFriendState@@@std@@@google@@@google@@USetKey@67@U?$equal_to@_K@2@V?$libc_allocator_with_realloc@U?$pair@$$CB_KUFriendState@@@std@@@7@@google@@QAE@XZ 100220d0 f i NPFriends.obj
 0001:00021190       ??1?$libc_allocator_with_realloc@U?$pair@$$CB_KUFriendState@@@std@@@google@@QAE@XZ 10022190 f i NPFriends.obj
 0001:000211b0       ??1?$map@V?$basic_string@DU?$char_traits@D@std@@V?$allocator@D@2@@std@@V12@U?$less@V?$basic_string@DU?$char_traits@D@std@@V?$allocator@D@2@@std@@@2@V?$allocator@U?$pair@$$CBV?$basic_string@DU?$char_traits@D@std@@V?$allocator@D@2@@std@@V12@@std@@@2@@std@@QAE@XZ 100221b0 f i NPFriends.obj
 0001:000211e0       ??1?$pair@$$CBV?$basic_string@DU?$char_traits@D@std@@V?$allocator@D@2@@std@@V12@@std@@QAE@XZ 100221e0 f i NPFriends.obj
 0001:00021210       ??1?$pair@$$CB_KUFriendState@@@std@@QAE@XZ 10022210 f i NPFriends.obj
 0001:00021240       ??1?$pair@V?$basic_string@DU?$char_traits@D@std@@V?$allocator@D@2@@std@@V12@@std@@QAE@XZ 10022240 f i NPFriends.obj
 0001:00021270       ??1?$pair@_KUFriendState@@@std@@QAE@XZ 10022270 f i NPFriends.obj
 0001:000212a0       ??1FriendState@@QAE@XZ     100222a0 f i NPFriends.obj
 0001:000212d0       ??1ValInfo@?$dense_hashtable@U?$pair@$$CB_KUFriendState@@@std@@_KV?$hash_compare@_KU?$less@_K@std@@@stdext@@USelectKey@?$dense_hash_map@_KUFriendState@@V?$hash_compare@_KU?$less@_K@std@@@stdext@@U?$equal_to@_K@std@@V?$libc_allocator_with_realloc@U?$pair@$$CB_KUFriendState@@@std@@@google@@@google@@USetKey@67@U?$equal_to@_K@2@V?$libc_allocator_with_realloc@U?$pair@$$CB_KUFriendState@@@std@@@7@@google@@QAE@XZ 100222d0 f i NPFriends.obj
 0001:00021300       ??1length_error@std@@UAE@XZ 10022300 f i NPFriends.obj
 0001:00021330       ??1logic_error@std@@UAE@XZ 10022330 f i NPFriends.obj
 0001:00021360       ??4?$_Tree@V?$_Tmap_traits@V?$basic_string@DU?$char_traits@D@std@@V?$allocator@D@2@@std@@V12@U?$less@V?$basic_string@DU?$char_traits@D@std@@V?$allocator@D@2@@std@@@2@V?$allocator@U?$pair@$$CBV?$basic_string@DU?$char_traits@D@std@@V?$allocator@D@2@@std@@V12@@std@@@2@$0A@@std@@@std@@QAEAAV01@ABV01@@Z 10022360 f i NPFriends.obj
 0001:00021420       ??4?$basic_string@DU?$char_traits@D@std@@V?$allocator@D@2@@std@@QAEAAV01@ABV01@@Z 10022420 f i NPFriends.obj
 0001:000214c0       ??4?$basic_string@DU?$char_traits@D@std@@V?$allocator@D@2@@std@@QAEAAV01@PBD@Z 100224c0 f i NPFriends.obj
 0001:000214f0       ??4?$map@V?$basic_string@DU?$char_traits@D@std@@V?$allocator@D@2@@std@@V12@U?$less@V?$basic_string@DU?$char_traits@D@std@@V?$allocator@D@2@@std@@@2@V?$allocator@U?$pair@$$CBV?$basic_string@DU?$char_traits@D@std@@V?$allocator@D@2@@std@@V12@@std@@@2@@std@@QAEAAV01@ABV01@@Z 100224f0 f i NPFriends.obj
 0001:00021520       ??4FriendState@@QAEAAU0@ABU0@@Z 10022520 f i NPFriends.obj
 0001:00021610       ??8?$_Tree_const_iterator@V?$_Tree_val@U?$_Tree_simple_types@U?$pair@$$CBV?$basic_string@DU?$char_traits@D@std@@V?$allocator@D@2@@std@@V12@@std@@@std@@@std@@@std@@QBE_NABV01@@Z 10022610 f i NPFriends.obj
 0001:00021660       ??9?$_Tree_const_iterator@V?$_Tree_val@U?$_Tree_simple_types@U?$pair@$$CBV?$basic_string@DU?$char_traits@D@std@@V?$allocator@D@2@@std@@V12@@std@@@std@@@std@@@std@@QBE_NABV01@@Z 10022660 f i NPFriends.obj
 0001:000216b0       ??9?$dense_hashtable_const_iterator@U?$pair@$$CB_KUFriendState@@@std@@_KV?$hash_compare@_KU?$less@_K@std@@@stdext@@USelectKey@?$dense_hash_map@_KUFriendState@@V?$hash_compare@_KU?$less@_K@std@@@stdext@@U?$equal_to@_K@std@@V?$libc_allocator_with_realloc@U?$pair@$$CB_KUFriendState@@@std@@@google@@@google@@USetKey@67@U?$equal_to@_K@2@V?$libc_allocator_with_realloc@U?$pair@$$CB_KUFriendState@@@std@@@7@@google@@QBE_NABU01@@Z 100226b0 f i NPFriends.obj
 0001:00021700       ??A?$dense_hash_map@_KUFriendState@@V?$hash_compare@_KU?$less@_K@std@@@stdext@@U?$equal_to@_K@std@@V?$libc_allocator_with_realloc@U?$pair@$$CB_KUFriendState@@@std@@@google@@@google@@QAEAAUFriendState@@AB_K@Z 10022700 f i NPFriends.obj
 0001:00021730       ??A?$map@V?$basic_string@DU?$char_traits@D@std@@V?$allocator@D@2@@std@@V12@U?$less@V?$basic_string@DU?$char_traits@D@std@@V?$allocator@D@2@@std@@@2@V?$allocator@U?$pair@$$CBV?$basic_string@DU?$char_traits@D@std@@V?$allocator@D@2@@std@@V12@@std@@@2@@std@@QAEAAV?$basic_string@DU?$char_traits@D@std@@V?$allocator@D@2@@1@$$QAV21@@Z 10022730 f i NPFriends.obj
 0001:000218f0       ??A?$map@V?$basic_string@DU?$char_traits@D@std@@V?$allocator@D@2@@std@@V12@U?$less@V?$basic_string@DU?$char_traits@D@std@@V?$allocator@D@2@@std@@@2@V?$allocator@U?$pair@$$CBV?$basic_string@DU?$char_traits@D@std@@V?$allocator@D@2@@std@@V12@@std@@@2@@std@@QAEAAV?$basic_string@DU?$char_traits@D@std@@V?$allocator@D@2@@1@ABV21@@Z 100228f0 f i NPFriends.obj
 0001:00021ab0       ??C?$_Tree_iterator@V?$_Tree_val@U?$_Tree_simple_types@U?$pair@$$CBV?$basic_string@DU?$char_traits@D@std@@V?$allocator@D@2@@std@@V12@@std@@@std@@@std@@@std@@QBEPAU?$pair@$$CBV?$basic_string@DU?$char_traits@D@std@@V?$allocator@D@2@@std@@V12@@1@XZ 10022ab0 f i NPFriends.obj
 0001:00021ae0       ??D?$_Tree_const_iterator@V?$_Tree_val@U?$_Tree_simple_types@U?$pair@$$CBV?$basic_string@DU?$char_traits@D@std@@V?$allocator@D@2@@std@@V12@@std@@@std@@@std@@@std@@QBEABU?$pair@$$CBV?$basic_string@DU?$char_traits@D@std@@V?$allocator@D@2@@std@@V12@@1@XZ 10022ae0 f i NPFriends.obj
 0001:00021b10       ??D?$_Tree_iterator@V?$_Tree_val@U?$_Tree_simple_types@U?$pair@$$CBV?$basic_string@DU?$char_traits@D@std@@V?$allocator@D@2@@std@@V12@@std@@@std@@@std@@@std@@QBEAAU?$pair@$$CBV?$basic_string@DU?$char_traits@D@std@@V?$allocator@D@2@@std@@V12@@1@XZ 10022b10 f i NPFriends.obj
 0001:00021b40       ??D?$dense_hashtable_const_iterator@U?$pair@$$CB_KUFriendState@@@std@@_KV?$hash_compare@_KU?$less@_K@std@@@stdext@@USelectKey@?$dense_hash_map@_KUFriendState@@V?$hash_compare@_KU?$less@_K@std@@@stdext@@U?$equal_to@_K@std@@V?$libc_allocator_with_realloc@U?$pair@$$CB_KUFriendState@@@std@@@google@@@google@@USetKey@67@U?$equal_to@_K@2@V?$libc_allocator_with_realloc@U?$pair@$$CB_KUFriendState@@@std@@@7@@google@@QBEABU?$pair@$$CB_KUFriendState@@@std@@XZ 10022b40 f i NPFriends.obj
 0001:00021b60       ??D?$dense_hashtable_iterator@U?$pair@$$CB_KUFriendState@@@std@@_KV?$hash_compare@_KU?$less@_K@std@@@stdext@@USelectKey@?$dense_hash_map@_KUFriendState@@V?$hash_compare@_KU?$less@_K@std@@@stdext@@U?$equal_to@_K@std@@V?$libc_allocator_with_realloc@U?$pair@$$CB_KUFriendState@@@std@@@google@@@google@@USetKey@67@U?$equal_to@_K@2@V?$libc_allocator_with_realloc@U?$pair@$$CB_KUFriendState@@@std@@@7@@google@@QBEAAU?$pair@$$CB_KUFriendState@@@std@@XZ 10022b60 f i NPFriends.obj
 0001:00021b80       ??E?$_Tree_const_iterator@V?$_Tree_val@U?$_Tree_simple_types@U?$pair@$$CBV?$basic_string@DU?$char_traits@D@std@@V?$allocator@D@2@@std@@V12@@std@@@std@@@std@@@std@@QAE?AV01@H@Z 10022b80 f i NPFriends.obj
 0001:00021bc0       ??E?$_Tree_const_iterator@V?$_Tree_val@U?$_Tree_simple_types@U?$pair@$$CBV?$basic_string@DU?$char_traits@D@std@@V?$allocator@D@2@@std@@V12@@std@@@std@@@std@@@std@@QAEAAV01@XZ 10022bc0 f i NPFriends.obj
 0001:00021bf0       ??E?$_Tree_iterator@V?$_Tree_val@U?$_Tree_simple_types@U?$pair@$$CBV?$basic_string@DU?$char_traits@D@std@@V?$allocator@D@2@@std@@V12@@std@@@std@@@std@@@std@@QAE?AV01@H@Z 10022bf0 f i NPFriends.obj
 0001:00021c30       ??E?$_Tree_iterator@V?$_Tree_val@U?$_Tree_simple_types@U?$pair@$$CBV?$basic_string@DU?$char_traits@D@std@@V?$allocator@D@2@@std@@V12@@std@@@std@@@std@@@std@@QAEAAV01@XZ 10022c30 f i NPFriends.obj
 0001:00021c60       ??E?$_Tree_unchecked_const_iterator@V?$_Tree_val@U?$_Tree_simple_types@U?$pair@$$CBV?$basic_string@DU?$char_traits@D@std@@V?$allocator@D@2@@std@@V12@@std@@@std@@@std@@U_Iterator_base0@2@@std@@QAEAAV01@XZ 10022c60 f i NPFriends.obj
 0001:00021d50       ??E?$dense_hashtable_const_iterator@U?$pair@$$CB_KUFriendState@@@std@@_KV?$hash_compare@_KU?$less@_K@std@@@stdext@@USelectKey@?$dense_hash_map@_KUFriendState@@V?$hash_compare@_KU?$less@_K@std@@@stdext@@U?$equal_to@_K@std@@V?$libc_allocator_with_realloc@U?$pair@$$CB_KUFriendState@@@std@@@google@@@google@@USetKey@67@U?$equal_to@_K@2@V?$libc_allocator_with_realloc@U?$pair@$$CB_KUFriendState@@@std@@@7@@google@@QAEAAU01@XZ 10022d50 f i NPFriends.obj
 0001:00021d90       ??F?$_Tree_const_iterator@V?$_Tree_val@U?$_Tree_simple_types@U?$pair@$$CBV?$basic_string@DU?$char_traits@D@std@@V?$allocator@D@2@@std@@V12@@std@@@std@@@std@@@std@@QAEAAV01@XZ 10022d90 f i NPFriends.obj
 0001:00021dc0       ??F?$_Tree_iterator@V?$_Tree_val@U?$_Tree_simple_types@U?$pair@$$CBV?$basic_string@DU?$char_traits@D@std@@V?$allocator@D@2@@std@@V12@@std@@@std@@@std@@@std@@QAEAAV01@XZ 10022dc0 f i NPFriends.obj
 0001:00021df0       ??F?$_Tree_unchecked_const_iterator@V?$_Tree_val@U?$_Tree_simple_types@U?$pair@$$CBV?$basic_string@DU?$char_traits@D@std@@V?$allocator@D@2@@std@@V12@@std@@@std@@@std@@U_Iterator_base0@2@@std@@QAEAAV01@XZ 10022df0 f i NPFriends.obj
 0001:00021f20       ??R?$equal_to@_K@std@@QBE_NAB_K0@Z 10022f20 f i NPFriends.obj
 0001:00021f90       ??R?$hash_compare@_KU?$less@_K@std@@@stdext@@QBEIAB_K@Z 10022f90 f i NPFriends.obj
 0001:00022020       ??R?$less@V?$basic_string@DU?$char_traits@D@std@@V?$allocator@D@2@@std@@@std@@QBE_NABV?$basic_string@DU?$char_traits@D@std@@V?$allocator@D@2@@1@0@Z 10023020 f i NPFriends.obj
 0001:00022050       ??RDefaultValue@?$dense_hash_map@_KUFriendState@@V?$hash_compare@_KU?$less@_K@std@@@stdext@@U?$equal_to@_K@std@@V?$libc_allocator_with_realloc@U?$pair@$$CB_KUFriendState@@@std@@@google@@@google@@QAE?AU?$pair@$$CB_KUFriendState@@@std@@AB_K@Z 10023050 f i NPFriends.obj
 0001:00022180       ??RSelectKey@?$dense_hash_map@_KUFriendState@@V?$hash_compare@_KU?$less@_K@std@@@stdext@@U?$equal_to@_K@std@@V?$libc_allocator_with_realloc@U?$pair@$$CB_KUFriendState@@@std@@@google@@@google@@QBEAB_KABU?$pair@$$CB_KUFriendState@@@std@@@Z 10023180 f i NPFriends.obj
 0001:000221a0       ??_G?$pair@$$CBV?$basic_string@DU?$char_traits@D@std@@V?$allocator@D@2@@std@@V12@@std@@QAEPAXI@Z 100231a0 f i NPFriends.obj
 0001:000221f0       ??_G?$pair@$$CB_KUFriendState@@@std@@QAEPAXI@Z 100231f0 f i NPFriends.obj
 0001:00022240       ??_Elength_error@std@@UAEPAXI@Z 10023240 f i NPFriends.obj
 0001:00022240       ??_Glength_error@std@@UAEPAXI@Z 10023240 f i NPFriends.obj
 0001:00022290       ??_Elogic_error@std@@UAEPAXI@Z 10023290 f i NPFriends.obj
 0001:00022290       ??_Glogic_error@std@@UAEPAXI@Z 10023290 f i NPFriends.obj
 0001:000222e0       ?Add@?$RepeatedPtrField@VFriendsPresence@@@protobuf@google@@QAEPAVFriendsPresence@@XZ 100232e0 f i NPFriends.obj
 0001:00022310       ?Free@?$NPAsyncImpl@UNPGetUserAvatarResult@@@@UAEXXZ 10023310 f i NPFriends.obj
 0001:00022374       ?Free@?$NPAsyncImpl@UNPGetUserAvatarResult@@@@W3AEXXZ 10023374 f i NPFriends.obj
 0001:00022380       ?Friends_Connect@@YAXXZ    10023380 f   NPFriends.obj
 0001:000223a0       ?Friends_Init@@YAXXZ       100233a0 f   NPFriends.obj
 0001:00022420       ?Friends_ReceivedPresence@@YAXPAVINPRPCMessage@@@Z 10023420 f   NPFriends.obj
 0001:00022680       ?Friends_ReceivedRoster@@YAXPAVINPRPCMessage@@@Z 10023680 f   NPFriends.obj
 0001:00022860       ?Friends_Shutdown@@YAXXZ   10023860 f   NPFriends.obj
 0001:00022980       ?Get@?$RepeatedPtrField@VFriendDetails@@@protobuf@google@@QBEABVFriendDetails@@H@Z 10023980 f i NPFriends.obj
 0001:000229b0       ?Get@?$RepeatedPtrField@VFriendsPresence@@@protobuf@google@@QBEABVFriendsPresence@@H@Z 100239b0 f i NPFriends.obj
 0001:000229e0       ?GetResult@?$NPAsyncImpl@UNPGetUserAvatarResult@@@@UAEPAUNPGetUserAvatarResult@@XZ 100239e0 f i NPFriends.obj
 0001:00022bf0       ?GetUserData@?$NPAsyncImpl@UNPGetUserAvatarResult@@@@UAEPAXXZ 10023bf0 f i NPFriends.obj
 0001:00022c10       ?HasCompleted@?$NPAsyncImpl@UNPGetUserAvatarResult@@@@UAE_NXZ 10023c10 f i NPFriends.obj
 0001:00022c50       ?New@?$GenericTypeHandler@VFriendsPresence@@@internal@protobuf@google@@SAPAVFriendsPresence@@XZ 10023c50 f i NPFriends.obj
 0001:00022cf0       ?RunCallback@?$NPAsyncImpl@UNPGetUserAvatarResult@@@@UAE_NXZ 10023cf0 f i NPFriends.obj
 0001:00022d60       ?SetCallback@?$NPAsyncImpl@UNPGetUserAvatarResult@@@@UAEXP6AXPAV?$NPAsync@UNPGetUserAvatarResult@@@@@ZPAX@Z 10023d60 f i NPFriends.obj
 0001:00022da0       ?SetResult@?$NPAsyncImpl@UNPGetUserAvatarResult@@@@QAEXPAUNPGetUserAvatarResult@@@Z 10023da0 f i NPFriends.obj
 0001:00022e10       ?Wait@?$NPAsyncImpl@UNPGetUserAvatarResult@@@@UAEPAUNPGetUserAvatarResult@@XZ 10023e10 f i NPFriends.obj
 0001:00022e70       ?_Adopt@_Iterator_base0@std@@QAEXPBX@Z 10023e70 f i NPFriends.obj
 0001:00022e90       ?_Buyheadnode@?$_Tree_alloc@$0A@U?$_Tree_base_types@U?$pair@$$CBV?$basic_string@DU?$char_traits@D@std@@V?$allocator@D@2@@std@@V12@@std@@V?$allocator@U?$pair@$$CBV?$basic_string@DU?$char_traits@D@std@@V?$allocator@D@2@@std@@V12@@std@@@2@@std@@@std@@QAEPAU?$_Tree_node@U?$pair@$$CBV?$basic_string@DU?$char_traits@D@std@@V?$allocator@D@2@@std@@V12@@std@@PAX@2@XZ 10023e90 f i NPFriends.obj
 0001:00023050       ?_Buynode0@?$_Tree_buy@U?$pair@$$CBV?$basic_string@DU?$char_traits@D@std@@V?$allocator@D@2@@std@@V12@@std@@V?$allocator@U?$pair@$$CBV?$basic_string@DU?$char_traits@D@std@@V?$allocator@D@2@@std@@V12@@std@@@2@@std@@QAEPAU?$_Tree_node@U?$pair@$$CBV?$basic_string@DU?$char_traits@D@std@@V?$allocator@D@2@@std@@V12@@std@@PAX@2@XZ 10024050 f i NPFriends.obj
 0001:000231f0       ?_Change_alloc@?$_String_alloc@$0A@U?$_String_base_types@DV?$allocator@D@std@@@std@@@std@@QAEXABU?$_Wrap_alloc@V?$allocator@D@std@@@2@@Z 100241f0 f i NPFriends.obj
 0001:00023210       ?_Change_alloc@?$_Tree_alloc@$0A@U?$_Tree_base_types@U?$pair@$$CBV?$basic_string@DU?$char_traits@D@std@@V?$allocator@D@2@@std@@V12@@std@@V?$allocator@U?$pair@$$CBV?$basic_string@DU?$char_traits@D@std@@V?$allocator@D@2@@std@@V12@@std@@@2@@std@@@std@@QAEXABU?$_Wrap_alloc@V?$allocator@U?$_Tree_node@U?$pair@$$CBV?$basic_string@DU?$char_traits@D@std@@V?$allocator@D@2@@std@@V12@@std@@PAX@std@@@std@@@2@@Z 10024210 f i NPFriends.obj
 0001:00023230       ?_Color@?$_Tree_val@U?$_Tree_simple_types@U?$pair@$$CBV?$basic_string@DU?$char_traits@D@std@@V?$allocator@D@2@@std@@V12@@std@@@std@@@std@@SAAADPAU?$_Tree_node@U?$pair@$$CBV?$basic_string@DU?$char_traits@D@std@@V?$allocator@D@2@@std@@V12@@std@@PAX@2@@Z 10024230 f i NPFriends.obj
 0001:00023250       ?_Destroy_if_not_nil@?$_Tree@V?$_Tmap_traits@V?$basic_string@DU?$char_traits@D@std@@V?$allocator@D@2@@std@@V12@U?$less@V?$basic_string@DU?$char_traits@D@std@@V?$allocator@D@2@@std@@@2@V?$allocator@U?$pair@$$CBV?$basic_string@DU?$char_traits@D@std@@V?$allocator@D@2@@std@@V12@@std@@@2@$0A@@std@@@std@@IAEXPAU?$_Tree_node@U?$pair@$$CBV?$basic_string@DU?$char_traits@D@std@@V?$allocator@D@2@@std@@V12@@std@@PAX@2@@Z 10024250 f i NPFriends.obj
 0001:000232c0       ?_Eqrange@?$_Tree@V?$_Tmap_traits@V?$basic_string@DU?$char_traits@D@std@@V?$allocator@D@2@@std@@V12@U?$less@V?$basic_string@DU?$char_traits@D@std@@V?$allocator@D@2@@std@@@2@V?$allocator@U?$pair@$$CBV?$basic_string@DU?$char_traits@D@std@@V?$allocator@D@2@@std@@V12@@std@@@2@$0A@@std@@@std@@IAE?AU?$pair@V?$_Tree_iterator@V?$_Tree_val@U?$_Tree_simple_types@U?$pair@$$CBV?$basic_string@DU?$char_traits@D@std@@V?$allocator@D@2@@std@@V12@@std@@@std@@@std@@@std@@V12@@2@ABV?$basic_string@DU?$char_traits@D@std@@V?$allocator@D@2@@2@@Z 100242c0 f i NPFriends.obj
 0001:00023500       ?_Erase@?$_Tree@V?$_Tmap_traits@V?$basic_string@DU?$char_traits@D@std@@V?$allocator@D@2@@std@@V12@U?$less@V?$basic_string@DU?$char_traits@D@std@@V?$allocator@D@2@@std@@@2@V?$allocator@U?$pair@$$CBV?$basic_string@DU?$char_traits@D@std@@V?$allocator@D@2@@std@@V12@@std@@@2@$0A@@std@@@std@@IAEXPAU?$_Tree_node@U?$pair@$$CBV?$basic_string@DU?$char_traits@D@std@@V?$allocator@D@2@@std@@V12@@std@@PAX@2@@Z 10024500 f i NPFriends.obj
 0001:000235d0       ?_Freeheadnode@?$_Tree_alloc@$0A@U?$_Tree_base_types@U?$pair@$$CBV?$basic_string@DU?$char_traits@D@std@@V?$allocator@D@2@@std@@V12@@std@@V?$allocator@U?$pair@$$CBV?$basic_string@DU?$char_traits@D@std@@V?$allocator@D@2@@std@@V12@@std@@@2@@std@@@std@@QAEXPAU?$_Tree_node@U?$pair@$$CBV?$basic_string@DU?$char_traits@D@std@@V?$allocator@D@2@@std@@V12@@std@@PAX@2@@Z 100245d0 f i NPFriends.obj
 0001:000236b0       ?_Freenode0@?$_Tree_buy@U?$pair@$$CBV?$basic_string@DU?$char_traits@D@std@@V?$allocator@D@2@@std@@V12@@std@@V?$allocator@U?$pair@$$CBV?$basic_string@DU?$char_traits@D@std@@V?$allocator@D@2@@std@@V12@@std@@@2@@std@@QAEXPAU?$_Tree_node@U?$pair@$$CBV?$basic_string@DU?$char_traits@D@std@@V?$allocator@D@2@@std@@V12@@std@@PAX@2@@Z 100246b0 f i NPFriends.obj
 0001:00023790       ?_Getal@?$_Tree_alloc@$0A@U?$_Tree_base_types@U?$pair@$$CBV?$basic_string@DU?$char_traits@D@std@@V?$allocator@D@2@@std@@V12@@std@@V?$allocator@U?$pair@$$CBV?$basic_string@DU?$char_traits@D@std@@V?$allocator@D@2@@std@@V12@@std@@@2@@std@@@std@@QBE?AU?$_Wrap_alloc@V?$allocator@U?$_Tree_node@U?$pair@$$CBV?$basic_string@DU?$char_traits@D@std@@V?$allocator@D@2@@std@@V12@@std@@PAX@std@@@std@@@2@XZ 10024790 f i NPFriends.obj
 0001:000237c0       ?_Getcomp@?$_Tree_comp@$0A@V?$_Tmap_traits@V?$basic_string@DU?$char_traits@D@std@@V?$allocator@D@2@@std@@V12@U?$less@V?$basic_string@DU?$char_traits@D@std@@V?$allocator@D@2@@std@@@2@V?$allocator@U?$pair@$$CBV?$basic_string@DU?$char_traits@D@std@@V?$allocator@D@2@@std@@V12@@std@@@2@$0A@@std@@@std@@QBE?AU?$less@V?$basic_string@DU?$char_traits@D@std@@V?$allocator@D@2@@std@@@2@XZ 100247c0 f i NPFriends.obj
 0001:000237e0       ?_Isnil@?$_Tree_val@U?$_Tree_simple_types@U?$pair@$$CBV?$basic_string@DU?$char_traits@D@std@@V?$allocator@D@2@@std@@V12@@std@@@std@@@std@@SAAADPAU?$_Tree_node@U?$pair@$$CBV?$basic_string@DU?$char_traits@D@std@@V?$allocator@D@2@@std@@V12@@std@@PAX@2@@Z 100247e0 f i NPFriends.obj
 0001:00023800       ?_Key@?$_Tree@V?$_Tmap_traits@V?$basic_string@DU?$char_traits@D@std@@V?$allocator@D@2@@std@@V12@U?$less@V?$basic_string@DU?$char_traits@D@std@@V?$allocator@D@2@@std@@@2@V?$allocator@U?$pair@$$CBV?$basic_string@DU?$char_traits@D@std@@V?$allocator@D@2@@std@@V12@@std@@@2@$0A@@std@@@std@@IBEABV?$basic_string@DU?$char_traits@D@std@@V?$allocator@D@2@@2@PAU?$_Tree_node@U?$pair@$$CBV?$basic_string@DU?$char_traits@D@std@@V?$allocator@D@2@@std@@V12@@std@@PAX@2@@Z 10024800 f i NPFriends.obj
 0001:00023840       ?_Kfn@?$_Tree@V?$_Tmap_traits@V?$basic_string@DU?$char_traits@D@std@@V?$allocator@D@2@@std@@V12@U?$less@V?$basic_string@DU?$char_traits@D@std@@V?$allocator@D@2@@std@@@2@V?$allocator@U?$pair@$$CBV?$basic_string@DU?$char_traits@D@std@@V?$allocator@D@2@@std@@V12@@std@@@2@$0A@@std@@@std@@IBEABV?$basic_string@DU?$char_traits@D@std@@V?$allocator@D@2@@2@ABU?$pair@$$CBV?$basic_string@DU?$char_traits@D@std@@V?$allocator@D@2@@std@@V12@@2@@Z 10024840 f i NPFriends.obj
 0001:00023870       ?_Lbound@?$_Tree@V?$_Tmap_traits@V?$basic_string@DU?$char_traits@D@std@@V?$allocator@D@2@@std@@V12@U?$less@V?$basic_string@DU?$char_traits@D@std@@V?$allocator@D@2@@std@@@2@V?$allocator@U?$pair@$$CBV?$basic_string@DU?$char_traits@D@std@@V?$allocator@D@2@@std@@V12@@std@@@2@$0A@@std@@@std@@IAEPAU?$_Tree_node@U?$pair@$$CBV?$basic_string@DU?$char_traits@D@std@@V?$allocator@D@2@@std@@V12@@std@@PAX@2@ABV?$basic_string@DU?$char_traits@D@std@@V?$allocator@D@2@@2@@Z 10024870 f i NPFriends.obj
 0001:00023930       ?_Left@?$_Tree_val@U?$_Tree_simple_types@U?$pair@$$CBV?$basic_string@DU?$char_traits@D@std@@V?$allocator@D@2@@std@@V12@@std@@@std@@@std@@SAAAPAU?$_Tree_node@U?$pair@$$CBV?$basic_string@DU?$char_traits@D@std@@V?$allocator@D@2@@std@@V12@@std@@PAX@2@PAU32@@Z 10024930 f i NPFriends.obj
 0001:00023950       ?_Lmost@?$_Tree@V?$_Tmap_traits@V?$basic_string@DU?$char_traits@D@std@@V?$allocator@D@2@@std@@V12@U?$less@V?$basic_string@DU?$char_traits@D@std@@V?$allocator@D@2@@std@@@2@V?$allocator@U?$pair@$$CBV?$basic_string@DU?$char_traits@D@std@@V?$allocator@D@2@@std@@V12@@std@@@2@$0A@@std@@@std@@IBEAAPAU?$_Tree_node@U?$pair@$$CBV?$basic_string@DU?$char_traits@D@std@@V?$allocator@D@2@@std@@V12@@std@@PAX@2@XZ 10024950 f i NPFriends.obj
 0001:00023980       ?_Lrotate@?$_Tree@V?$_Tmap_traits@V?$basic_string@DU?$char_traits@D@std@@V?$allocator@D@2@@std@@V12@U?$less@V?$basic_string@DU?$char_traits@D@std@@V?$allocator@D@2@@std@@@2@V?$allocator@U?$pair@$$CBV?$basic_string@DU?$char_traits@D@std@@V?$allocator@D@2@@std@@V12@@std@@@2@$0A@@std@@@std@@IAEXPAU?$_Tree_node@U?$pair@$$CBV?$basic_string@DU?$char_traits@D@std@@V?$allocator@D@2@@std@@V12@@std@@PAX@2@@Z 10024980 f i NPFriends.obj
 0001:00023b10       ?_Max@?$_Tree_val@U?$_Tree_simple_types@U?$pair@$$CBV?$basic_string@DU?$char_traits@D@std@@V?$allocator@D@2@@std@@V12@@std@@@std@@@std@@SAPAU?$_Tree_node@U?$pair@$$CBV?$basic_string@DU?$char_traits@D@std@@V?$allocator@D@2@@std@@V12@@std@@PAX@2@PAU32@@Z 10024b10 f i NPFriends.obj
 0001:00023b70       ?_Min@?$_Tree_val@U?$_Tree_simple_types@U?$pair@$$CBV?$basic_string@DU?$char_traits@D@std@@V?$allocator@D@2@@std@@V12@@std@@@std@@@std@@SAPAU?$_Tree_node@U?$pair@$$CBV?$basic_string@DU?$char_traits@D@std@@V?$allocator@D@2@@std@@V12@@std@@PAX@2@PAU32@@Z 10024b70 f i NPFriends.obj
 0001:00023bd0       ?_Mynode@?$_Tree_unchecked_const_iterator@V?$_Tree_val@U?$_Tree_simple_types@U?$pair@$$CBV?$basic_string@DU?$char_traits@D@std@@V?$allocator@D@2@@std@@V12@@std@@@std@@@std@@U_Iterator_base0@2@@std@@QBEPAU?$_Tree_node@U?$pair@$$CBV?$basic_string@DU?$char_traits@D@std@@V?$allocator@D@2@@std@@V12@@std@@PAX@2@XZ 10024bd0 f i NPFriends.obj
 0001:00023bf0       ?_Myval@?$_Tree_val@U?$_Tree_simple_types@U?$pair@$$CBV?$basic_string@DU?$char_traits@D@std@@V?$allocator@D@2@@std@@V12@@std@@@std@@@std@@SAAAU?$pair@$$CBV?$basic_string@DU?$char_traits@D@std@@V?$allocator@D@2@@std@@V12@@2@PAU?$_Tree_node@U?$pair@$$CBV?$basic_string@DU?$char_traits@D@std@@V?$allocator@D@2@@std@@V12@@std@@PAX@2@@Z 10024bf0 f i NPFriends.obj
 0001:00023c10       ?_Parent@?$_Tree_val@U?$_Tree_simple_types@U?$pair@$$CBV?$basic_string@DU?$char_traits@D@std@@V?$allocator@D@2@@std@@V12@@std@@@std@@@std@@SAAAPAU?$_Tree_node@U?$pair@$$CBV?$basic_string@DU?$char_traits@D@std@@V?$allocator@D@2@@std@@V12@@std@@PAX@2@PAU32@@Z 10024c10 f i NPFriends.obj
 0001:00023c30       ?_Right@?$_Tree_val@U?$_Tree_simple_types@U?$pair@$$CBV?$basic_string@DU?$char_traits@D@std@@V?$allocator@D@2@@std@@V12@@std@@@std@@@std@@SAAAPAU?$_Tree_node@U?$pair@$$CBV?$basic_string@DU?$char_traits@D@std@@V?$allocator@D@2@@std@@V12@@std@@PAX@2@PAU32@@Z 10024c30 f i NPFriends.obj
 0001:00023c50       ?_Rmost@?$_Tree@V?$_Tmap_traits@V?$basic_string@DU?$char_traits@D@std@@V?$allocator@D@2@@std@@V12@U?$less@V?$basic_string@DU?$char_traits@D@std@@V?$allocator@D@2@@std@@@2@V?$allocator@U?$pair@$$CBV?$basic_string@DU?$char_traits@D@std@@V?$allocator@D@2@@std@@V12@@std@@@2@$0A@@std@@@std@@IBEAAPAU?$_Tree_node@U?$pair@$$CBV?$basic_string@DU?$char_traits@D@std@@V?$allocator@D@2@@std@@V12@@std@@PAX@2@XZ 10024c50 f i NPFriends.obj
 0001:00023c80       ?_Root@?$_Tree@V?$_Tmap_traits@V?$basic_string@DU?$char_traits@D@std@@V?$allocator@D@2@@std@@V12@U?$less@V?$basic_string@DU?$char_traits@D@std@@V?$allocator@D@2@@std@@@2@V?$allocator@U?$pair@$$CBV?$basic_string@DU?$char_traits@D@std@@V?$allocator@D@2@@std@@V12@@std@@@2@$0A@@std@@@std@@IBEAAPAU?$_Tree_node@U?$pair@$$CBV?$basic_string@DU?$char_traits@D@std@@V?$allocator@D@2@@std@@V12@@std@@PAX@2@XZ 10024c80 f i NPFriends.obj
 0001:00023cb0       ?_Rrotate@?$_Tree@V?$_Tmap_traits@V?$basic_string@DU?$char_traits@D@std@@V?$allocator@D@2@@std@@V12@U?$less@V?$basic_string@DU?$char_traits@D@std@@V?$allocator@D@2@@std@@@2@V?$allocator@U?$pair@$$CBV?$basic_string@DU?$char_traits@D@std@@V?$allocator@D@2@@std@@V12@@std@@@2@$0A@@std@@@std@@IAEXPAU?$_Tree_node@U?$pair@$$CBV?$basic_string@DU?$char_traits@D@std@@V?$allocator@D@2@@std@@V12@@std@@PAX@2@@Z 10024cb0 f i NPFriends.obj
 0001:00023e40       ?_Setcomp@?$_Tree_comp@$0A@V?$_Tmap_traits@V?$basic_string@DU?$char_traits@D@std@@V?$allocator@D@2@@std@@V12@U?$less@V?$basic_string@DU?$char_traits@D@std@@V?$allocator@D@2@@std@@@2@V?$allocator@U?$pair@$$CBV?$basic_string@DU?$char_traits@D@std@@V?$allocator@D@2@@std@@V12@@std@@@2@$0A@@std@@@std@@QAEXABU?$less@V?$basic_string@DU?$char_traits@D@std@@V?$allocator@D@2@@std@@@2@@Z 10024e40 f i NPFriends.obj
 0001:00023e60       ?_Tidy@?$_Tree@V?$_Tmap_traits@V?$basic_string@DU?$char_traits@D@std@@V?$allocator@D@2@@std@@V12@U?$less@V?$basic_string@DU?$char_traits@D@std@@V?$allocator@D@2@@std@@@2@V?$allocator@U?$pair@$$CBV?$basic_string@DU?$char_traits@D@std@@V?$allocator@D@2@@std@@V12@@std@@@2@$0A@@std@@@std@@IAEXXZ 10024e60 f i NPFriends.obj
 0001:00023ec0       ?add_presence@FriendsSetPresenceMessage@@QAEPAVFriendsPresence@@XZ 10024ec0 f i NPFriends.obj
 0001:00023ef0       ?advance_past_empty_and_deleted@?$dense_hashtable_const_iterator@U?$pair@$$CB_KUFriendState@@@std@@_KV?$hash_compare@_KU?$less@_K@std@@@stdext@@USelectKey@?$dense_hash_map@_KUFriendState@@V?$hash_compare@_KU?$less@_K@std@@@stdext@@U?$equal_to@_K@std@@V?$libc_allocator_with_realloc@U?$pair@$$CB_KUFriendState@@@std@@@google@@@google@@USetKey@67@U?$equal_to@_K@2@V?$libc_allocator_with_realloc@U?$pair@$$CB_KUFriendState@@@std@@@7@@google@@QAEXXZ 10024ef0 f i NPFriends.obj
 0001:00023f70       ?advance_past_empty_and_deleted@?$dense_hashtable_iterator@U?$pair@$$CB_KUFriendState@@@std@@_KV?$hash_compare@_KU?$less@_K@std@@@stdext@@USelectKey@?$dense_hash_map@_KUFriendState@@V?$hash_compare@_KU?$less@_K@std@@@stdext@@U?$equal_to@_K@std@@V?$libc_allocator_with_realloc@U?$pair@$$CB_KUFriendState@@@std@@@google@@@google@@USetKey@67@U?$equal_to@_K@2@V?$libc_allocator_with_realloc@U?$pair@$$CB_KUFriendState@@@std@@@7@@google@@QAEXXZ 10024f70 f i NPFriends.obj
 0001:00023ff0       ?allocate@?$_Wrap_alloc@V?$allocator@U?$_Tree_node@U?$pair@$$CBV?$basic_string@DU?$char_traits@D@std@@V?$allocator@D@2@@std@@V12@@std@@PAX@std@@@std@@@std@@QAEPAU?$_Tree_node@U?$pair@$$CBV?$basic_string@DU?$char_traits@D@std@@V?$allocator@D@2@@std@@V12@@std@@PAX@2@I@Z 10024ff0 f i NPFriends.obj
 0001:00024020       ?allocate@?$allocator@U?$_Tree_node@U?$pair@$$CBV?$basic_string@DU?$char_traits@D@std@@V?$allocator@D@2@@std@@V12@@std@@PAX@std@@@std@@QAEPAU?$_Tree_node@U?$pair@$$CBV?$basic_string@DU?$char_traits@D@std@@V?$allocator@D@2@@std@@V12@@std@@PAX@2@I@Z 10025020 f i NPFriends.obj
 0001:00024050       ?allocate@?$libc_allocator_with_realloc@U?$pair@$$CB_KUFriendState@@@std@@@google@@QAEPAU?$pair@$$CB_KUFriendState@@@std@@IPBU34@@Z 10025050 f i NPFriends.obj
 0001:00024080       ?begin@?$_Tree@V?$_Tmap_traits@V?$basic_string@DU?$char_traits@D@std@@V?$allocator@D@2@@std@@V12@U?$less@V?$basic_string@DU?$char_traits@D@std@@V?$allocator@D@2@@std@@@2@V?$allocator@U?$pair@$$CBV?$basic_string@DU?$char_traits@D@std@@V?$allocator@D@2@@std@@V12@@std@@@2@$0A@@std@@@std@@QAE?AV?$_Tree_iterator@V?$_Tree_val@U?$_Tree_simple_types@U?$pair@$$CBV?$basic_string@DU?$char_traits@D@std@@V?$allocator@D@2@@std@@V12@@std@@@std@@@std@@@2@XZ 10025080 f i NPFriends.obj
 0001:000240c0       ?begin@?$dense_hashtable@U?$pair@$$CB_KUFriendState@@@std@@_KV?$hash_compare@_KU?$less@_K@std@@@stdext@@USelectKey@?$dense_hash_map@_KUFriendState@@V?$hash_compare@_KU?$less@_K@std@@@stdext@@U?$equal_to@_K@std@@V?$libc_allocator_with_realloc@U?$pair@$$CB_KUFriendState@@@std@@@google@@@google@@USetKey@67@U?$equal_to@_K@2@V?$libc_allocator_with_realloc@U?$pair@$$CB_KUFriendState@@@std@@@7@@google@@QBE?AU?$dense_hashtable_const_iterator@U?$pair@$$CB_KUFriendState@@@std@@_KV?$hash_compare@_KU?$less@_K@std@@@stdext@@USelectKey@?$dense_hash_map@_KUFriendState@@V?$hash_compare@_KU?$less@_K@std@@@stdext@@U?$equal_to@_K@std@@V?$libc_allocator_with_realloc@U?$pair@$$CB_KUFriendState@@@std@@@google@@@google@@USetKey@67@U?$equal_to@_K@2@V?$libc_allocator_with_realloc@U?$pair@$$CB_KUFriendState@@@std@@@7@@2@XZ 100250c0 f i NPFriends.obj
 0001:00024120       ?bucket_count@?$dense_hashtable@U?$pair@$$CB_KUFriendState@@@std@@_KV?$hash_compare@_KU?$less@_K@std@@@stdext@@USelectKey@?$dense_hash_map@_KUFriendState@@V?$hash_compare@_KU?$less@_K@std@@@stdext@@U?$equal_to@_K@std@@V?$libc_allocator_with_realloc@U?$pair@$$CB_KUFriendState@@@std@@@google@@@google@@USetKey@67@U?$equal_to@_K@2@V?$libc_allocator_with_realloc@U?$pair@$$CB_KUFriendState@@@std@@@7@@google@@QBEIXZ 10025120 f i NPFriends.obj
 0001:00024140       ?clear@?$_Tree@V?$_Tmap_traits@V?$basic_string@DU?$char_traits@D@std@@V?$allocator@D@2@@std@@V12@U?$less@V?$basic_string@DU?$char_traits@D@std@@V?$allocator@D@2@@std@@@2@V?$allocator@U?$pair@$$CBV?$basic_string@DU?$char_traits@D@std@@V?$allocator@D@2@@std@@V12@@std@@@2@$0A@@std@@@std@@QAEXXZ 10025140 f i NPFriends.obj
 0001:000241c0       ?clear_deleted@?$dense_hashtable@U?$pair@$$CB_KUFriendState@@@std@@_KV?$hash_compare@_KU?$less@_K@std@@@stdext@@USelectKey@?$dense_hash_map@_KUFriendState@@V?$hash_compare@_KU?$less@_K@std@@@stdext@@U?$equal_to@_K@std@@V?$libc_allocator_with_realloc@U?$pair@$$CB_KUFriendState@@@std@@@google@@@google@@USetKey@67@U?$equal_to@_K@2@V?$libc_allocator_with_realloc@U?$pair@$$CB_KUFriendState@@@std@@@7@@google@@AAE_NAAU?$dense_hashtable_const_iterator@U?$pair@$$CB_KUFriendState@@@std@@_KV?$hash_compare@_KU?$less@_K@std@@@stdext@@USelectKey@?$dense_hash_map@_KUFriendState@@V?$hash_compare@_KU?$less@_K@std@@@stdext@@U?$equal_to@_K@std@@V?$libc_allocator_with_realloc@U?$pair@$$CB_KUFriendState@@@std@@@google@@@google@@USetKey@67@U?$equal_to@_K@2@V?$libc_allocator_with_realloc@U?$pair@$$CB_KUFriendState@@@std@@@7@@2@@Z 100251c0 f i NPFriends.obj
 0001:000241f0       ?clear_to_size@?$dense_hashtable@U?$pair@$$CB_KUFriendState@@@std@@_KV?$hash_compare@_KU?$less@_K@std@@@stdext@@USelectKey@?$dense_hash_map@_KUFriendState@@V?$hash_compare@_KU?$less@_K@std@@@stdext@@U?$equal_to@_K@std@@V?$libc_allocator_with_realloc@U?$pair@$$CB_KUFriendState@@@std@@@google@@@google@@USetKey@67@U?$equal_to@_K@2@V?$libc_allocator_with_realloc@U?$pair@$$CB_KUFriendState@@@std@@@7@@google@@AAEXI@Z 100251f0 f i NPFriends.obj
 0001:000242f0       ?compare@?$basic_string@DU?$char_traits@D@std@@V?$allocator@D@2@@std@@QBEHABV12@@Z 100252f0 f i NPFriends.obj
 0001:00024340       ?compare@?$basic_string@DU?$char_traits@D@std@@V?$allocator@D@2@@std@@QBEHIIPBDI@Z 10025340 f i NPFriends.obj
 0001:00024430       ?compare@?$char_traits@D@std@@SAHPBD0I@Z 10025430 f i NPFriends.obj
 0001:00024480       ?consider_shrink@?$sh_hashtable_settings@_KV?$hash_compare@_KU?$less@_K@std@@@stdext@@I$03@@QBE_NXZ 10025480 f i NPFriends.obj
 0001:000244a0       ?copy_from@?$dense_hashtable@U?$pair@$$CB_KUFriendState@@@std@@_KV?$hash_compare@_KU?$less@_K@std@@@stdext@@USelectKey@?$dense_hash_map@_KUFriendState@@V?$hash_compare@_KU?$less@_K@std@@@stdext@@U?$equal_to@_K@std@@V?$libc_allocator_with_realloc@U?$pair@$$CB_KUFriendState@@@std@@@google@@@google@@USetKey@67@U?$equal_to@_K@2@V?$libc_allocator_with_realloc@U?$pair@$$CB_KUFriendState@@@std@@@7@@google@@AAEXABV12@I@Z 100254a0 f i NPFriends.obj
 0001:000245f0       ?deallocate@?$_Wrap_alloc@V?$allocator@U?$_Tree_node@U?$pair@$$CBV?$basic_string@DU?$char_traits@D@std@@V?$allocator@D@2@@std@@V12@@std@@PAX@std@@@std@@@std@@QAEXPAU?$_Tree_node@U?$pair@$$CBV?$basic_string@DU?$char_traits@D@std@@V?$allocator@D@2@@std@@V12@@std@@PAX@2@I@Z 100255f0 f i NPFriends.obj
 0001:00024620       ?deallocate@?$allocator@U?$_Tree_node@U?$pair@$$CBV?$basic_string@DU?$char_traits@D@std@@V?$allocator@D@2@@std@@V12@@std@@PAX@std@@@std@@QAEXPAU?$_Tree_node@U?$pair@$$CBV?$basic_string@DU?$char_traits@D@std@@V?$allocator@D@2@@std@@V12@@std@@PAX@2@I@Z 10025620 f i NPFriends.obj
 0001:00024650       ?deallocate@?$libc_allocator_with_realloc@U?$pair@$$CB_KUFriendState@@@std@@@google@@QAEXPAU?$pair@$$CB_KUFriendState@@@std@@I@Z 10025650 f i NPFriends.obj
 0001:00024680       ?destroy_buckets@?$dense_hashtable@U?$pair@$$CB_KUFriendState@@@std@@_KV?$hash_compare@_KU?$less@_K@std@@@stdext@@USelectKey@?$dense_hash_map@_KUFriendState@@V?$hash_compare@_KU?$less@_K@std@@@stdext@@U?$equal_to@_K@std@@V?$libc_allocator_with_realloc@U?$pair@$$CB_KUFriendState@@@std@@@google@@@google@@USetKey@67@U?$equal_to@_K@2@V?$libc_allocator_with_realloc@U?$pair@$$CB_KUFriendState@@@std@@@7@@google@@AAEXII@Z 10025680 f i NPFriends.obj
 0001:000246e0       ?end@?$_Tree@V?$_Tmap_traits@V?$basic_string@DU?$char_traits@D@std@@V?$allocator@D@2@@std@@V12@U?$less@V?$basic_string@DU?$char_traits@D@std@@V?$allocator@D@2@@std@@@2@V?$allocator@U?$pair@$$CBV?$basic_string@DU?$char_traits@D@std@@V?$allocator@D@2@@std@@V12@@std@@@2@$0A@@std@@@std@@QAE?AV?$_Tree_iterator@V?$_Tree_val@U?$_Tree_simple_types@U?$pair@$$CBV?$basic_string@DU?$char_traits@D@std@@V?$allocator@D@2@@std@@V12@@std@@@std@@@std@@@2@XZ 100256e0 f i NPFriends.obj
 0001:00024720       ?end@?$dense_hashtable@U?$pair@$$CB_KUFriendState@@@std@@_KV?$hash_compare@_KU?$less@_K@std@@@stdext@@USelectKey@?$dense_hash_map@_KUFriendState@@V?$hash_compare@_KU?$less@_K@std@@@stdext@@U?$equal_to@_K@std@@V?$libc_allocator_with_realloc@U?$pair@$$CB_KUFriendState@@@std@@@google@@@google@@USetKey@67@U?$equal_to@_K@2@V?$libc_allocator_with_realloc@U?$pair@$$CB_KUFriendState@@@std@@@7@@google@@QBE?AU?$dense_hashtable_const_iterator@U?$pair@$$CB_KUFriendState@@@std@@_KV?$hash_compare@_KU?$less@_K@std@@@stdext@@USelectKey@?$dense_hash_map@_KUFriendState@@V?$hash_compare@_KU?$less@_K@std@@@stdext@@U?$equal_to@_K@std@@V?$libc_allocator_with_realloc@U?$pair@$$CB_KUFriendState@@@std@@@google@@@google@@USetKey@67@U?$equal_to@_K@2@V?$libc_allocator_with_realloc@U?$pair@$$CB_KUFriendState@@@std@@@7@@2@XZ 10025720 f i NPFriends.obj
 0001:00024790       ?enlarge_factor@?$sh_hashtable_settings@_KV?$hash_compare@_KU?$less@_K@std@@@stdext@@I$03@@QBEMXZ 10025790 f i NPFriends.obj
 0001:000247b0       ?enlarge_size@?$sh_hashtable_settings@_KV?$hash_compare@_KU?$less@_K@std@@@stdext@@I$03@@QBEII@Z 100257b0 f i NPFriends.obj
 0001:00024830       ?enlarge_threshold@?$sh_hashtable_settings@_KV?$hash_compare@_KU?$less@_K@std@@@stdext@@I$03@@QBEIXZ 10025830 f i NPFriends.obj
 0001:00024850       ?equal_range@?$_Tree@V?$_Tmap_traits@V?$basic_string@DU?$char_traits@D@std@@V?$allocator@D@2@@std@@V12@U?$less@V?$basic_string@DU?$char_traits@D@std@@V?$allocator@D@2@@std@@@2@V?$allocator@U?$pair@$$CBV?$basic_string@DU?$char_traits@D@std@@V?$allocator@D@2@@std@@V12@@std@@@2@$0A@@std@@@std@@QAE?AU?$pair@V?$_Tree_iterator@V?$_Tree_val@U?$_Tree_simple_types@U?$pair@$$CBV?$basic_string@DU?$char_traits@D@std@@V?$allocator@D@2@@std@@V12@@std@@@std@@@std@@@std@@V12@@2@ABV?$basic_string@DU?$char_traits@D@std@@V?$allocator@D@2@@2@@Z 10025850 f i NPFriends.obj
 0001:00024890       ?equals@?$dense_hashtable@U?$pair@$$CB_KUFriendState@@@std@@_KV?$hash_compare@_KU?$less@_K@std@@@stdext@@USelectKey@?$dense_hash_map@_KUFriendState@@V?$hash_compare@_KU?$less@_K@std@@@stdext@@U?$equal_to@_K@std@@V?$libc_allocator_with_realloc@U?$pair@$$CB_KUFriendState@@@std@@@google@@@google@@USetKey@67@U?$equal_to@_K@2@V?$libc_allocator_with_realloc@U?$pair@$$CB_KUFriendState@@@std@@@7@@google@@ABE_NAB_K0@Z 10025890 f i NPFriends.obj
 0001:000248d0       ?equals@KeyInfo@?$dense_hashtable@U?$pair@$$CB_KUFriendState@@@std@@_KV?$hash_compare@_KU?$less@_K@std@@@stdext@@USelectKey@?$dense_hash_map@_KUFriendState@@V?$hash_compare@_KU?$less@_K@std@@@stdext@@U?$equal_to@_K@std@@V?$libc_allocator_with_realloc@U?$pair@$$CB_KUFriendState@@@std@@@google@@@google@@USetKey@67@U?$equal_to@_K@2@V?$libc_allocator_with_realloc@U?$pair@$$CB_KUFriendState@@@std@@@7@@google@@QBE_NAB_K0@Z 100258d0 f i NPFriends.obj
 0001:00024910       ?erase@?$_Tree@V?$_Tmap_traits@V?$basic_string@DU?$char_traits@D@std@@V?$allocator@D@2@@std@@V12@U?$less@V?$basic_string@DU?$char_traits@D@std@@V?$allocator@D@2@@std@@@2@V?$allocator@U?$pair@$$CBV?$basic_string@DU?$char_traits@D@std@@V?$allocator@D@2@@std@@V12@@std@@@2@$0A@@std@@@std@@QAE?AV?$_Tree_iterator@V?$_Tree_val@U?$_Tree_simple_types@U?$pair@$$CBV?$basic_string@DU?$char_traits@D@std@@V?$allocator@D@2@@std@@V12@@std@@@std@@@std@@@2@V?$_Tree_const_iterator@V?$_Tree_val@U?$_Tree_simple_types@U?$pair@$$CBV?$basic_string@DU?$char_traits@D@std@@V?$allocator@D@2@@std@@V12@@std@@@std@@@std@@@2@0@Z 10025910 f i NPFriends.obj
 0001:000249f0       ?erase@?$_Tree@V?$_Tmap_traits@V?$basic_string@DU?$char_traits@D@std@@V?$allocator@D@2@@std@@V12@U?$less@V?$basic_string@DU?$char_traits@D@std@@V?$allocator@D@2@@std@@@2@V?$allocator@U?$pair@$$CBV?$basic_string@DU?$char_traits@D@std@@V?$allocator@D@2@@std@@V12@@std@@@2@$0A@@std@@@std@@QAE?AV?$_Tree_iterator@V?$_Tree_val@U?$_Tree_simple_types@U?$pair@$$CBV?$basic_string@DU?$char_traits@D@std@@V?$allocator@D@2@@std@@V12@@std@@@std@@@std@@@2@V?$_Tree_const_iterator@V?$_Tree_val@U?$_Tree_simple_types@U?$pair@$$CBV?$basic_string@DU?$char_traits@D@std@@V?$allocator@D@2@@std@@V12@@std@@@std@@@std@@@2@@Z 100259f0 f i NPFriends.obj
 0001:00025370       ?erase@?$_Tree@V?$_Tmap_traits@V?$basic_string@DU?$char_traits@D@std@@V?$allocator@D@2@@std@@V12@U?$less@V?$basic_string@DU?$char_traits@D@std@@V?$allocator@D@2@@std@@@2@V?$allocator@U?$pair@$$CBV?$basic_string@DU?$char_traits@D@std@@V?$allocator@D@2@@std@@V12@@std@@@2@$0A@@std@@@std@@QAEIABV?$basic_string@DU?$char_traits@D@std@@V?$allocator@D@2@@2@@Z 10026370 f i NPFriends.obj
 0001:00025400       ?filedata@FriendsGetUserAvatarResultMessage@@QBEABV?$basic_string@DU?$char_traits@D@std@@V?$allocator@D@2@@std@@XZ 10026400 f i NPFriends.obj
 0001:00025420       ?fill_range_with_empty@?$dense_hashtable@U?$pair@$$CB_KUFriendState@@@std@@_KV?$hash_compare@_KU?$less@_K@std@@@stdext@@USelectKey@?$dense_hash_map@_KUFriendState@@V?$hash_compare@_KU?$less@_K@std@@@stdext@@U?$equal_to@_K@std@@V?$libc_allocator_with_realloc@U?$pair@$$CB_KUFriendState@@@std@@@google@@@google@@USetKey@67@U?$equal_to@_K@2@V?$libc_allocator_with_realloc@U?$pair@$$CB_KUFriendState@@@std@@@7@@google@@AAEXPAU?$pair@$$CB_KUFriendState@@@std@@0@Z 10026420 f i NPFriends.obj
 0001:00025460       ?find@?$_Tree@V?$_Tmap_traits@V?$basic_string@DU?$char_traits@D@std@@V?$allocator@D@2@@std@@V12@U?$less@V?$basic_string@DU?$char_traits@D@std@@V?$allocator@D@2@@std@@@2@V?$allocator@U?$pair@$$CBV?$basic_string@DU?$char_traits@D@std@@V?$allocator@D@2@@std@@V12@@std@@@2@$0A@@std@@@std@@QAE?AV?$_Tree_iterator@V?$_Tree_val@U?$_Tree_simple_types@U?$pair@$$CBV?$basic_string@DU?$char_traits@D@std@@V?$allocator@D@2@@std@@V12@@std@@@std@@@std@@@2@ABV?$basic_string@DU?$char_traits@D@std@@V?$allocator@D@2@@2@@Z 10026460 f i NPFriends.obj
 0001:00025530       ?find_position@?$dense_hashtable@U?$pair@$$CB_KUFriendState@@@std@@_KV?$hash_compare@_KU?$less@_K@std@@@stdext@@USelectKey@?$dense_hash_map@_KUFriendState@@V?$hash_compare@_KU?$less@_K@std@@@stdext@@U?$equal_to@_K@std@@V?$libc_allocator_with_realloc@U?$pair@$$CB_KUFriendState@@@std@@@google@@@google@@USetKey@67@U?$equal_to@_K@2@V?$libc_allocator_with_realloc@U?$pair@$$CB_KUFriendState@@@std@@@7@@google@@ABE?AU?$pair@II@std@@AB_K@Z 10026530 f i NPFriends.obj
 0001:000256d0       ?friend_@FriendsPresenceMessage@@QBE_KXZ 100266d0 f i NPFriends.obj
 0001:00025700       ?friends@FriendsRosterMessage@@QBEABVFriendDetails@@H@Z 10026700 f i NPFriends.obj
 0001:00025730       ?friends_size@FriendsRosterMessage@@QBEHXZ 10026730 f i NPFriends.obj
 0001:00025760       ?get_key@?$dense_hashtable@U?$pair@$$CB_KUFriendState@@@std@@_KV?$hash_compare@_KU?$less@_K@std@@@stdext@@USelectKey@?$dense_hash_map@_KUFriendState@@V?$hash_compare@_KU?$less@_K@std@@@stdext@@U?$equal_to@_K@std@@V?$libc_allocator_with_realloc@U?$pair@$$CB_KUFriendState@@@std@@@google@@@google@@USetKey@67@U?$equal_to@_K@2@V?$libc_allocator_with_realloc@U?$pair@$$CB_KUFriendState@@@std@@@7@@google@@ABEAB_KABU?$pair@$$CB_KUFriendState@@@std@@@Z 10026760 f i NPFriends.obj
 0001:00025790       ?get_key@KeyInfo@?$dense_hashtable@U?$pair@$$CB_KUFriendState@@@std@@_KV?$hash_compare@_KU?$less@_K@std@@@stdext@@USelectKey@?$dense_hash_map@_KUFriendState@@V?$hash_compare@_KU?$less@_K@std@@@stdext@@U?$equal_to@_K@std@@V?$libc_allocator_with_realloc@U?$pair@$$CB_KUFriendState@@@std@@@google@@@google@@USetKey@67@U?$equal_to@_K@2@V?$libc_allocator_with_realloc@U?$pair@$$CB_KUFriendState@@@std@@@7@@google@@QBEAB_KABU?$pair@$$CB_KUFriendState@@@std@@@Z 10026790 f i NPFriends.obj
 0001:000257c0       ?guid@FriendsGetUserAvatarResultMessage@@QBEHXZ 100267c0 f i NPFriends.obj
 0001:000257e0       ?hash@?$dense_hashtable@U?$pair@$$CB_KUFriendState@@@std@@_KV?$hash_compare@_KU?$less@_K@std@@@stdext@@USelectKey@?$dense_hash_map@_KUFriendState@@V?$hash_compare@_KU?$less@_K@std@@@stdext@@U?$equal_to@_K@std@@V?$libc_allocator_with_realloc@U?$pair@$$CB_KUFriendState@@@std@@@google@@@google@@USetKey@67@U?$equal_to@_K@2@V?$libc_allocator_with_realloc@U?$pair@$$CB_KUFriendState@@@std@@@7@@google@@ABEIAB_K@Z 100267e0 f i NPFriends.obj
 0001:00025810       ?hash@?$sh_hashtable_settings@_KV?$hash_compare@_KU?$less@_K@std@@@stdext@@I$03@@QBEIAB_K@Z 10026810 f i NPFriends.obj
 0001:00025840       ?inc_num_ht_copies@?$sh_hashtable_settings@_KV?$hash_compare@_KU?$less@_K@std@@@stdext@@I$03@@QAEXXZ 10026840 f i NPFriends.obj
 0001:00025870       ?insert_at@?$dense_hashtable@U?$pair@$$CB_KUFriendState@@@std@@_KV?$hash_compare@_KU?$less@_K@std@@@stdext@@USelectKey@?$dense_hash_map@_KUFriendState@@V?$hash_compare@_KU?$less@_K@std@@@stdext@@U?$equal_to@_K@std@@V?$libc_allocator_with_realloc@U?$pair@$$CB_KUFriendState@@@std@@@google@@@google@@USetKey@67@U?$equal_to@_K@2@V?$libc_allocator_with_realloc@U?$pair@$$CB_KUFriendState@@@std@@@7@@google@@AAE?AU?$dense_hashtable_iterator@U?$pair@$$CB_KUFriendState@@@std@@_KV?$hash_compare@_KU?$less@_K@std@@@stdext@@USelectKey@?$dense_hash_map@_KUFriendState@@V?$hash_compare@_KU?$less@_K@std@@@stdext@@U?$equal_to@_K@std@@V?$libc_allocator_with_realloc@U?$pair@$$CB_KUFriendState@@@std@@@google@@@google@@USetKey@67@U?$equal_to@_K@2@V?$libc_allocator_with_realloc@U?$pair@$$CB_KUFriendState@@@std@@@7@@2@ABU?$pair@$$CB_KUFriendState@@@std@@I@Z 10026870 f i NPFriends.obj
 0001:000259d0       ?insert_noresize@?$dense_hashtable@U?$pair@$$CB_KUFriendState@@@std@@_KV?$hash_compare@_KU?$less@_K@std@@@stdext@@USelectKey@?$dense_hash_map@_KUFriendState@@V?$hash_compare@_KU?$less@_K@std@@@stdext@@U?$equal_to@_K@std@@V?$libc_allocator_with_realloc@U?$pair@$$CB_KUFriendState@@@std@@@google@@@google@@USetKey@67@U?$equal_to@_K@2@V?$libc_allocator_with_realloc@U?$pair@$$CB_KUFriendState@@@std@@@7@@google@@AAE?AU?$pair@U?$dense_hashtable_iterator@U?$pair@$$CB_KUFriendState@@@std@@_KV?$hash_compare@_KU?$less@_K@std@@@stdext@@USelectKey@?$dense_hash_map@_KUFriendState@@V?$hash_compare@_KU?$less@_K@std@@@stdext@@U?$equal_to@_K@std@@V?$libc_allocator_with_realloc@U?$pair@$$CB_KUFriendState@@@std@@@google@@@google@@USetKey@67@U?$equal_to@_K@2@V?$libc_allocator_with_realloc@U?$pair@$$CB_KUFriendState@@@std@@@7@@google@@_N@std@@ABU?$pair@$$CB_KUFriendState@@@4@@Z 100269d0 f i NPFriends.obj
 0001:00025ae0       ?key@FriendsPresence@@QBEABV?$basic_string@DU?$char_traits@D@std@@V?$allocator@D@2@@std@@XZ 10026ae0 f i NPFriends.obj
 0001:00025b00       ?key_comp@?$_Tree@V?$_Tmap_traits@V?$basic_string@DU?$char_traits@D@std@@V?$allocator@D@2@@std@@V12@U?$less@V?$basic_string@DU?$char_traits@D@std@@V?$allocator@D@2@@std@@@2@V?$allocator@U?$pair@$$CBV?$basic_string@DU?$char_traits@D@std@@V?$allocator@D@2@@std@@V12@@std@@@2@$0A@@std@@@std@@QBE?AU?$less@V?$basic_string@DU?$char_traits@D@std@@V?$allocator@D@2@@std@@@2@XZ 10026b00 f i NPFriends.obj
 0001:00025b30       ?lower_bound@?$_Tree@V?$_Tmap_traits@V?$basic_string@DU?$char_traits@D@std@@V?$allocator@D@2@@std@@V12@U?$less@V?$basic_string@DU?$char_traits@D@std@@V?$allocator@D@2@@std@@@2@V?$allocator@U?$pair@$$CBV?$basic_string@DU?$char_traits@D@std@@V?$allocator@D@2@@std@@V12@@std@@@2@$0A@@std@@@std@@QAE?AV?$_Tree_iterator@V?$_Tree_val@U?$_Tree_simple_types@U?$pair@$$CBV?$basic_string@DU?$char_traits@D@std@@V?$allocator@D@2@@std@@V12@@std@@@std@@@std@@@2@ABV?$basic_string@DU?$char_traits@D@std@@V?$allocator@D@2@@2@@Z 10026b30 f i NPFriends.obj
 0001:00025b70       ?max@?$numeric_limits@I@std@@SAIXZ 10026b70 f i NPFriends.obj
 0001:00025b90       ?max_size@?$_Tree@V?$_Tmap_traits@V?$basic_string@DU?$char_traits@D@std@@V?$allocator@D@2@@std@@V12@U?$less@V?$basic_string@DU?$char_traits@D@std@@V?$allocator@D@2@@std@@@2@V?$allocator@U?$pair@$$CBV?$basic_string@DU?$char_traits@D@std@@V?$allocator@D@2@@std@@V12@@std@@@2@$0A@@std@@@std@@QBEIXZ 10026b90 f i NPFriends.obj
 0001:00025bc0       ?max_size@?$_Wrap_alloc@V?$allocator@U?$_Tree_node@U?$pair@$$CBV?$basic_string@DU?$char_traits@D@std@@V?$allocator@D@2@@std@@V12@@std@@PAX@std@@@std@@@std@@QBEIXZ 10026bc0 f i NPFriends.obj
 0001:00025bf0       ?max_size@?$allocator@U?$_Tree_node@U?$pair@$$CBV?$basic_string@DU?$char_traits@D@std@@V?$allocator@D@2@@std@@V12@@std@@PAX@std@@@std@@QBEIXZ 10026bf0 f i NPFriends.obj
 0001:00025c10       ?max_size@?$allocator_traits@V?$allocator@U?$_Tree_node@U?$pair@$$CBV?$basic_string@DU?$char_traits@D@std@@V?$allocator@D@2@@std@@V12@@std@@PAX@std@@@std@@@std@@SAIABV?$allocator@U?$_Tree_node@U?$pair@$$CBV?$basic_string@DU?$char_traits@D@std@@V?$allocator@D@2@@std@@V12@@std@@PAX@std@@@2@@Z 10026c10 f i NPFriends.obj
 0001:00025c30       ?max_size@?$dense_hashtable@U?$pair@$$CB_KUFriendState@@@std@@_KV?$hash_compare@_KU?$less@_K@std@@@stdext@@USelectKey@?$dense_hash_map@_KUFriendState@@V?$hash_compare@_KU?$less@_K@std@@@stdext@@U?$equal_to@_K@std@@V?$libc_allocator_with_realloc@U?$pair@$$CB_KUFriendState@@@std@@@google@@@google@@USetKey@67@U?$equal_to@_K@2@V?$libc_allocator_with_realloc@U?$pair@$$CB_KUFriendState@@@std@@@7@@google@@QBEIXZ 10026c30 f i NPFriends.obj
 0001:00025c60       ?max_size@?$libc_allocator_with_realloc@U?$pair@$$CB_KUFriendState@@@std@@@google@@QBEIXZ 10026c60 f i NPFriends.obj
 0001:00025c80       ?maybe_shrink@?$dense_hashtable@U?$pair@$$CB_KUFriendState@@@std@@_KV?$hash_compare@_KU?$less@_K@std@@@stdext@@USelectKey@?$dense_hash_map@_KUFriendState@@V?$hash_compare@_KU?$less@_K@std@@@stdext@@U?$equal_to@_K@std@@V?$libc_allocator_with_realloc@U?$pair@$$CB_KUFriendState@@@std@@@google@@@google@@USetKey@67@U?$equal_to@_K@2@V?$libc_allocator_with_realloc@U?$pair@$$CB_KUFriendState@@@std@@@7@@google@@AAE_NXZ 10026c80 f i NPFriends.obj
 0001:00025e60       ?min_buckets@?$sh_hashtable_settings@_KV?$hash_compare@_KU?$less@_K@std@@@stdext@@I$03@@QAEIII@Z 10026e60 f i NPFriends.obj
 0001:00025f50       ?name@FriendDetails@@QBEABV?$basic_string@DU?$char_traits@D@std@@V?$allocator@D@2@@std@@XZ 10026f50 f i NPFriends.obj
 0001:00025f70       ?npid@FriendDetails@@QBE_KXZ 10026f70 f i NPFriends.obj
 0001:00025fa0       ?pointer_to@?$pointer_traits@PAU?$pair@$$CBV?$basic_string@DU?$char_traits@D@std@@V?$allocator@D@2@@std@@V12@@std@@@std@@SAPAU?$pair@$$CBV?$basic_string@DU?$char_traits@D@std@@V?$allocator@D@2@@std@@V12@@2@AAU32@@Z 10026fa0 f i NPFriends.obj
 0001:00025fd0       ?presence@FriendsPresenceMessage@@QBEABVFriendsPresence@@H@Z 10026fd0 f i NPFriends.obj
 0001:00026000       ?presence_size@FriendsPresenceMessage@@QBEHXZ 10027000 f i NPFriends.obj
 0001:00026030       ?presencestate@FriendsPresenceMessage@@QBEHXZ 10027030 f i NPFriends.obj
 0001:00026050       ?realloc_or_die@?$alloc_impl@V?$libc_allocator_with_realloc@U?$pair@$$CB_KUFriendState@@@std@@@google@@@?$dense_hashtable@U?$pair@$$CB_KUFriendState@@@std@@_KV?$hash_compare@_KU?$less@_K@std@@@stdext@@USelectKey@?$dense_hash_map@_KUFriendState@@V?$hash_compare@_KU?$less@_K@std@@@stdext@@U?$equal_to@_K@std@@V?$libc_allocator_with_realloc@U?$pair@$$CB_KUFriendState@@@std@@@google@@@google@@USetKey@67@U?$equal_to@_K@2@V?$libc_allocator_with_realloc@U?$pair@$$CB_KUFriendState@@@std@@@7@@google@@QAEPAU?$pair@$$CB_KUFriendState@@@std@@PAU45@I@Z 10027050 f i NPFriends.obj
 0001:000260d0       ?reallocate@?$libc_allocator_with_realloc@U?$pair@$$CB_KUFriendState@@@std@@@google@@QAEPAU?$pair@$$CB_KUFriendState@@@std@@PAU34@I@Z 100270d0 f i NPFriends.obj
 0001:00026110       ?reset_thresholds@?$sh_hashtable_settings@_KV?$hash_compare@_KU?$less@_K@std@@@stdext@@I$03@@QAEXI@Z 10027110 f i NPFriends.obj
 0001:00026170       ?resize_delta@?$dense_hashtable@U?$pair@$$CB_KUFriendState@@@std@@_KV?$hash_compare@_KU?$less@_K@std@@@stdext@@USelectKey@?$dense_hash_map@_KUFriendState@@V?$hash_compare@_KU?$less@_K@std@@@stdext@@U?$equal_to@_K@std@@V?$libc_allocator_with_realloc@U?$pair@$$CB_KUFriendState@@@std@@@google@@@google@@USetKey@67@U?$equal_to@_K@2@V?$libc_allocator_with_realloc@U?$pair@$$CB_KUFriendState@@@std@@@7@@google@@AAE_NI@Z 10027170 f i NPFriends.obj
 0001:00026390       ?resize_table@?$dense_hashtable@U?$pair@$$CB_KUFriendState@@@std@@_KV?$hash_compare@_KU?$less@_K@std@@@stdext@@USelectKey@?$dense_hash_map@_KUFriendState@@V?$hash_compare@_KU?$less@_K@std@@@stdext@@U?$equal_to@_K@std@@V?$libc_allocator_with_realloc@U?$pair@$$CB_KUFriendState@@@std@@@google@@@google@@USetKey@67@U?$equal_to@_K@2@V?$libc_allocator_with_realloc@U?$pair@$$CB_KUFriendState@@@std@@@7@@google@@AAEXIIU?$integral_constant@_N$00@2@@Z 10027390 f i NPFriends.obj
 0001:000263e0       ?result@FriendsGetUserAvatarResultMessage@@QBEHXZ 100273e0 f i NPFriends.obj
 0001:00026400       ?select_on_container_copy_construction@?$_Wrap_alloc@V?$allocator@U?$_Tree_node@U?$pair@$$CBV?$basic_string@DU?$char_traits@D@std@@V?$allocator@D@2@@std@@V12@@std@@PAX@std@@@std@@@std@@QBE?AU12@XZ 10027400 f i NPFriends.obj
 0001:00026440       ?select_on_container_copy_construction@?$allocator@U?$_Tree_node@U?$pair@$$CBV?$basic_string@DU?$char_traits@D@std@@V?$allocator@D@2@@std@@V12@@std@@PAX@std@@@std@@QBE?AV12@XZ 10027440 f i NPFriends.obj
 0001:00026470       ?select_on_container_copy_construction@?$allocator_traits@V?$allocator@U?$_Tree_node@U?$pair@$$CBV?$basic_string@DU?$char_traits@D@std@@V?$allocator@D@2@@std@@V12@@std@@PAX@std@@@std@@@std@@SA?AV?$allocator@U?$_Tree_node@U?$pair@$$CBV?$basic_string@DU?$char_traits@D@std@@V?$allocator@D@2@@std@@V12@@std@@PAX@std@@@2@ABV32@@Z 10027470 f i NPFriends.obj
 0001:000264a0       ?set_consider_shrink@?$sh_hashtable_settings@_KV?$hash_compare@_KU?$less@_K@std@@@stdext@@I$03@@QAEX_N@Z 100274a0 f i NPFriends.obj
 0001:000264d0       ?set_empty_key@?$dense_hash_map@_KUFriendState@@V?$hash_compare@_KU?$less@_K@std@@@stdext@@U?$equal_to@_K@std@@V?$libc_allocator_with_realloc@U?$pair@$$CB_KUFriendState@@@std@@@google@@@google@@QAEXAB_K@Z 100274d0 f i NPFriends.obj
 0001:000265e0       ?set_empty_key@?$dense_hashtable@U?$pair@$$CB_KUFriendState@@@std@@_KV?$hash_compare@_KU?$less@_K@std@@@stdext@@USelectKey@?$dense_hash_map@_KUFriendState@@V?$hash_compare@_KU?$less@_K@std@@@stdext@@U?$equal_to@_K@std@@V?$libc_allocator_with_realloc@U?$pair@$$CB_KUFriendState@@@std@@@google@@@google@@USetKey@67@U?$equal_to@_K@2@V?$libc_allocator_with_realloc@U?$pair@$$CB_KUFriendState@@@std@@@7@@google@@QAEXABU?$pair@$$CB_KUFriendState@@@std@@@Z 100275e0 f i NPFriends.obj
 0001:00026680       ?set_enlarge_factor@?$sh_hashtable_settings@_KV?$hash_compare@_KU?$less@_K@std@@@stdext@@I$03@@QAEXM@Z 10027680 f i NPFriends.obj
 0001:000266b0       ?set_enlarge_threshold@?$sh_hashtable_settings@_KV?$hash_compare@_KU?$less@_K@std@@@stdext@@I$03@@QAEXI@Z 100276b0 f i NPFriends.obj
 0001:000266e0       ?set_guid@FriendsGetUserAvatarMessage@@QAEXH@Z 100276e0 f i NPFriends.obj
 0001:00026710       ?set_has_guid@FriendsGetUserAvatarMessage@@AAEXXZ 10027710 f i NPFriends.obj
 0001:00026760       ?set_has_key@FriendsPresence@@AAEXXZ 10027760 f i NPFriends.obj
 0001:000267b0       ?set_has_steamid@FriendsSetSteamIDMessage@@AAEXXZ 100277b0 f i NPFriends.obj
 0001:00026800       ?set_has_value@FriendsPresence@@AAEXXZ 10027800 f i NPFriends.obj
 0001:00026850       ?set_key@FriendsPresence@@QAEXABV?$basic_string@DU?$char_traits@D@std@@V?$allocator@D@2@@std@@@Z 10027850 f i NPFriends.obj
 0001:00026920       ?set_key@FriendsPresence@@QAEXPBD@Z 10027920 f i NPFriends.obj
 0001:000269f0       ?set_shrink_factor@?$sh_hashtable_settings@_KV?$hash_compare@_KU?$less@_K@std@@@stdext@@I$03@@QAEXM@Z 100279f0 f i NPFriends.obj
 0001:00026a20       ?set_shrink_threshold@?$sh_hashtable_settings@_KV?$hash_compare@_KU?$less@_K@std@@@stdext@@I$03@@QAEXI@Z 10027a20 f i NPFriends.obj
 0001:00026a50       ?set_steamid@FriendsSetSteamIDMessage@@QAEX_K@Z 10027a50 f i NPFriends.obj
 0001:00026a90       ?set_use_empty@?$sh_hashtable_settings@_KV?$hash_compare@_KU?$less@_K@std@@@stdext@@I$03@@QAEX_N@Z 10027a90 f i NPFriends.obj
 0001:00026ac0       ?set_value@?$dense_hashtable@U?$pair@$$CB_KUFriendState@@@std@@_KV?$hash_compare@_KU?$less@_K@std@@@stdext@@USelectKey@?$dense_hash_map@_KUFriendState@@V?$hash_compare@_KU?$less@_K@std@@@stdext@@U?$equal_to@_K@std@@V?$libc_allocator_with_realloc@U?$pair@$$CB_KUFriendState@@@std@@@google@@@google@@USetKey@67@U?$equal_to@_K@2@V?$libc_allocator_with_realloc@U?$pair@$$CB_KUFriendState@@@std@@@7@@google@@AAEXPAU?$pair@$$CB_KUFriendState@@@std@@ABU34@@Z 10027ac0 f i NPFriends.obj
 0001:00026b80       ?set_value@FriendsPresence@@QAEXABV?$basic_string@DU?$char_traits@D@std@@V?$allocator@D@2@@std@@@Z 10027b80 f i NPFriends.obj
 0001:00026c50       ?set_value@FriendsPresence@@QAEXPBD@Z 10027c50 f i NPFriends.obj
 0001:00026d20       ?shrink_factor@?$sh_hashtable_settings@_KV?$hash_compare@_KU?$less@_K@std@@@stdext@@I$03@@QBEMXZ 10027d20 f i NPFriends.obj
 0001:00026d40       ?shrink_size@?$sh_hashtable_settings@_KV?$hash_compare@_KU?$less@_K@std@@@stdext@@I$03@@QBEII@Z 10027d40 f i NPFriends.obj
 0001:00026dc0       ?shrink_threshold@?$sh_hashtable_settings@_KV?$hash_compare@_KU?$less@_K@std@@@stdext@@I$03@@QBEIXZ 10027dc0 f i NPFriends.obj
 0001:00026de0       ?size@?$RepeatedPtrField@VFriendDetails@@@protobuf@google@@QBEHXZ 10027de0 f i NPFriends.obj
 0001:00026e10       ?size@?$RepeatedPtrField@VFriendsPresence@@@protobuf@google@@QBEHXZ 10027e10 f i NPFriends.obj
 0001:00026e40       ?size@?$_Tree@V?$_Tmap_traits@V?$basic_string@DU?$char_traits@D@std@@V?$allocator@D@2@@std@@V12@U?$less@V?$basic_string@DU?$char_traits@D@std@@V?$allocator@D@2@@std@@@2@V?$allocator@U?$pair@$$CBV?$basic_string@DU?$char_traits@D@std@@V?$allocator@D@2@@std@@V12@@std@@@2@$0A@@std@@@std@@QBEIXZ 10027e40 f i NPFriends.obj
 0001:00026e60       ?size@?$dense_hashtable@U?$pair@$$CB_KUFriendState@@@std@@_KV?$hash_compare@_KU?$less@_K@std@@@stdext@@USelectKey@?$dense_hash_map@_KUFriendState@@V?$hash_compare@_KU?$less@_K@std@@@stdext@@U?$equal_to@_K@std@@V?$libc_allocator_with_realloc@U?$pair@$$CB_KUFriendState@@@std@@@google@@@google@@USetKey@67@U?$equal_to@_K@2@V?$libc_allocator_with_realloc@U?$pair@$$CB_KUFriendState@@@std@@@7@@google@@QBEIXZ 10027e60 f i NPFriends.obj
 0001:00026e90       ?size@RepeatedPtrFieldBase@internal@protobuf@google@@IBEHXZ 10027e90 f i NPFriends.obj
 0001:00026eb0       ?swap@?$dense_hashtable@U?$pair@$$CB_KUFriendState@@@std@@_KV?$hash_compare@_KU?$less@_K@std@@@stdext@@USelectKey@?$dense_hash_map@_KUFriendState@@V?$hash_compare@_KU?$less@_K@std@@@stdext@@U?$equal_to@_K@std@@V?$libc_allocator_with_realloc@U?$pair@$$CB_KUFriendState@@@std@@@google@@@google@@USetKey@67@U?$equal_to@_K@2@V?$libc_allocator_with_realloc@U?$pair@$$CB_KUFriendState@@@std@@@7@@google@@QAEXAAV12@@Z 10027eb0 f i NPFriends.obj
 0001:00027060       ?test_deleted@?$dense_hashtable@U?$pair@$$CB_KUFriendState@@@std@@_KV?$hash_compare@_KU?$less@_K@std@@@stdext@@USelectKey@?$dense_hash_map@_KUFriendState@@V?$hash_compare@_KU?$less@_K@std@@@stdext@@U?$equal_to@_K@std@@V?$libc_allocator_with_realloc@U?$pair@$$CB_KUFriendState@@@std@@@google@@@google@@USetKey@67@U?$equal_to@_K@2@V?$libc_allocator_with_realloc@U?$pair@$$CB_KUFriendState@@@std@@@7@@google@@QBE_NABU?$dense_hashtable_const_iterator@U?$pair@$$CB_KUFriendState@@@std@@_KV?$hash_compare@_KU?$less@_K@std@@@stdext@@USelectKey@?$dense_hash_map@_KUFriendState@@V?$hash_compare@_KU?$less@_K@std@@@stdext@@U?$equal_to@_K@std@@V?$libc_allocator_with_realloc@U?$pair@$$CB_KUFriendState@@@std@@@google@@@google@@USetKey@67@U?$equal_to@_K@2@V?$libc_allocator_with_realloc@U?$pair@$$CB_KUFriendState@@@std@@@7@@2@@Z 10028060 f i NPFriends.obj
 0001:000270a0       ?test_deleted@?$dense_hashtable@U?$pair@$$CB_KUFriendState@@@std@@_KV?$hash_compare@_KU?$less@_K@std@@@stdext@@USelectKey@?$dense_hash_map@_KUFriendState@@V?$hash_compare@_KU?$less@_K@std@@@stdext@@U?$equal_to@_K@std@@V?$libc_allocator_with_realloc@U?$pair@$$CB_KUFriendState@@@std@@@google@@@google@@USetKey@67@U?$equal_to@_K@2@V?$libc_allocator_with_realloc@U?$pair@$$CB_KUFriendState@@@std@@@7@@google@@QBE_NABU?$dense_hashtable_iterator@U?$pair@$$CB_KUFriendState@@@std@@_KV?$hash_compare@_KU?$less@_K@std@@@stdext@@USelectKey@?$dense_hash_map@_KUFriendState@@V?$hash_compare@_KU?$less@_K@std@@@stdext@@U?$equal_to@_K@std@@V?$libc_allocator_with_realloc@U?$pair@$$CB_KUFriendState@@@std@@@google@@@google@@USetKey@67@U?$equal_to@_K@2@V?$libc_allocator_with_realloc@U?$pair@$$CB_KUFriendState@@@std@@@7@@2@@Z 100280a0 f i NPFriends.obj
 0001:000270e0       ?test_deleted@?$dense_hashtable@U?$pair@$$CB_KUFriendState@@@std@@_KV?$hash_compare@_KU?$less@_K@std@@@stdext@@USelectKey@?$dense_hash_map@_KUFriendState@@V?$hash_compare@_KU?$less@_K@std@@@stdext@@U?$equal_to@_K@std@@V?$libc_allocator_with_realloc@U?$pair@$$CB_KUFriendState@@@std@@@google@@@google@@USetKey@67@U?$equal_to@_K@2@V?$libc_allocator_with_realloc@U?$pair@$$CB_KUFriendState@@@std@@@7@@google@@QBE_NI@Z 100280e0 f i NPFriends.obj
 0001:00027130       ?test_deleted_key@?$dense_hashtable@U?$pair@$$CB_KUFriendState@@@std@@_KV?$hash_compare@_KU?$less@_K@std@@@stdext@@USelectKey@?$dense_hash_map@_KUFriendState@@V?$hash_compare@_KU?$less@_K@std@@@stdext@@U?$equal_to@_K@std@@V?$libc_allocator_with_realloc@U?$pair@$$CB_KUFriendState@@@std@@@google@@@google@@USetKey@67@U?$equal_to@_K@2@V?$libc_allocator_with_realloc@U?$pair@$$CB_KUFriendState@@@std@@@7@@google@@ABE_NAB_K@Z 10028130 f i NPFriends.obj
 0001:00027190       ?test_empty@?$dense_hashtable@U?$pair@$$CB_KUFriendState@@@std@@_KV?$hash_compare@_KU?$less@_K@std@@@stdext@@USelectKey@?$dense_hash_map@_KUFriendState@@V?$hash_compare@_KU?$less@_K@std@@@stdext@@U?$equal_to@_K@std@@V?$libc_allocator_with_realloc@U?$pair@$$CB_KUFriendState@@@std@@@google@@@google@@USetKey@67@U?$equal_to@_K@2@V?$libc_allocator_with_realloc@U?$pair@$$CB_KUFriendState@@@std@@@7@@google@@QBE_NABU?$dense_hashtable_const_iterator@U?$pair@$$CB_KUFriendState@@@std@@_KV?$hash_compare@_KU?$less@_K@std@@@stdext@@USelectKey@?$dense_hash_map@_KUFriendState@@V?$hash_compare@_KU?$less@_K@std@@@stdext@@U?$equal_to@_K@std@@V?$libc_allocator_with_realloc@U?$pair@$$CB_KUFriendState@@@std@@@google@@@google@@USetKey@67@U?$equal_to@_K@2@V?$libc_allocator_with_realloc@U?$pair@$$CB_KUFriendState@@@std@@@7@@2@@Z 10028190 f i NPFriends.obj
 0001:000271e0       ?test_empty@?$dense_hashtable@U?$pair@$$CB_KUFriendState@@@std@@_KV?$hash_compare@_KU?$less@_K@std@@@stdext@@USelectKey@?$dense_hash_map@_KUFriendState@@V?$hash_compare@_KU?$less@_K@std@@@stdext@@U?$equal_to@_K@std@@V?$libc_allocator_with_realloc@U?$pair@$$CB_KUFriendState@@@std@@@google@@@google@@USetKey@67@U?$equal_to@_K@2@V?$libc_allocator_with_realloc@U?$pair@$$CB_KUFriendState@@@std@@@7@@google@@QBE_NABU?$dense_hashtable_iterator@U?$pair@$$CB_KUFriendState@@@std@@_KV?$hash_compare@_KU?$less@_K@std@@@stdext@@USelectKey@?$dense_hash_map@_KUFriendState@@V?$hash_compare@_KU?$less@_K@std@@@stdext@@U?$equal_to@_K@std@@V?$libc_allocator_with_realloc@U?$pair@$$CB_KUFriendState@@@std@@@google@@@google@@USetKey@67@U?$equal_to@_K@2@V?$libc_allocator_with_realloc@U?$pair@$$CB_KUFriendState@@@std@@@7@@2@@Z 100281e0 f i NPFriends.obj
 0001:00027230       ?test_empty@?$dense_hashtable@U?$pair@$$CB_KUFriendState@@@std@@_KV?$hash_compare@_KU?$less@_K@std@@@stdext@@USelectKey@?$dense_hash_map@_KUFriendState@@V?$hash_compare@_KU?$less@_K@std@@@stdext@@U?$equal_to@_K@std@@V?$libc_allocator_with_realloc@U?$pair@$$CB_KUFriendState@@@std@@@google@@@google@@USetKey@67@U?$equal_to@_K@2@V?$libc_allocator_with_realloc@U?$pair@$$CB_KUFriendState@@@std@@@7@@google@@QBE_NI@Z 10028230 f i NPFriends.obj
 0001:00027290       ?use_empty@?$sh_hashtable_settings@_KV?$hash_compare@_KU?$less@_K@std@@@stdext@@I$03@@QBE_NXZ 10028290 f i NPFriends.obj
 0001:000272b0       ?value@FriendsPresence@@QBEABV?$basic_string@DU?$char_traits@D@std@@V?$allocator@D@2@@std@@XZ 100282b0 f i NPFriends.obj
 0001:000272d0       _NP_FriendsConnected       100282d0 f   NPFriends.obj
 0001:000272f0       _NP_GetFriend              100282f0 f   NPFriends.obj
 0001:00027330       _NP_GetFriendName          10028330 f   NPFriends.obj
 0001:000273b0       _NP_GetFriendPresence      100283b0 f   NPFriends.obj
 0001:00027480       _NP_GetFriendRichPresence  10028480 f   NPFriends.obj
 0001:00027610       _NP_GetFriendRichPresenceBody 10028610 f   NPFriends.obj
 0001:000276b0       _NP_GetNumFriends          100286b0 f   NPFriends.obj
 0001:000276e0       _NP_GetUserAvatar          100286e0 f   NPFriends.obj
 0001:00027850       _NP_SetExternalSteamID     10028850 f   NPFriends.obj
 0001:000278e0       _NP_SetRichPresence        100288e0 f   NPFriends.obj
 0001:00027980       _NP_SetRichPresenceBody    10028980 f   NPFriends.obj
 0001:000279d0       _NP_StoreRichPresence      100289d0 f   NPFriends.obj
 0001:00027bf0       ?Messaging_Init@@YAXXZ     10028bf0 f   NPMessaging.obj
 0001:00027c20       ?data@MessagingSendDataMessage@@QBEABV?$basic_string@DU?$char_traits@D@std@@V?$allocator@D@2@@std@@XZ 10028c20 f i NPMessaging.obj
 0001:00027c40       ?npid@MessagingSendDataMessage@@QBE_KXZ 10028c40 f i NPMessaging.obj
 0001:00027c70       ?set_data@MessagingSendDataMessage@@QAEXPBXI@Z 10028c70 f i NPMessaging.obj
 0001:00027d50       ?set_has_data@MessagingSendDataMessage@@AAEXXZ 10028d50 f i NPMessaging.obj
 0001:00027da0       ?set_has_npid@MessagingSendDataMessage@@AAEXXZ 10028da0 f i NPMessaging.obj
 0001:00027df0       ?set_npid@MessagingSendDataMessage@@QAEX_K@Z 10028df0 f i NPMessaging.obj
 0001:00027e30       _NP_RegisterMessageCallback 10028e30 f   NPMessaging.obj
 0001:00027e50       _NP_SendMessage            10028e50 f   NPMessaging.obj
 0001:00027f00       ??$Get@VTypeHandler@?$RepeatedPtrField@VProfileDataResult@@@protobuf@google@@@RepeatedPtrFieldBase@internal@protobuf@google@@IBEABVProfileDataResult@@H@Z 10028f00 f i NPProfiles.obj
 0001:00028030       ??$_Copy_impl@PB_KPA_K@std@@YAPA_KPB_K0PA_K@Z 10029030 f i NPProfiles.obj
 0001:00028080       ??$_Copy_impl@PB_KPA_K@std@@YAPA_KPB_K0PA_KU_Scalar_ptr_iterator_tag@0@@Z 10029080 f i NPProfiles.obj
 0001:000280d0       ??$_Ptr_cat@_K_K@std@@YA?AU_Scalar_ptr_iterator_tag@0@PB_KPA_K@Z 100290d0 f i NPProfiles.obj
 0001:000280f0       ??$_Rechecked@PA_KPA_K@std@@YAAAPA_KAAPA_KPA_K@Z 100290f0 f i NPProfiles.obj
 0001:00028120       ??$_Unchecked@PA_K@std@@YAPA_KPA_K@Z 10029120 f i NPProfiles.obj
 0001:00028140       ??$_Unchecked@PB_K@std@@YAPB_KPB_K@Z 10029140 f i NPProfiles.obj
 0001:00028160       ??$cast@VTypeHandler@?$RepeatedPtrField@VProfileDataResult@@@protobuf@google@@@RepeatedPtrFieldBase@internal@protobuf@google@@CAPAVProfileDataResult@@PAX@Z 10029160 f i NPProfiles.obj
 0001:00028180       ??$copy@QB_KQA_K@std@@YAPA_KPB_K0PA_K@Z 10029180 f i NPProfiles.obj
 0001:000281f0       ??0?$NPAsync@UNPGetProfileDataResult@@@@QAE@XZ 100291f0 f i NPProfiles.obj
 0001:00028220       ??0?$NPAsyncImpl@UNPGetProfileDataResult@@@@QAE@XZ 10029220 f i NPProfiles.obj
 0001:000282b0       ??R?$ElementCopier@_K$0A@@internal@protobuf@google@@QAEXQA_KQB_KH@Z 100292b0 f i NPProfiles.obj
 0001:000282f0       ?Add@?$RepeatedField@_K@protobuf@google@@QAEXAB_K@Z 100292f0 f i NPProfiles.obj
 0001:00028370       ?CopyArray@?$RepeatedField@_K@protobuf@google@@AAEXQA_KQB_KH@Z 10029370 f i NPProfiles.obj
 0001:000283b0       ?Free@?$NPAsyncImpl@UNPGetProfileDataResult@@@@UAEXXZ 100293b0 f i NPProfiles.obj
 0001:00028414       ?Free@?$NPAsyncImpl@UNPGetProfileDataResult@@@@W3AEXXZ 10029414 f i NPProfiles.obj
 0001:00028420       ?Get@?$RepeatedPtrField@VProfileDataResult@@@protobuf@google@@QBEABVProfileDataResult@@H@Z 10029420 f i NPProfiles.obj
 0001:00028680       ?GetResult@?$NPAsyncImpl@UNPGetProfileDataResult@@@@UAEPAUNPGetProfileDataResult@@XZ 10029680 f i NPProfiles.obj
 0001:000286a0       ?GetUserData@?$NPAsyncImpl@UNPGetProfileDataResult@@@@UAEPAXXZ 100296a0 f i NPProfiles.obj
 0001:000286c0       ?HasCompleted@?$NPAsyncImpl@UNPGetProfileDataResult@@@@UAE_NXZ 100296c0 f i NPProfiles.obj
 0001:00028700       ?MoveArray@?$RepeatedField@_K@protobuf@google@@AAEXQA_K0H@Z 10029700 f i NPProfiles.obj
 0001:00028740       ?Reserve@?$RepeatedField@_K@protobuf@google@@QAEXH@Z 10029740 f i NPProfiles.obj
 0001:00028860       ?RunCallback@?$NPAsyncImpl@UNPGetProfileDataResult@@@@UAE_NXZ 10029860 f i NPProfiles.obj
 0001:000288d0       ?SetCallback@?$NPAsyncImpl@UNPGetProfileDataResult@@@@UAEXP6AXPAV?$NPAsync@UNPGetProfileDataResult@@@@@ZPAX@Z 100298d0 f i NPProfiles.obj
 0001:00028910       ?SetResult@?$NPAsyncImpl@UNPGetProfileDataResult@@@@QAEXPAUNPGetProfileDataResult@@@Z 10029910 f i NPProfiles.obj
 0001:00028980       ?Wait@?$NPAsyncImpl@UNPGetProfileDataResult@@@@UAEPAUNPGetProfileDataResult@@XZ 10029980 f i NPProfiles.obj
 0001:000289e0       ?add_npids@FriendsGetProfileDataMessage@@QAEX_K@Z 100299e0 f i NPProfiles.obj
 0001:00028a10       ?npid@ProfileDataResult@@QBE_KXZ 10029a10 f i NPProfiles.obj
 0001:00028a40       ?profile@ProfileDataResult@@QBEABV?$basic_string@DU?$char_traits@D@std@@V?$allocator@D@2@@std@@XZ 10029a40 f i NPProfiles.obj
 0001:00028a60       ?results@FriendsGetProfileDataResultMessage@@QBEABVProfileDataResult@@H@Z 10029a60 f i NPProfiles.obj
 0001:00028a90       ?results_size@FriendsGetProfileDataResultMessage@@QBEHXZ 10029a90 f i NPProfiles.obj
 0001:00028ac0       ?size@?$RepeatedPtrField@VProfileDataResult@@@protobuf@google@@QBEHXZ 10029ac0 f i NPProfiles.obj
 0001:00028af0       _NP_GetProfileData         10029af0 f   NPProfiles.obj
 0001:00028c90       ??$Get@VTypeHandler@?$RepeatedPtrField@VSessionInfo@@@protobuf@google@@@RepeatedPtrFieldBase@internal@protobuf@google@@IBEABVSessionInfo@@H@Z 10029c90 f i NPServers.obj
 0001:00028dc0       ??$cast@VTypeHandler@?$RepeatedPtrField@VSessionInfo@@@protobuf@google@@@RepeatedPtrFieldBase@internal@protobuf@google@@CAPAVSessionInfo@@PAX@Z 10029dc0 f i NPServers.obj
 0001:00028de0       ??0?$NPAsync@VNPCreateSessionResult@@@@QAE@XZ 10029de0 f i NPServers.obj
 0001:00028e10       ??0?$NPAsync@W4EServersResult@@@@QAE@XZ 10029e10 f i NPServers.obj
 0001:00028e40       ??0?$NPAsync@_N@@QAE@XZ    10029e40 f i NPServers.obj
 0001:00028e70       ??0?$NPAsyncImpl@VNPCreateSessionResult@@@@QAE@XZ 10029e70 f i NPServers.obj
 0001:00028f00       ??0?$NPAsyncImpl@W4EServersResult@@@@QAE@XZ 10029f00 f i NPServers.obj
 0001:00028f90       ??0?$NPAsyncImpl@_N@@QAE@XZ 10029f90 f i NPServers.obj
 0001:00029100       ?Free@?$NPAsyncImpl@VNPCreateSessionResult@@@@UAEXXZ 1002a100 f i NPServers.obj
 0001:00029164       ?Free@?$NPAsyncImpl@VNPCreateSessionResult@@@@W3AEXXZ 1002a164 f i NPServers.obj
 0001:00029170       ?Free@?$NPAsyncImpl@W4EServersResult@@@@UAEXXZ 1002a170 f i NPServers.obj
 0001:000291d4       ?Free@?$NPAsyncImpl@W4EServersResult@@@@W3AEXXZ 1002a1d4 f i NPServers.obj
 0001:000291e0       ?Free@?$NPAsyncImpl@_N@@UAEXXZ 1002a1e0 f i NPServers.obj
 0001:00029244       ?Free@?$NPAsyncImpl@_N@@W3AEXXZ 1002a244 f i NPServers.obj
 0001:00029250       ?Get@?$RepeatedPtrField@VSessionInfo@@@protobuf@google@@QBEABVSessionInfo@@H@Z 1002a250 f i NPServers.obj
 0001:00029280       ?GetResult@?$NPAsyncImpl@VNPCreateSessionResult@@@@UAEPAVNPCreateSessionResult@@XZ 1002a280 f i NPServers.obj
 0001:000292a0       ?GetResult@?$NPAsyncImpl@W4EServersResult@@@@UAEPAW4EServersResult@@XZ 1002a2a0 f i NPServers.obj
 0001:000292c0       ?GetResult@?$NPAsyncImpl@_N@@UAEPA_NXZ 1002a2c0 f i NPServers.obj
 0001:00029580       ?GetUserData@?$NPAsyncImpl@VNPCreateSessionResult@@@@UAEPAXXZ 1002a580 f i NPServers.obj
 0001:000295a0       ?GetUserData@?$NPAsyncImpl@W4EServersResult@@@@UAEPAXXZ 1002a5a0 f i NPServers.obj
 0001:000295c0       ?GetUserData@?$NPAsyncImpl@_N@@UAEPAXXZ 1002a5c0 f i NPServers.obj
 0001:000295e0       ?HasCompleted@?$NPAsyncImpl@VNPCreateSessionResult@@@@UAE_NXZ 1002a5e0 f i NPServers.obj
 0001:00029620       ?HasCompleted@?$NPAsyncImpl@W4EServersResult@@@@UAE_NXZ 1002a620 f i NPServers.obj
 0001:00029660       ?HasCompleted@?$NPAsyncImpl@_N@@UAE_NXZ 1002a660 f i NPServers.obj
 0001:000296a0       ?RunCallback@?$NPAsyncImpl@VNPCreateSessionResult@@@@UAE_NXZ 1002a6a0 f i NPServers.obj
 0001:00029710       ?RunCallback@?$NPAsyncImpl@W4EServersResult@@@@UAE_NXZ 1002a710 f i NPServers.obj
 0001:00029780       ?RunCallback@?$NPAsyncImpl@_N@@UAE_NXZ 1002a780 f i NPServers.obj
 0001:000297f0       ?SetCallback@?$NPAsyncImpl@VNPCreateSessionResult@@@@UAEXP6AXPAV?$NPAsync@VNPCreateSessionResult@@@@@ZPAX@Z 1002a7f0 f i NPServers.obj
 0001:00029830       ?SetCallback@?$NPAsyncImpl@W4EServersResult@@@@UAEXP6AXPAV?$NPAsync@W4EServersResult@@@@@ZPAX@Z 1002a830 f i NPServers.obj
 0001:00029870       ?SetCallback@?$NPAsyncImpl@_N@@UAEXP6AXPAV?$NPAsync@_N@@@ZPAX@Z 1002a870 f i NPServers.obj
 0001:000298b0       ?SetResult@?$NPAsyncImpl@VNPCreateSessionResult@@@@QAEXPAVNPCreateSessionResult@@@Z 1002a8b0 f i NPServers.obj
 0001:00029920       ?SetResult@?$NPAsyncImpl@W4EServersResult@@@@QAEXPAW4EServersResult@@@Z 1002a920 f i NPServers.obj
 0001:00029990       ?SetResult@?$NPAsyncImpl@_N@@QAEXPA_N@Z 1002a990 f i NPServers.obj
 0001:00029af0       ?Wait@?$NPAsyncImpl@VNPCreateSessionResult@@@@UAEPAVNPCreateSessionResult@@XZ 1002aaf0 f i NPServers.obj
 0001:00029b50       ?Wait@?$NPAsyncImpl@W4EServersResult@@@@UAEPAW4EServersResult@@XZ 1002ab50 f i NPServers.obj
 0001:00029bb0       ?Wait@?$NPAsyncImpl@_N@@UAEPA_NXZ 1002abb0 f i NPServers.obj
 0001:00029c10       ?address@SessionInfo@@QBEIXZ 1002ac10 f i NPServers.obj
 0001:00029c30       ?hostname@SessionInfo@@QBEABV?$basic_string@DU?$char_traits@D@std@@V?$allocator@D@2@@std@@XZ 1002ac30 f i NPServers.obj
 0001:00029c50       ?mapname@SessionInfo@@QBEABV?$basic_string@DU?$char_traits@D@std@@V?$allocator@D@2@@std@@XZ 1002ac50 f i NPServers.obj
 0001:00029c70       ?maxplayers@SessionInfo@@QBEHXZ 1002ac70 f i NPServers.obj
 0001:00029c90       ?mutable_info@ServersCreateSessionMessage@@QAEPAVSessionInfo@@XZ 1002ac90 f i NPServers.obj
 0001:00029d50       ?npid@SessionInfo@@QBE_KXZ 1002ad50 f i NPServers.obj
 0001:00029d80       ?players@SessionInfo@@QBEHXZ 1002ad80 f i NPServers.obj
 0001:00029da0       ?port@SessionInfo@@QBEHXZ  1002ada0 f i NPServers.obj
 0001:00029dc0       ?result@ServersCreateSessionResultMessage@@QBEHXZ 1002adc0 f i NPServers.obj
 0001:00029de0       ?result@ServersUpdateSessionResultMessage@@QBEHXZ 1002ade0 f i NPServers.obj
 0001:00029e00       ?servers@ServersGetSessionsResultMessage@@QBEABVSessionInfo@@H@Z 1002ae00 f i NPServers.obj
 0001:00029e30       ?servers_size@ServersGetSessionsResultMessage@@QBEHXZ 1002ae30 f i NPServers.obj
 0001:00029e60       ?sessionid@ServersCreateSessionResultMessage@@QBE_KXZ 1002ae60 f i NPServers.obj
 0001:00029e90       ?set_has_hostname@ServersUpdateSessionMessage@@AAEXXZ 1002ae90 f i NPServers.obj
 0001:00029ee0       ?set_has_hostname@SessionInfo@@AAEXXZ 1002aee0 f i NPServers.obj
 0001:00029f30       ?set_has_info@ServersCreateSessionMessage@@AAEXXZ 1002af30 f i NPServers.obj
 0001:00029f80       ?set_has_mapname@ServersUpdateSessionMessage@@AAEXXZ 1002af80 f i NPServers.obj
 0001:00029fd0       ?set_has_mapname@SessionInfo@@AAEXXZ 1002afd0 f i NPServers.obj
 0001:0002a020       ?set_has_maxplayers@ServersUpdateSessionMessage@@AAEXXZ 1002b020 f i NPServers.obj
 0001:0002a070       ?set_has_maxplayers@SessionInfo@@AAEXXZ 1002b070 f i NPServers.obj
 0001:0002a0c0       ?set_has_players@ServersUpdateSessionMessage@@AAEXXZ 1002b0c0 f i NPServers.obj
 0001:0002a110       ?set_has_players@SessionInfo@@AAEXXZ 1002b110 f i NPServers.obj
 0001:0002a160       ?set_has_sessionid@ServersDeleteSessionMessage@@AAEXXZ 1002b160 f i NPServers.obj
 0001:0002a1b0       ?set_has_sessionid@ServersUpdateSessionMessage@@AAEXXZ 1002b1b0 f i NPServers.obj
 0001:0002a200       ?set_has_tags@ServersGetSessionsMessage@@AAEXXZ 1002b200 f i NPServers.obj
 0001:0002a250       ?set_has_version@SessionInfo@@AAEXXZ 1002b250 f i NPServers.obj
 0001:0002a2a0       ?set_hostname@ServersUpdateSessionMessage@@QAEXPBD@Z 1002b2a0 f i NPServers.obj
 0001:0002a370       ?set_hostname@SessionInfo@@QAEXPBD@Z 1002b370 f i NPServers.obj
 0001:0002a440       ?set_mapname@ServersUpdateSessionMessage@@QAEXPBD@Z 1002b440 f i NPServers.obj
 0001:0002a510       ?set_mapname@SessionInfo@@QAEXPBD@Z 1002b510 f i NPServers.obj
 0001:0002a5e0       ?set_maxplayers@ServersUpdateSessionMessage@@QAEXH@Z 1002b5e0 f i NPServers.obj
 0001:0002a610       ?set_maxplayers@SessionInfo@@QAEXH@Z 1002b610 f i NPServers.obj
 0001:0002a640       ?set_players@ServersUpdateSessionMessage@@QAEXH@Z 1002b640 f i NPServers.obj
 0001:0002a670       ?set_players@SessionInfo@@QAEXH@Z 1002b670 f i NPServers.obj
 0001:0002a6a0       ?set_sessionid@ServersDeleteSessionMessage@@QAEX_K@Z 1002b6a0 f i NPServers.obj
 0001:0002a6e0       ?set_sessionid@ServersUpdateSessionMessage@@QAEX_K@Z 1002b6e0 f i NPServers.obj
 0001:0002a720       ?set_tags@ServersGetSessionsMessage@@QAEXPBD@Z 1002b720 f i NPServers.obj
 0001:0002a7f0       ?set_version@SessionInfo@@QAEXH@Z 1002b7f0 f i NPServers.obj
 0001:0002a820       ?size@?$RepeatedPtrField@VSessionInfo@@@protobuf@google@@QBEHXZ 1002b820 f i NPServers.obj
 0001:0002a850       ?version@SessionInfo@@QBEHXZ 1002b850 f i NPServers.obj
 0001:0002a870       _NP_CreateSession          1002b870 f   NPServers.obj
 0001:0002a9d0       _NP_DeleteSession          1002b9d0 f   NPServers.obj
 0001:0002aad0       _NP_GetNumSessions         1002bad0 f   NPServers.obj
 0001:0002aaf0       _NP_GetSessionData         1002baf0 f   NPServers.obj
 0001:0002ab50       _NP_RefreshSessions        1002bb50 f   NPServers.obj
 0001:0002ac40       _NP_UpdateSession          1002bc40 f   NPServers.obj
 0001:0002ada0       ??0?$NPAsync@VNPGetPublisherFileResult@@@@QAE@XZ 1002bda0 f i NPStorage.obj
 0001:0002add0       ??0?$NPAsync@VNPGetUserFileResult@@@@QAE@XZ 1002bdd0 f i NPStorage.obj
 0001:0002ae00       ??0?$NPAsync@VNPWriteUserFileResult@@@@QAE@XZ 1002be00 f i NPStorage.obj
 0001:0002ae30       ??0?$NPAsyncImpl@VNPGetPublisherFileResult@@@@QAE@XZ 1002be30 f i NPStorage.obj
 0001:0002aec0       ??0?$NPAsyncImpl@VNPGetUserFileResult@@@@QAE@XZ 1002bec0 f i NPStorage.obj
 0001:0002af50       ??0?$NPAsyncImpl@VNPWriteUserFileResult@@@@QAE@XZ 1002bf50 f i NPStorage.obj
 0001:0002afe0       ?Free@?$NPAsyncImpl@VNPGetPublisherFileResult@@@@UAEXXZ 1002bfe0 f i NPStorage.obj
 0001:0002b044       ?Free@?$NPAsyncImpl@VNPGetPublisherFileResult@@@@W3AEXXZ 1002c044 f i NPStorage.obj
 0001:0002b050       ?Free@?$NPAsyncImpl@VNPGetUserFileResult@@@@UAEXXZ 1002c050 f i NPStorage.obj
 0001:0002b0b4       ?Free@?$NPAsyncImpl@VNPGetUserFileResult@@@@W3AEXXZ 1002c0b4 f i NPStorage.obj
 0001:0002b0c0       ?Free@?$NPAsyncImpl@VNPWriteUserFileResult@@@@UAEXXZ 1002c0c0 f i NPStorage.obj
 0001:0002b124       ?Free@?$NPAsyncImpl@VNPWriteUserFileResult@@@@W3AEXXZ 1002c124 f i NPStorage.obj
 0001:0002b310       ?GetResult@?$NPAsyncImpl@VNPGetPublisherFileResult@@@@UAEPAVNPGetPublisherFileResult@@XZ 1002c310 f i NPStorage.obj
 0001:0002b330       ?GetResult@?$NPAsyncImpl@VNPGetUserFileResult@@@@UAEPAVNPGetUserFileResult@@XZ 1002c330 f i NPStorage.obj
 0001:0002b350       ?GetResult@?$NPAsyncImpl@VNPWriteUserFileResult@@@@UAEPAVNPWriteUserFileResult@@XZ 1002c350 f i NPStorage.obj
 0001:0002b370       ?GetUserData@?$NPAsyncImpl@VNPGetPublisherFileResult@@@@UAEPAXXZ 1002c370 f i NPStorage.obj
 0001:0002b390       ?GetUserData@?$NPAsyncImpl@VNPGetUserFileResult@@@@UAEPAXXZ 1002c390 f i NPStorage.obj
 0001:0002b3b0       ?GetUserData@?$NPAsyncImpl@VNPWriteUserFileResult@@@@UAEPAXXZ 1002c3b0 f i NPStorage.obj
 0001:0002b5b0       ?HasCompleted@?$NPAsyncImpl@VNPGetPublisherFileResult@@@@UAE_NXZ 1002c5b0 f i NPStorage.obj
 0001:0002b5f0       ?HasCompleted@?$NPAsyncImpl@VNPGetUserFileResult@@@@UAE_NXZ 1002c5f0 f i NPStorage.obj
 0001:0002b630       ?HasCompleted@?$NPAsyncImpl@VNPWriteUserFileResult@@@@UAE_NXZ 1002c630 f i NPStorage.obj
 0001:0002b670       ?RunCallback@?$NPAsyncImpl@VNPGetPublisherFileResult@@@@UAE_NXZ 1002c670 f i NPStorage.obj
 0001:0002b6e0       ?RunCallback@?$NPAsyncImpl@VNPGetUserFileResult@@@@UAE_NXZ 1002c6e0 f i NPStorage.obj
 0001:0002b750       ?RunCallback@?$NPAsyncImpl@VNPWriteUserFileResult@@@@UAE_NXZ 1002c750 f i NPStorage.obj
 0001:0002b7c0       ?SetCallback@?$NPAsyncImpl@VNPGetPublisherFileResult@@@@UAEXP6AXPAV?$NPAsync@VNPGetPublisherFileResult@@@@@ZPAX@Z 1002c7c0 f i NPStorage.obj
 0001:0002b800       ?SetCallback@?$NPAsyncImpl@VNPGetUserFileResult@@@@UAEXP6AXPAV?$NPAsync@VNPGetUserFileResult@@@@@ZPAX@Z 1002c800 f i NPStorage.obj
 0001:0002b840       ?SetCallback@?$NPAsyncImpl@VNPWriteUserFileResult@@@@UAEXP6AXPAV?$NPAsync@VNPWriteUserFileResult@@@@@ZPAX@Z 1002c840 f i NPStorage.obj
 0001:0002b880       ?SetResult@?$NPAsyncImpl@VNPGetPublisherFileResult@@@@QAEXPAVNPGetPublisherFileResult@@@Z 1002c880 f i NPStorage.obj
 0001:0002b8f0       ?SetResult@?$NPAsyncImpl@VNPGetUserFileResult@@@@QAEXPAVNPGetUserFileResult@@@Z 1002c8f0 f i NPStorage.obj
 0001:0002b960       ?SetResult@?$NPAsyncImpl@VNPWriteUserFileResult@@@@QAEXPAVNPWriteUserFileResult@@@Z 1002c960 f i NPStorage.obj
 0001:0002b9d0       ?Wait@?$NPAsyncImpl@VNPGetPublisherFileResult@@@@UAEPAVNPGetPublisherFileResult@@XZ 1002c9d0 f i NPStorage.obj
 0001:0002ba30       ?Wait@?$NPAsyncImpl@VNPGetUserFileResult@@@@UAEPAVNPGetUserFileResult@@XZ 1002ca30 f i NPStorage.obj
 0001:0002ba90       ?Wait@?$NPAsyncImpl@VNPWriteUserFileResult@@@@UAEPAVNPWriteUserFileResult@@XZ 1002ca90 f i NPStorage.obj
 0001:0002bbb0       ?filedata@StoragePublisherFileMessage@@QBEABV?$basic_string@DU?$char_traits@D@std@@V?$allocator@D@2@@std@@XZ 1002cbb0 f i NPStorage.obj
 0001:0002bbd0       ?filedata@StorageUserFileMessage@@QBEABV?$basic_string@DU?$char_traits@D@std@@V?$allocator@D@2@@std@@XZ 1002cbd0 f i NPStorage.obj
 0001:0002bbf0       ?filename@StoragePublisherFileMessage@@QBEABV?$basic_string@DU?$char_traits@D@std@@V?$allocator@D@2@@std@@XZ 1002cbf0 f i NPStorage.obj
 0001:0002bc10       ?filename@StorageUserFileMessage@@QBEABV?$basic_string@DU?$char_traits@D@std@@V?$allocator@D@2@@std@@XZ 1002cc10 f i NPStorage.obj
 0001:0002bc30       ?result@StoragePublisherFileMessage@@QBEHXZ 1002cc30 f i NPStorage.obj
 0001:0002bc50       ?result@StorageUserFileMessage@@QBEHXZ 1002cc50 f i NPStorage.obj
 0001:0002bc70       ?result@StorageWriteUserFileResultMessage@@QBEHXZ 1002cc70 f i NPStorage.obj
 0001:0002bc90       ?set_filedata@StorageWriteUserFileMessage@@QAEXABV?$basic_string@DU?$char_traits@D@std@@V?$allocator@D@2@@std@@@Z 1002cc90 f i NPStorage.obj
 0001:0002bd60       ?set_filename@StorageGetPublisherFileMessage@@QAEXPBD@Z 1002cd60 f i NPStorage.obj
 0001:0002be30       ?set_filename@StorageGetUserFileMessage@@QAEXPBD@Z 1002ce30 f i NPStorage.obj
 0001:0002bf00       ?set_filename@StorageWriteUserFileMessage@@QAEXPBD@Z 1002cf00 f i NPStorage.obj
 0001:0002bfd0       ?set_has_filedata@StorageWriteUserFileMessage@@AAEXXZ 1002cfd0 f i NPStorage.obj
 0001:0002c020       ?set_has_filename@StorageGetPublisherFileMessage@@AAEXXZ 1002d020 f i NPStorage.obj
 0001:0002c070       ?set_has_filename@StorageGetUserFileMessage@@AAEXXZ 1002d070 f i NPStorage.obj
 0001:0002c0c0       ?set_has_filename@StorageWriteUserFileMessage@@AAEXXZ 1002d0c0 f i NPStorage.obj
 0001:0002c110       ?set_has_npid@StorageGetUserFileMessage@@AAEXXZ 1002d110 f i NPStorage.obj
 0001:0002c160       ?set_has_npid@StorageWriteUserFileMessage@@AAEXXZ 1002d160 f i NPStorage.obj
 0001:0002c1b0       ?set_npid@StorageGetUserFileMessage@@QAEX_K@Z 1002d1b0 f i NPStorage.obj
 0001:0002c1f0       ?set_npid@StorageWriteUserFileMessage@@QAEX_K@Z 1002d1f0 f i NPStorage.obj
 0001:0002c230       _NP_GetPublisherFile       1002d230 f   NPStorage.obj
 0001:0002c3a0       _NP_GetUserFile            1002d3a0 f   NPStorage.obj
 0001:0002c520       _NP_SendRandomString       1002d520 f   NPStorage.obj
 0001:0002c5b0       _NP_WriteUserFile          1002d5b0 f   NPStorage.obj
 0001:0002c720       ??$?0AAV?$_Tree_iterator@V?$_Tree_val@U?$_Tree_simple_types@U?$pair@$$CBHPAVNPRPCAsync@@@std@@@std@@@std@@@std@@_N@?$pair@V?$_Tree_iterator@V?$_Tree_val@U?$_Tree_simple_types@U?$pair@$$CBHPAVNPRPCAsync@@@std@@@std@@@std@@@std@@_N@std@@QAE@AAV?$_Tree_iterator@V?$_Tree_val@U?$_Tree_simple_types@U?$pair@$$CBHPAVNPRPCAsync@@@std@@@std@@@std@@@1@$$QA_NPAPAX@Z 1002d720 f i RPC.obj
 0001:0002c770       ??$?0ABHPAVNPRPCAsync@@@?$pair@HPAVNPRPCAsync@@@std@@QAE@ABH$$QAPAVNPRPCAsync@@PAPAX@Z 1002d770 f i RPC.obj
 0001:0002c7c0       ??$?0HPAVNPRPCAsync@@@?$pair@$$CBHPAVNPRPCAsync@@@std@@QAE@$$QAU?$pair@HPAVNPRPCAsync@@@1@PAPAX@Z 1002d7c0 f i RPC.obj
 0001:0002c820       ??$?0V?$_Tree_iterator@V?$_Tree_val@U?$_Tree_simple_types@U?$pair@$$CBHPAVNPRPCAsync@@@std@@@std@@@std@@@std@@_N@?$pair@V?$_Tree_iterator@V?$_Tree_val@U?$_Tree_simple_types@U?$pair@$$CBHPAVNPRPCAsync@@@std@@@std@@@std@@@std@@_N@std@@QAE@$$QAU01@PAPAX@Z 1002d820 f i RPC.obj
 0001:0002c880       ??$?0V?$_Tree_iterator@V?$_Tree_val@U?$_Tree_simple_types@U?$pair@$$CBHPAVNPRPCAsync@@@std@@@std@@@std@@@std@@_N@?$pair@V?$_Tree_iterator@V?$_Tree_val@U?$_Tree_simple_types@U?$pair@$$CBHPAVNPRPCAsync@@@std@@@std@@@std@@@std@@_N@std@@QAE@$$QAV?$_Tree_iterator@V?$_Tree_val@U?$_Tree_simple_types@U?$pair@$$CBHPAVNPRPCAsync@@@std@@@std@@@std@@@1@$$QA_NPAPAX@Z 1002d880 f i RPC.obj
 0001:0002c8d0       ??$_Allocate@PAVNPRPCAsync@@@std@@YAPAPAVNPRPCAsync@@IPAPAV1@@Z 1002d8d0 f i RPC.obj
 0001:0002c930       ??$_Allocate@U?$_Tree_node@U?$pair@$$CBHPAVNPRPCAsync@@@std@@PAX@std@@@std@@YAPAU?$_Tree_node@U?$pair@$$CBHPAVNPRPCAsync@@@std@@PAX@0@IPAU10@@Z 1002d930 f i RPC.obj
 0001:0002c990       ??$_Allocate@Urpc_dispatch_handler_s@@@std@@YAPAUrpc_dispatch_handler_s@@IPAU1@@Z 1002d990 f i RPC.obj
 0001:0002c9f0       ??$_Buynode@U?$pair@HPAVNPRPCAsync@@@std@@@?$_Tree_buy@U?$pair@$$CBHPAVNPRPCAsync@@@std@@V?$allocator@U?$pair@$$CBHPAVNPRPCAsync@@@std@@@2@@std@@QAEPAU?$_Tree_node@U?$pair@$$CBHPAVNPRPCAsync@@@std@@PAX@1@$$QAU?$pair@HPAVNPRPCAsync@@@1@@Z 1002d9f0 f i RPC.obj
 0001:0002cb20       ??$_Buynode_if_nil@AAU?$pair@$$CBHPAVNPRPCAsync@@@std@@@?$_Tree@V?$_Tmap_traits@HPAVNPRPCAsync@@U?$less@H@std@@V?$allocator@U?$pair@$$CBHPAVNPRPCAsync@@@std@@@3@$0A@@std@@@std@@IAEPAU?$_Tree_node@U?$pair@$$CBHPAVNPRPCAsync@@@std@@PAX@1@PAU21@AAU?$pair@$$CBHPAVNPRPCAsync@@@1@@Z 1002db20 f i RPC.obj
 0001:0002cb40       ??$_Destroy_range@U?$_Wrap_alloc@V?$allocator@PAVNPRPCAsync@@@std@@@std@@@std@@YAXPAPAVNPRPCAsync@@0AAU?$_Wrap_alloc@V?$allocator@PAVNPRPCAsync@@@std@@@0@@Z 1002db40 f i RPC.obj
 0001:0002cb90       ??$_Destroy_range@U?$_Wrap_alloc@V?$allocator@PAVNPRPCAsync@@@std@@@std@@@std@@YAXPAPAVNPRPCAsync@@0AAU?$_Wrap_alloc@V?$allocator@PAVNPRPCAsync@@@std@@@0@U_Scalar_ptr_iterator_tag@0@@Z 1002db90 f i RPC.obj
 0001:0002cbb0       ??$_Destroy_range@U?$_Wrap_alloc@V?$allocator@Urpc_dispatch_handler_s@@@std@@@std@@@std@@YAXPAUrpc_dispatch_handler_s@@0AAU?$_Wrap_alloc@V?$allocator@Urpc_dispatch_handler_s@@@std@@@0@@Z 1002dbb0 f i RPC.obj
 0001:0002cc00       ??$_Destroy_range@U?$_Wrap_alloc@V?$allocator@Urpc_dispatch_handler_s@@@std@@@std@@@std@@YAXPAUrpc_dispatch_handler_s@@0AAU?$_Wrap_alloc@V?$allocator@Urpc_dispatch_handler_s@@@std@@@0@U_Nonscalar_ptr_iterator_tag@0@@Z 1002dc00 f i RPC.obj
 0001:0002cc40       ??$_Insert_at@AAU?$pair@$$CBHPAVNPRPCAsync@@@std@@PAU?$_Tree_node@U?$pair@$$CBHPAVNPRPCAsync@@@std@@PAX@2@@?$_Tree@V?$_Tmap_traits@HPAVNPRPCAsync@@U?$less@H@std@@V?$allocator@U?$pair@$$CBHPAVNPRPCAsync@@@std@@@3@$0A@@std@@@std@@IAE?AV?$_Tree_iterator@V?$_Tree_val@U?$_Tree_simple_types@U?$pair@$$CBHPAVNPRPCAsync@@@std@@@std@@@std@@@1@_NPAU?$_Tree_node@U?$pair@$$CBHPAVNPRPCAsync@@@std@@PAX@1@AAU?$pair@$$CBHPAVNPRPCAsync@@@1@1@Z 1002dc40 f i RPC.obj
 0001:0002d180       ??$_Insert_hint@AAU?$pair@$$CBHPAVNPRPCAsync@@@std@@PAU?$_Tree_node@U?$pair@$$CBHPAVNPRPCAsync@@@std@@PAX@2@@?$_Tree@V?$_Tmap_traits@HPAVNPRPCAsync@@U?$less@H@std@@V?$allocator@U?$pair@$$CBHPAVNPRPCAsync@@@std@@@3@$0A@@std@@@std@@IAE?AV?$_Tree_iterator@V?$_Tree_val@U?$_Tree_simple_types@U?$pair@$$CBHPAVNPRPCAsync@@@std@@@std@@@std@@@1@V?$_Tree_const_iterator@V?$_Tree_val@U?$_Tree_simple_types@U?$pair@$$CBHPAVNPRPCAsync@@@std@@@std@@@std@@@1@AAU?$pair@$$CBHPAVNPRPCAsync@@@1@PAU?$_Tree_node@U?$pair@$$CBHPAVNPRPCAsync@@@std@@PAX@1@@Z 1002e180 f i RPC.obj
 0001:0002e140       ??$_Insert_nohint@AAU?$pair@$$CBHPAVNPRPCAsync@@@std@@PAU?$_Tree_node@U?$pair@$$CBHPAVNPRPCAsync@@@std@@PAX@2@@?$_Tree@V?$_Tmap_traits@HPAVNPRPCAsync@@U?$less@H@std@@V?$allocator@U?$pair@$$CBHPAVNPRPCAsync@@@std@@@3@$0A@@std@@@std@@IAE?AU?$pair@V?$_Tree_iterator@V?$_Tree_val@U?$_Tree_simple_types@U?$pair@$$CBHPAVNPRPCAsync@@@std@@@std@@@std@@@std@@_N@1@_NAAU?$pair@$$CBHPAVNPRPCAsync@@@1@PAU?$_Tree_node@U?$pair@$$CBHPAVNPRPCAsync@@@std@@PAX@1@@Z 1002f140 f i RPC.obj
 0001:0002e6f0       ??$_Kfn@$$CBHPAVNPRPCAsync@@@?$_Tmap_traits@HPAVNPRPCAsync@@U?$less@H@std@@V?$allocator@U?$pair@$$CBHPAVNPRPCAsync@@@std@@@3@$0A@@std@@SAABHABU?$pair@$$CBHPAVNPRPCAsync@@@1@@Z 1002f6f0 f i RPC.obj
 0001:0002e710       ??$_Ptr_cat@PAVNPRPCAsync@@PAV1@@std@@YA?AU_Scalar_ptr_iterator_tag@0@PAPAVNPRPCAsync@@0@Z 1002f710 f i RPC.obj
 0001:0002e730       ??$_Ptr_cat@Urpc_dispatch_handler_s@@U1@@std@@YA?AU_Nonscalar_ptr_iterator_tag@0@PAUrpc_dispatch_handler_s@@0@Z 1002f730 f i RPC.obj
 0001:0002e750       ??$_Umove@PAPAVNPRPCAsync@@@?$vector@PAVNPRPCAsync@@V?$allocator@PAVNPRPCAsync@@@std@@@std@@IAEPAPAVNPRPCAsync@@PAPAV2@00@Z 1002f750 f i RPC.obj
 0001:0002e7a0       ??$_Umove@PAUrpc_dispatch_handler_s@@@?$vector@Urpc_dispatch_handler_s@@V?$allocator@Urpc_dispatch_handler_s@@@std@@@std@@IAEPAUrpc_dispatch_handler_s@@PAU2@00@Z 1002f7a0 f i RPC.obj
 0001:0002e7f0       ??$_Uninit_move@PAUrpc_dispatch_handler_s@@PAU1@V?$allocator@Urpc_dispatch_handler_s@@@std@@U1@@std@@YAPAUrpc_dispatch_handler_s@@PAU1@00AAU?$_Wrap_alloc@V?$allocator@Urpc_dispatch_handler_s@@@std@@@0@0U_Nonscalar_ptr_iterator_tag@0@@Z 1002f7f0 f i RPC.obj
 0001:0002e8e0       ??$_Uninit_move@PAVNPRPCAsync@@PAV1@PAV1@@std@@YAPAPAVNPRPCAsync@@PAPAV1@00AAU?$_Wrap_alloc@V?$allocator@PAVNPRPCAsync@@@std@@@0@0U_Scalar_ptr_iterator_tag@0@@Z 1002f8e0 f i RPC.obj
 0001:0002e930       ??$_Uninitialized_move@PAPAVNPRPCAsync@@PAPAV1@U?$_Wrap_alloc@V?$allocator@PAVNPRPCAsync@@@std@@@std@@@std@@YAPAPAVNPRPCAsync@@PAPAV1@00AAU?$_Wrap_alloc@V?$allocator@PAVNPRPCAsync@@@std@@@0@@Z 1002f930 f i RPC.obj
 0001:0002e990       ??$_Uninitialized_move@PAUrpc_dispatch_handler_s@@PAU1@U?$_Wrap_alloc@V?$allocator@Urpc_dispatch_handler_s@@@std@@@std@@@std@@YAPAUrpc_dispatch_handler_s@@PAU1@00AAU?$_Wrap_alloc@V?$allocator@Urpc_dispatch_handler_s@@@std@@@0@@Z 1002f990 f i RPC.obj
 0001:0002e9f0       ??$_Val_type@PAPAVNPRPCAsync@@@std@@YAPAPAVNPRPCAsync@@PAPAV1@@Z 1002f9f0 f i RPC.obj
 0001:0002ea10       ??$_Val_type@PAUrpc_dispatch_handler_s@@@std@@YAPAUrpc_dispatch_handler_s@@PAU1@@Z 1002fa10 f i RPC.obj
 0001:0002ea30       ??$addressof@$$CBUrpc_dispatch_handler_s@@@std@@YAPBUrpc_dispatch_handler_s@@ABU1@@Z 1002fa30 f i RPC.obj
 0001:0002ea50       ??$addressof@PAU?$_Tree_node@U?$pair@$$CBHPAVNPRPCAsync@@@std@@PAX@std@@@std@@YAPAPAU?$_Tree_node@U?$pair@$$CBHPAVNPRPCAsync@@@std@@PAX@0@AAPAU10@@Z 1002fa50 f i RPC.obj
 0001:0002ea70       ??$addressof@QAVNPRPCAsync@@@std@@YAPBQAVNPRPCAsync@@ABQAV1@@Z 1002fa70 f i RPC.obj
 0001:0002ea90       ??$addressof@U?$pair@$$CBHPAVNPRPCAsync@@@std@@@std@@YAPAU?$pair@$$CBHPAVNPRPCAsync@@@0@AAU10@@Z 1002fa90 f i RPC.obj
 0001:0002eab0       ??$addressof@Urpc_dispatch_handler_s@@@std@@YAPAUrpc_dispatch_handler_s@@AAU1@@Z 1002fab0 f i RPC.obj
 0001:0002ead0       ??$construct@PAU?$_Tree_node@U?$pair@$$CBHPAVNPRPCAsync@@@std@@PAX@std@@AAPAU12@@?$_Wrap_alloc@V?$allocator@U?$_Tree_node@U?$pair@$$CBHPAVNPRPCAsync@@@std@@PAX@std@@@std@@@std@@QAEXPAPAU?$_Tree_node@U?$pair@$$CBHPAVNPRPCAsync@@@std@@PAX@1@AAPAU21@@Z 1002fad0 f i RPC.obj
 0001:0002eb10       ??$construct@PAU?$_Tree_node@U?$pair@$$CBHPAVNPRPCAsync@@@std@@PAX@std@@AAPAU12@@?$allocator@U?$_Tree_node@U?$pair@$$CBHPAVNPRPCAsync@@@std@@PAX@std@@@std@@QAEXPAPAU?$_Tree_node@U?$pair@$$CBHPAVNPRPCAsync@@@std@@PAX@1@AAPAU21@@Z 1002fb10 f i RPC.obj
 0001:0002ebc0       ??$construct@PAU?$_Tree_node@U?$pair@$$CBHPAVNPRPCAsync@@@std@@PAX@std@@AAPAU12@@?$allocator_traits@V?$allocator@U?$_Tree_node@U?$pair@$$CBHPAVNPRPCAsync@@@std@@PAX@std@@@std@@@std@@SAXAAV?$allocator@U?$_Tree_node@U?$pair@$$CBHPAVNPRPCAsync@@@std@@PAX@std@@@1@PAPAU?$_Tree_node@U?$pair@$$CBHPAVNPRPCAsync@@@std@@PAX@1@AAPAU31@@Z 1002fbc0 f i RPC.obj
 0001:0002ec00       ??$construct@PAVNPRPCAsync@@AAPAV1@@?$_Wrap_alloc@V?$allocator@PAVNPRPCAsync@@@std@@@std@@QAEXPAPAVNPRPCAsync@@AAPAV2@@Z 1002fc00 f i RPC.obj
 0001:0002ec40       ??$construct@PAVNPRPCAsync@@AAPAV1@@?$allocator@PAVNPRPCAsync@@@std@@QAEXPAPAVNPRPCAsync@@AAPAV2@@Z 1002fc40 f i RPC.obj
 0001:0002ecf0       ??$construct@PAVNPRPCAsync@@AAPAV1@@?$allocator_traits@V?$allocator@PAVNPRPCAsync@@@std@@@std@@SAXAAV?$allocator@PAVNPRPCAsync@@@1@PAPAVNPRPCAsync@@AAPAV3@@Z 1002fcf0 f i RPC.obj
 0001:0002ed30       ??$construct@PAVNPRPCAsync@@ABQAV1@@?$_Wrap_alloc@V?$allocator@PAVNPRPCAsync@@@std@@@std@@QAEXPAPAVNPRPCAsync@@ABQAV2@@Z 1002fd30 f i RPC.obj
 0001:0002ed70       ??$construct@PAVNPRPCAsync@@ABQAV1@@?$allocator_traits@V?$allocator@PAVNPRPCAsync@@@std@@@std@@SAXAAV?$allocator@PAVNPRPCAsync@@@1@PAPAVNPRPCAsync@@ABQAV3@@Z 1002fd70 f i RPC.obj
 0001:0002edb0       ??$construct@U?$pair@$$CBHPAVNPRPCAsync@@@std@@U?$pair@HPAVNPRPCAsync@@@2@@?$_Wrap_alloc@V?$allocator@U?$_Tree_node@U?$pair@$$CBHPAVNPRPCAsync@@@std@@PAX@std@@@std@@@std@@QAEXPAU?$pair@$$CBHPAVNPRPCAsync@@@1@$$QAU?$pair@HPAVNPRPCAsync@@@1@@Z 1002fdb0 f i RPC.obj
 0001:0002edf0       ??$construct@U?$pair@$$CBHPAVNPRPCAsync@@@std@@U?$pair@HPAVNPRPCAsync@@@2@@?$allocator@U?$_Tree_node@U?$pair@$$CBHPAVNPRPCAsync@@@std@@PAX@std@@@std@@QAEXPAU?$pair@$$CBHPAVNPRPCAsync@@@1@$$QAU?$pair@HPAVNPRPCAsync@@@1@@Z 1002fdf0 f i RPC.obj
 0001:0002eea0       ??$construct@U?$pair@$$CBHPAVNPRPCAsync@@@std@@U?$pair@HPAVNPRPCAsync@@@2@@?$allocator_traits@V?$allocator@U?$_Tree_node@U?$pair@$$CBHPAVNPRPCAsync@@@std@@PAX@std@@@std@@@std@@SAXAAV?$allocator@U?$_Tree_node@U?$pair@$$CBHPAVNPRPCAsync@@@std@@PAX@std@@@1@PAU?$pair@$$CBHPAVNPRPCAsync@@@1@$$QAU?$pair@HPAVNPRPCAsync@@@1@@Z 1002fea0 f i RPC.obj
 0001:0002eee0       ??$construct@Urpc_dispatch_handler_s@@AAU1@@?$_Wrap_alloc@V?$allocator@Urpc_dispatch_handler_s@@@std@@@std@@QAEXPAUrpc_dispatch_handler_s@@AAU2@@Z 1002fee0 f i RPC.obj
 0001:0002ef20       ??$construct@Urpc_dispatch_handler_s@@AAU1@@?$allocator@Urpc_dispatch_handler_s@@@std@@QAEXPAUrpc_dispatch_handler_s@@AAU2@@Z 1002ff20 f i RPC.obj
 0001:0002efe0       ??$construct@Urpc_dispatch_handler_s@@AAU1@@?$allocator_traits@V?$allocator@Urpc_dispatch_handler_s@@@std@@@std@@SAXAAV?$allocator@Urpc_dispatch_handler_s@@@1@PAUrpc_dispatch_handler_s@@AAU3@@Z 1002ffe0 f i RPC.obj
 0001:0002f020       ??$construct@Urpc_dispatch_handler_s@@ABU1@@?$_Wrap_alloc@V?$allocator@Urpc_dispatch_handler_s@@@std@@@std@@QAEXPAUrpc_dispatch_handler_s@@ABU2@@Z 10030020 f i RPC.obj
 0001:0002f060       ??$construct@Urpc_dispatch_handler_s@@ABU1@@?$allocator_traits@V?$allocator@Urpc_dispatch_handler_s@@@std@@@std@@SAXAAV?$allocator@Urpc_dispatch_handler_s@@@1@PAUrpc_dispatch_handler_s@@ABU3@@Z 10030060 f i RPC.obj
 0001:0002f0a0       ??$construct@Urpc_dispatch_handler_s@@U1@@?$_Wrap_alloc@V?$allocator@Urpc_dispatch_handler_s@@@std@@@std@@QAEXPAUrpc_dispatch_handler_s@@$$QAU2@@Z 100300a0 f i RPC.obj
 0001:0002f0e0       ??$construct@Urpc_dispatch_handler_s@@U1@@?$allocator@Urpc_dispatch_handler_s@@@std@@QAEXPAUrpc_dispatch_handler_s@@$$QAU2@@Z 100300e0 f i RPC.obj
 0001:0002f1a0       ??$construct@Urpc_dispatch_handler_s@@U1@@?$allocator_traits@V?$allocator@Urpc_dispatch_handler_s@@@std@@@std@@SAXAAV?$allocator@Urpc_dispatch_handler_s@@@1@PAUrpc_dispatch_handler_s@@$$QAU3@@Z 100301a0 f i RPC.obj
 0001:0002f1e0       ??$destroy@PAU?$_Tree_node@U?$pair@$$CBHPAVNPRPCAsync@@@std@@PAX@std@@@?$_Wrap_alloc@V?$allocator@U?$_Tree_node@U?$pair@$$CBHPAVNPRPCAsync@@@std@@PAX@std@@@std@@@std@@QAEXPAPAU?$_Tree_node@U?$pair@$$CBHPAVNPRPCAsync@@@std@@PAX@1@@Z 100301e0 f i RPC.obj
 0001:0002f210       ??$destroy@PAU?$_Tree_node@U?$pair@$$CBHPAVNPRPCAsync@@@std@@PAX@std@@@?$allocator@U?$_Tree_node@U?$pair@$$CBHPAVNPRPCAsync@@@std@@PAX@std@@@std@@QAEXPAPAU?$_Tree_node@U?$pair@$$CBHPAVNPRPCAsync@@@std@@PAX@1@@Z 10030210 f i RPC.obj
 0001:0002f230       ??$destroy@PAU?$_Tree_node@U?$pair@$$CBHPAVNPRPCAsync@@@std@@PAX@std@@@?$allocator_traits@V?$allocator@U?$_Tree_node@U?$pair@$$CBHPAVNPRPCAsync@@@std@@PAX@std@@@std@@@std@@SAXAAV?$allocator@U?$_Tree_node@U?$pair@$$CBHPAVNPRPCAsync@@@std@@PAX@std@@@1@PAPAU?$_Tree_node@U?$pair@$$CBHPAVNPRPCAsync@@@std@@PAX@1@@Z 10030230 f i RPC.obj
 0001:0002f260       ??$destroy@U?$pair@$$CBHPAVNPRPCAsync@@@std@@@?$_Wrap_alloc@V?$allocator@U?$_Tree_node@U?$pair@$$CBHPAVNPRPCAsync@@@std@@PAX@std@@@std@@@std@@QAEXPAU?$pair@$$CBHPAVNPRPCAsync@@@1@@Z 10030260 f i RPC.obj
 0001:0002f290       ??$destroy@U?$pair@$$CBHPAVNPRPCAsync@@@std@@@?$allocator@U?$_Tree_node@U?$pair@$$CBHPAVNPRPCAsync@@@std@@PAX@std@@@std@@QAEXPAU?$pair@$$CBHPAVNPRPCAsync@@@1@@Z 10030290 f i RPC.obj
 0001:0002f2b0       ??$destroy@U?$pair@$$CBHPAVNPRPCAsync@@@std@@@?$allocator_traits@V?$allocator@U?$_Tree_node@U?$pair@$$CBHPAVNPRPCAsync@@@std@@PAX@std@@@std@@@std@@SAXAAV?$allocator@U?$_Tree_node@U?$pair@$$CBHPAVNPRPCAsync@@@std@@PAX@std@@@1@PAU?$pair@$$CBHPAVNPRPCAsync@@@1@@Z 100302b0 f i RPC.obj
 0001:0002f2e0       ??$destroy@Urpc_dispatch_handler_s@@@?$_Wrap_alloc@V?$allocator@Urpc_dispatch_handler_s@@@std@@@std@@QAEXPAUrpc_dispatch_handler_s@@@Z 100302e0 f i RPC.obj
 0001:0002f310       ??$destroy@Urpc_dispatch_handler_s@@@?$allocator@Urpc_dispatch_handler_s@@@std@@QAEXPAUrpc_dispatch_handler_s@@@Z 10030310 f i RPC.obj
 0001:0002f330       ??$destroy@Urpc_dispatch_handler_s@@@?$allocator_traits@V?$allocator@Urpc_dispatch_handler_s@@@std@@@std@@SAXAAV?$allocator@Urpc_dispatch_handler_s@@@1@PAUrpc_dispatch_handler_s@@@Z 10030330 f i RPC.obj
 0001:0002f360       ??$forward@AAPAU?$_Tree_node@U?$pair@$$CBHPAVNPRPCAsync@@@std@@PAX@std@@@std@@YAAAPAU?$_Tree_node@U?$pair@$$CBHPAVNPRPCAsync@@@std@@PAX@0@AAPAU10@@Z 10030360 f i RPC.obj
 0001:0002f380       ??$forward@AAPAVNPRPCAsync@@@std@@YAAAPAVNPRPCAsync@@AAPAV1@@Z 10030380 f i RPC.obj
 0001:0002f3a0       ??$forward@AAU?$pair@$$CBHPAVNPRPCAsync@@@std@@@std@@YAAAU?$pair@$$CBHPAVNPRPCAsync@@@0@AAU10@@Z 100303a0 f i RPC.obj
 0001:0002f3c0       ??$forward@AAUrpc_dispatch_handler_s@@@std@@YAAAUrpc_dispatch_handler_s@@AAU1@@Z 100303c0 f i RPC.obj
 0001:0002f3e0       ??$forward@AAV?$_Tree_iterator@V?$_Tree_val@U?$_Tree_simple_types@U?$pair@$$CBHPAVNPRPCAsync@@@std@@@std@@@std@@@std@@@std@@YAAAV?$_Tree_iterator@V?$_Tree_val@U?$_Tree_simple_types@U?$pair@$$CBHPAVNPRPCAsync@@@std@@@std@@@std@@@0@AAV10@@Z 100303e0 f i RPC.obj
 0001:0002f400       ??$forward@ABH@std@@YAABHABH@Z 10030400 f i RPC.obj
 0001:0002f420       ??$forward@ABQAVNPRPCAsync@@@std@@YAABQAVNPRPCAsync@@ABQAV1@@Z 10030420 f i RPC.obj
 0001:0002f440       ??$forward@ABUrpc_dispatch_handler_s@@@std@@YAABUrpc_dispatch_handler_s@@ABU1@@Z 10030440 f i RPC.obj
 0001:0002f460       ??$forward@H@std@@YA$$QAHAAH@Z 10030460 f i RPC.obj
 0001:0002f480       ??$forward@PAVNPRPCAsync@@@std@@YA$$QAPAVNPRPCAsync@@AAPAV1@@Z 10030480 f i RPC.obj
 0001:0002f4a0       ??$forward@U?$pair@HPAVNPRPCAsync@@@std@@@std@@YA$$QAU?$pair@HPAVNPRPCAsync@@@0@AAU10@@Z 100304a0 f i RPC.obj
 0001:0002f4c0       ??$forward@Urpc_dispatch_handler_s@@@std@@YA$$QAUrpc_dispatch_handler_s@@AAU1@@Z 100304c0 f i RPC.obj
 0001:0002f4e0       ??$forward@V?$_Tree_iterator@V?$_Tree_val@U?$_Tree_simple_types@U?$pair@$$CBHPAVNPRPCAsync@@@std@@@std@@@std@@@std@@@std@@YA$$QAV?$_Tree_iterator@V?$_Tree_val@U?$_Tree_simple_types@U?$pair@$$CBHPAVNPRPCAsync@@@std@@@std@@@std@@@0@AAV10@@Z 100304e0 f i RPC.obj
 0001:0002f500       ??$insert@U?$pair@HPAVNPRPCAsync@@@std@@@?$_Tree@V?$_Tmap_traits@HPAVNPRPCAsync@@U?$less@H@std@@V?$allocator@U?$pair@$$CBHPAVNPRPCAsync@@@std@@@3@$0A@@std@@@std@@QAE?AV?$_Tree_iterator@V?$_Tree_val@U?$_Tree_simple_types@U?$pair@$$CBHPAVNPRPCAsync@@@std@@@std@@@std@@@1@V?$_Tree_const_iterator@V?$_Tree_val@U?$_Tree_simple_types@U?$pair@$$CBHPAVNPRPCAsync@@@std@@@std@@@std@@@1@$$QAU?$pair@HPAVNPRPCAsync@@@1@@Z 10030500 f i RPC.obj
 0001:0002f570       ??0?$NPAsync@VINPRPCMessage@@@@QAE@XZ 10030570 f i RPC.obj
 0001:0002f5a0       ??0?$_Tree@V?$_Tmap_traits@HPAVNPRPCAsync@@U?$less@H@std@@V?$allocator@U?$pair@$$CBHPAVNPRPCAsync@@@std@@@3@$0A@@std@@@std@@QAE@ABU?$less@H@1@ABV?$allocator@U?$pair@$$CBHPAVNPRPCAsync@@@std@@@1@@Z 100305a0 f i RPC.obj
 0001:0002f5e0       ??0?$_Tree_alloc@$0A@U?$_Tree_base_types@U?$pair@$$CBHPAVNPRPCAsync@@@std@@V?$allocator@U?$pair@$$CBHPAVNPRPCAsync@@@std@@@2@@std@@@std@@QAE@ABV?$allocator@U?$pair@$$CBHPAVNPRPCAsync@@@std@@@1@@Z 100305e0 f i RPC.obj
 0001:0002f620       ??0?$_Tree_buy@U?$pair@$$CBHPAVNPRPCAsync@@@std@@V?$allocator@U?$pair@$$CBHPAVNPRPCAsync@@@std@@@2@@std@@QAE@ABV?$allocator@U?$pair@$$CBHPAVNPRPCAsync@@@std@@@1@@Z 10030620 f i RPC.obj
 0001:0002f650       ??0?$_Tree_comp@$0A@V?$_Tmap_traits@HPAVNPRPCAsync@@U?$less@H@std@@V?$allocator@U?$pair@$$CBHPAVNPRPCAsync@@@std@@@3@$0A@@std@@@std@@QAE@ABU?$less@H@1@ABV?$allocator@U?$pair@$$CBHPAVNPRPCAsync@@@std@@@1@@Z 10030650 f i RPC.obj
 0001:0002f680       ??0?$_Tree_const_iterator@V?$_Tree_val@U?$_Tree_simple_types@U?$pair@$$CBHPAVNPRPCAsync@@@std@@@std@@@std@@@std@@QAE@PAU?$_Tree_node@U?$pair@$$CBHPAVNPRPCAsync@@@std@@PAX@1@PBV?$_Tree_val@U?$_Tree_simple_types@U?$pair@$$CBHPAVNPRPCAsync@@@std@@@std@@@1@@Z 10030680 f i RPC.obj
 0001:0002f6c0       ??0?$_Tree_const_iterator@V?$_Tree_val@U?$_Tree_simple_types@U?$pair@$$CBHPAVNPRPCAsync@@@std@@@std@@@std@@@std@@QAE@XZ 100306c0 f i RPC.obj
 0001:0002f6f0       ??0?$_Tree_iterator@V?$_Tree_val@U?$_Tree_simple_types@U?$pair@$$CBHPAVNPRPCAsync@@@std@@@std@@@std@@@std@@QAE@PAU?$_Tree_node@U?$pair@$$CBHPAVNPRPCAsync@@@std@@PAX@1@PBV?$_Tree_val@U?$_Tree_simple_types@U?$pair@$$CBHPAVNPRPCAsync@@@std@@@std@@@1@@Z 100306f0 f i RPC.obj
 0001:0002f730       ??0?$_Tree_unchecked_const_iterator@V?$_Tree_val@U?$_Tree_simple_types@U?$pair@$$CBHPAVNPRPCAsync@@@std@@@std@@@std@@U_Iterator_base0@2@@std@@QAE@PAU?$_Tree_node@U?$pair@$$CBHPAVNPRPCAsync@@@std@@PAX@1@PBV?$_Tree_val@U?$_Tree_simple_types@U?$pair@$$CBHPAVNPRPCAsync@@@std@@@std@@@1@@Z 10030730 f i RPC.obj
 0001:0002f770       ??0?$_Tree_unchecked_const_iterator@V?$_Tree_val@U?$_Tree_simple_types@U?$pair@$$CBHPAVNPRPCAsync@@@std@@@std@@@std@@U_Iterator_base0@2@@std@@QAE@XZ 10030770 f i RPC.obj
 0001:0002f7a0       ??0?$_Tree_val@U?$_Tree_simple_types@U?$pair@$$CBHPAVNPRPCAsync@@@std@@@std@@@std@@QAE@XZ 100307a0 f i RPC.obj
 0001:0002f7e0       ??0?$_Vector_alloc@$0A@U?$_Vec_base_types@PAVNPRPCAsync@@V?$allocator@PAVNPRPCAsync@@@std@@@std@@@std@@QAE@ABV?$allocator@PAVNPRPCAsync@@@1@@Z 100307e0 f i RPC.obj
 0001:0002f810       ??0?$_Vector_alloc@$0A@U?$_Vec_base_types@Urpc_dispatch_handler_s@@V?$allocator@Urpc_dispatch_handler_s@@@std@@@std@@@std@@QAE@ABV?$allocator@Urpc_dispatch_handler_s@@@1@@Z 10030810 f i RPC.obj
 0001:0002f840       ??0?$_Vector_const_iterator@V?$_Vector_val@U?$_Simple_types@PAVNPRPCAsync@@@std@@@std@@@std@@QAE@PAPAVNPRPCAsync@@PBU_Container_base0@1@@Z 10030840 f i RPC.obj
 0001:0002f880       ??0?$_Vector_const_iterator@V?$_Vector_val@U?$_Simple_types@Urpc_dispatch_handler_s@@@std@@@std@@@std@@QAE@PAUrpc_dispatch_handler_s@@PBU_Container_base0@1@@Z 10030880 f i RPC.obj
 0001:0002f8c0       ??0?$_Vector_iterator@V?$_Vector_val@U?$_Simple_types@PAVNPRPCAsync@@@std@@@std@@@std@@QAE@PAPAVNPRPCAsync@@PBU_Container_base0@1@@Z 100308c0 f i RPC.obj
 0001:0002f900       ??0?$_Vector_iterator@V?$_Vector_val@U?$_Simple_types@Urpc_dispatch_handler_s@@@std@@@std@@@std@@QAE@PAUrpc_dispatch_handler_s@@PBU_Container_base0@1@@Z 10030900 f i RPC.obj
 0001:0002f940       ??0?$_Vector_val@U?$_Simple_types@PAVNPRPCAsync@@@std@@@std@@QAE@XZ 10030940 f i RPC.obj
 0001:0002f980       ??0?$_Vector_val@U?$_Simple_types@Urpc_dispatch_handler_s@@@std@@@std@@QAE@XZ 10030980 f i RPC.obj
 0001:0002f9c0       ??0?$_Wrap_alloc@V?$allocator@PAVNPRPCAsync@@@std@@@std@@QAE@XZ 100309c0 f i RPC.obj
 0001:0002f9f0       ??0?$_Wrap_alloc@V?$allocator@U?$_Tree_node@U?$pair@$$CBHPAVNPRPCAsync@@@std@@PAX@std@@@std@@@std@@QAE@XZ 100309f0 f i RPC.obj
 0001:0002fa20       ??0?$_Wrap_alloc@V?$allocator@Urpc_dispatch_handler_s@@@std@@@std@@QAE@XZ 10030a20 f i RPC.obj
 0001:0002fa50       ??0?$allocator@PAVNPRPCAsync@@@std@@QAE@XZ 10030a50 f i RPC.obj
 0001:0002fa70       ??0?$allocator@U?$_Tree_node@U?$pair@$$CBHPAVNPRPCAsync@@@std@@PAX@std@@@std@@QAE@XZ 10030a70 f i RPC.obj
 0001:0002fa90       ??0?$allocator@U?$pair@$$CBHPAVNPRPCAsync@@@std@@@std@@QAE@XZ 10030a90 f i RPC.obj
 0001:0002fab0       ??0?$allocator@Urpc_dispatch_handler_s@@@std@@QAE@XZ 10030ab0 f i RPC.obj
 0001:0002fad0       ??0?$map@HPAVNPRPCAsync@@U?$less@H@std@@V?$allocator@U?$pair@$$CBHPAVNPRPCAsync@@@std@@@3@@std@@QAE@XZ 10030ad0 f i RPC.obj
 0001:0002fb10       ??0?$vector@PAVNPRPCAsync@@V?$allocator@PAVNPRPCAsync@@@std@@@std@@QAE@XZ 10030b10 f i RPC.obj
 0001:0002fb40       ??0?$vector@Urpc_dispatch_handler_s@@V?$allocator@Urpc_dispatch_handler_s@@@std@@@std@@QAE@XZ 10030b40 f i RPC.obj
 0001:0002fb70       ??0NPRPCAsync@@QAE@XZ      10030b70 f i RPC.obj
 0001:0002fbd0       ??0rpc_state_s@@QAE@XZ     10030bd0 f i RPC.obj
 0001:0002fc60       ??1?$_Tree@V?$_Tmap_traits@HPAVNPRPCAsync@@U?$less@H@std@@V?$allocator@U?$pair@$$CBHPAVNPRPCAsync@@@std@@@3@$0A@@std@@@std@@QAE@XZ 10030c60 f i RPC.obj
 0001:0002fc90       ??1?$_Tree_alloc@$0A@U?$_Tree_base_types@U?$pair@$$CBHPAVNPRPCAsync@@@std@@V?$allocator@U?$pair@$$CBHPAVNPRPCAsync@@@std@@@2@@std@@@std@@QAE@XZ 10030c90 f i RPC.obj
 0001:0002fcc0       ??1?$_Tree_buy@U?$pair@$$CBHPAVNPRPCAsync@@@std@@V?$allocator@U?$pair@$$CBHPAVNPRPCAsync@@@std@@@2@@std@@QAE@XZ 10030cc0 f i RPC.obj
 0001:0002fcf0       ??1?$_Tree_comp@$0A@V?$_Tmap_traits@HPAVNPRPCAsync@@U?$less@H@std@@V?$allocator@U?$pair@$$CBHPAVNPRPCAsync@@@std@@@3@$0A@@std@@@std@@QAE@XZ 10030cf0 f i RPC.obj
 0001:0002fd20       ??1?$map@HPAVNPRPCAsync@@U?$less@H@std@@V?$allocator@U?$pair@$$CBHPAVNPRPCAsync@@@std@@@3@@std@@QAE@XZ 10030d20 f i RPC.obj
 0001:0002fd50       ??1?$vector@PAVNPRPCAsync@@V?$allocator@PAVNPRPCAsync@@@std@@@std@@QAE@XZ 10030d50 f i RPC.obj
 0001:0002fd80       ??1?$vector@Urpc_dispatch_handler_s@@V?$allocator@Urpc_dispatch_handler_s@@@std@@@std@@QAE@XZ 10030d80 f i RPC.obj
 0001:0002fdb0       ??1rpc_state_s@@QAE@XZ     10030db0 f i RPC.obj
 0001:0002fe00       ??8?$_Tree_const_iterator@V?$_Tree_val@U?$_Tree_simple_types@U?$pair@$$CBHPAVNPRPCAsync@@@std@@@std@@@std@@@std@@QBE_NABV01@@Z 10030e00 f i RPC.obj
 0001:0002fe50       ??8?$_Vector_const_iterator@V?$_Vector_val@U?$_Simple_types@PAVNPRPCAsync@@@std@@@std@@@std@@QBE_NABV01@@Z 10030e50 f i RPC.obj
 0001:0002fea0       ??8?$_Vector_const_iterator@V?$_Vector_val@U?$_Simple_types@Urpc_dispatch_handler_s@@@std@@@std@@@std@@QBE_NABV01@@Z 10030ea0 f i RPC.obj
 0001:0002fef0       ??9?$_Tree_const_iterator@V?$_Tree_val@U?$_Tree_simple_types@U?$pair@$$CBHPAVNPRPCAsync@@@std@@@std@@@std@@@std@@QBE_NABV01@@Z 10030ef0 f i RPC.obj
 0001:0002ff40       ??9?$_Vector_const_iterator@V?$_Vector_val@U?$_Simple_types@PAVNPRPCAsync@@@std@@@std@@@std@@QBE_NABV01@@Z 10030f40 f i RPC.obj
 0001:0002ff90       ??9?$_Vector_const_iterator@V?$_Vector_val@U?$_Simple_types@Urpc_dispatch_handler_s@@@std@@@std@@@std@@QBE_NABV01@@Z 10030f90 f i RPC.obj
 0001:0002ffe0       ??A?$map@HPAVNPRPCAsync@@U?$less@H@std@@V?$allocator@U?$pair@$$CBHPAVNPRPCAsync@@@std@@@3@@std@@QAEAAPAVNPRPCAsync@@ABH@Z 10030fe0 f i RPC.obj
 0001:000300c0       ??C?$_Tree_iterator@V?$_Tree_val@U?$_Tree_simple_types@U?$pair@$$CBHPAVNPRPCAsync@@@std@@@std@@@std@@@std@@QBEPAU?$pair@$$CBHPAVNPRPCAsync@@@1@XZ 100310c0 f i RPC.obj
 0001:000300f0       ??C?$_Vector_iterator@V?$_Vector_val@U?$_Simple_types@Urpc_dispatch_handler_s@@@std@@@std@@@std@@QBEPAUrpc_dispatch_handler_s@@XZ 100310f0 f i RPC.obj
 0001:00030120       ??D?$_Tree_const_iterator@V?$_Tree_val@U?$_Tree_simple_types@U?$pair@$$CBHPAVNPRPCAsync@@@std@@@std@@@std@@@std@@QBEABU?$pair@$$CBHPAVNPRPCAsync@@@1@XZ 10031120 f i RPC.obj
 0001:00030150       ??D?$_Tree_iterator@V?$_Tree_val@U?$_Tree_simple_types@U?$pair@$$CBHPAVNPRPCAsync@@@std@@@std@@@std@@@std@@QBEAAU?$pair@$$CBHPAVNPRPCAsync@@@1@XZ 10031150 f i RPC.obj
 0001:00030180       ??D?$_Vector_const_iterator@V?$_Vector_val@U?$_Simple_types@PAVNPRPCAsync@@@std@@@std@@@std@@QBEABQAVNPRPCAsync@@XZ 10031180 f i RPC.obj
 0001:000301a0       ??D?$_Vector_const_iterator@V?$_Vector_val@U?$_Simple_types@Urpc_dispatch_handler_s@@@std@@@std@@@std@@QBEABUrpc_dispatch_handler_s@@XZ 100311a0 f i RPC.obj
 0001:000301c0       ??D?$_Vector_iterator@V?$_Vector_val@U?$_Simple_types@PAVNPRPCAsync@@@std@@@std@@@std@@QBEAAPAVNPRPCAsync@@XZ 100311c0 f i RPC.obj
 0001:000301f0       ??D?$_Vector_iterator@V?$_Vector_val@U?$_Simple_types@Urpc_dispatch_handler_s@@@std@@@std@@@std@@QBEAAUrpc_dispatch_handler_s@@XZ 100311f0 f i RPC.obj
 0001:00030220       ??E?$_Tree_const_iterator@V?$_Tree_val@U?$_Tree_simple_types@U?$pair@$$CBHPAVNPRPCAsync@@@std@@@std@@@std@@@std@@QAE?AV01@H@Z 10031220 f i RPC.obj
 0001:00030260       ??E?$_Tree_const_iterator@V?$_Tree_val@U?$_Tree_simple_types@U?$pair@$$CBHPAVNPRPCAsync@@@std@@@std@@@std@@@std@@QAEAAV01@XZ 10031260 f i RPC.obj
 0001:00030290       ??E?$_Tree_unchecked_const_iterator@V?$_Tree_val@U?$_Tree_simple_types@U?$pair@$$CBHPAVNPRPCAsync@@@std@@@std@@@std@@U_Iterator_base0@2@@std@@QAEAAV01@XZ 10031290 f i RPC.obj
 0001:00030380       ??E?$_Vector_const_iterator@V?$_Vector_val@U?$_Simple_types@PAVNPRPCAsync@@@std@@@std@@@std@@QAEAAV01@XZ 10031380 f i RPC.obj
 0001:000303b0       ??E?$_Vector_const_iterator@V?$_Vector_val@U?$_Simple_types@Urpc_dispatch_handler_s@@@std@@@std@@@std@@QAEAAV01@XZ 100313b0 f i RPC.obj
 0001:000303e0       ??E?$_Vector_iterator@V?$_Vector_val@U?$_Simple_types@PAVNPRPCAsync@@@std@@@std@@@std@@QAE?AV01@H@Z 100313e0 f i RPC.obj
 0001:00030420       ??E?$_Vector_iterator@V?$_Vector_val@U?$_Simple_types@PAVNPRPCAsync@@@std@@@std@@@std@@QAEAAV01@XZ 10031420 f i RPC.obj
 0001:00030450       ??E?$_Vector_iterator@V?$_Vector_val@U?$_Simple_types@Urpc_dispatch_handler_s@@@std@@@std@@@std@@QAE?AV01@H@Z 10031450 f i RPC.obj
 0001:00030490       ??E?$_Vector_iterator@V?$_Vector_val@U?$_Simple_types@Urpc_dispatch_handler_s@@@std@@@std@@@std@@QAEAAV01@XZ 10031490 f i RPC.obj
 0001:000304c0       ??F?$_Tree_const_iterator@V?$_Tree_val@U?$_Tree_simple_types@U?$pair@$$CBHPAVNPRPCAsync@@@std@@@std@@@std@@@std@@QAEAAV01@XZ 100314c0 f i RPC.obj
 0001:000304f0       ??F?$_Tree_iterator@V?$_Tree_val@U?$_Tree_simple_types@U?$pair@$$CBHPAVNPRPCAsync@@@std@@@std@@@std@@@std@@QAEAAV01@XZ 100314f0 f i RPC.obj
 0001:00030520       ??F?$_Tree_unchecked_const_iterator@V?$_Tree_val@U?$_Tree_simple_types@U?$pair@$$CBHPAVNPRPCAsync@@@std@@@std@@@std@@U_Iterator_base0@2@@std@@QAEAAV01@XZ 10031520 f i RPC.obj
 0001:00030650       ??R?$less@H@std@@QBE_NABH0@Z 10031650 f i RPC.obj
 0001:000306a0       ?Free@NPRPCAsync@@UAEXXZ   100316a0 f i RPC.obj
 0001:000306d0       ?GetResult@NPRPCAsync@@UAEPAVINPRPCMessage@@XZ 100316d0 f i RPC.obj
 0001:000306f0       ?GetUserData@NPRPCAsync@@UAEPAXXZ 100316f0 f i RPC.obj
 0001:00030710       ?HasCompleted@NPRPCAsync@@UAE_NXZ 10031710 f i RPC.obj
 0001:000308d0       ?RPC_GenerateID@@YAHXZ     100318d0 f   RPC.obj
 0001:00030a90       ?RPC_Init@@YA_NXZ          10031a90 f   RPC.obj
 0001:00030ea0       ?RPC_Reconnect@@YAXXZ      10031ea0 f   RPC.obj
 0001:00030f10       ?RPC_RegisterDispatch@@YAXIP6AXPAVINPRPCMessage@@@Z@Z 10031f10 f   RPC.obj
 0001:00030f60       ?RPC_RunFrame@@YAXXZ       10031f60 f   RPC.obj
 0001:00031050       ?RPC_SendMessage@@YAXPAVINPRPCMessage@@@Z 10032050 f   RPC.obj
 0001:00031080       ?RPC_SendMessage@@YAXPAVINPRPCMessage@@H@Z 10032080 f   RPC.obj
 0001:00031100       ?RPC_SendMessageAsync@@YAPAV?$NPAsync@VINPRPCMessage@@@@PAVINPRPCMessage@@@Z 10032100 f   RPC.obj
 0001:000311f0       ?RPC_Shutdown@@YAXXZ       100321f0 f   RPC.obj
 0001:00031300       ?RunCallback@NPRPCAsync@@QAEXXZ 10032300 f i RPC.obj
 0001:00031350       ?SetCallback@NPRPCAsync@@UAEXP6AXPAV?$NPAsync@VINPRPCMessage@@@@@ZPAX@Z 10032350 f i RPC.obj
 0001:00031380       ?SetResult@NPRPCAsync@@QAEXPAVINPRPCMessage@@@Z 10032380 f i RPC.obj
 0001:000313b0       ?Wait@NPRPCAsync@@UAEPAVINPRPCMessage@@XZ 100323b0 f i RPC.obj
 0001:00031400       ?_Buyheadnode@?$_Tree_alloc@$0A@U?$_Tree_base_types@U?$pair@$$CBHPAVNPRPCAsync@@@std@@V?$allocator@U?$pair@$$CBHPAVNPRPCAsync@@@std@@@2@@std@@@std@@QAEPAU?$_Tree_node@U?$pair@$$CBHPAVNPRPCAsync@@@std@@PAX@2@XZ 10032400 f i RPC.obj
 0001:000315c0       ?_Buynode0@?$_Tree_buy@U?$pair@$$CBHPAVNPRPCAsync@@@std@@V?$allocator@U?$pair@$$CBHPAVNPRPCAsync@@@std@@@2@@std@@QAEPAU?$_Tree_node@U?$pair@$$CBHPAVNPRPCAsync@@@std@@PAX@2@XZ 100325c0 f i RPC.obj
 0001:00031760       ?_Color@?$_Tree_val@U?$_Tree_simple_types@U?$pair@$$CBHPAVNPRPCAsync@@@std@@@std@@@std@@SAAADPAU?$_Tree_node@U?$pair@$$CBHPAVNPRPCAsync@@@std@@PAX@2@@Z 10032760 f i RPC.obj
 0001:00031780       ?_Compat@?$_Vector_const_iterator@V?$_Vector_val@U?$_Simple_types@PAVNPRPCAsync@@@std@@@std@@@std@@QBEXABV12@@Z 10032780 f i RPC.obj
 0001:000317a0       ?_Compat@?$_Vector_const_iterator@V?$_Vector_val@U?$_Simple_types@Urpc_dispatch_handler_s@@@std@@@std@@@std@@QBEXABV12@@Z 100327a0 f i RPC.obj
 0001:000317c0       ?_Destroy@?$vector@PAVNPRPCAsync@@V?$allocator@PAVNPRPCAsync@@@std@@@std@@IAEXPAPAVNPRPCAsync@@0@Z 100327c0 f i RPC.obj
 0001:00031810       ?_Destroy@?$vector@Urpc_dispatch_handler_s@@V?$allocator@Urpc_dispatch_handler_s@@@std@@@std@@IAEXPAUrpc_dispatch_handler_s@@0@Z 10032810 f i RPC.obj
 0001:00031860       ?_Destroy_if_not_nil@?$_Tree@V?$_Tmap_traits@HPAVNPRPCAsync@@U?$less@H@std@@V?$allocator@U?$pair@$$CBHPAVNPRPCAsync@@@std@@@3@$0A@@std@@@std@@IAEXPAU?$_Tree_node@U?$pair@$$CBHPAVNPRPCAsync@@@std@@PAX@2@@Z 10032860 f i RPC.obj
 0001:000318d0       ?_Erase@?$_Tree@V?$_Tmap_traits@HPAVNPRPCAsync@@U?$less@H@std@@V?$allocator@U?$pair@$$CBHPAVNPRPCAsync@@@std@@@3@$0A@@std@@@std@@IAEXPAU?$_Tree_node@U?$pair@$$CBHPAVNPRPCAsync@@@std@@PAX@2@@Z 100328d0 f i RPC.obj
 0001:000319a0       ?_Freeheadnode@?$_Tree_alloc@$0A@U?$_Tree_base_types@U?$pair@$$CBHPAVNPRPCAsync@@@std@@V?$allocator@U?$pair@$$CBHPAVNPRPCAsync@@@std@@@2@@std@@@std@@QAEXPAU?$_Tree_node@U?$pair@$$CBHPAVNPRPCAsync@@@std@@PAX@2@@Z 100329a0 f i RPC.obj
 0001:00031a80       ?_Freenode0@?$_Tree_buy@U?$pair@$$CBHPAVNPRPCAsync@@@std@@V?$allocator@U?$pair@$$CBHPAVNPRPCAsync@@@std@@@2@@std@@QAEXPAU?$_Tree_node@U?$pair@$$CBHPAVNPRPCAsync@@@std@@PAX@2@@Z 10032a80 f i RPC.obj
 0001:00031b60       ?_Getal@?$_Tree_alloc@$0A@U?$_Tree_base_types@U?$pair@$$CBHPAVNPRPCAsync@@@std@@V?$allocator@U?$pair@$$CBHPAVNPRPCAsync@@@std@@@2@@std@@@std@@QBE?AU?$_Wrap_alloc@V?$allocator@U?$_Tree_node@U?$pair@$$CBHPAVNPRPCAsync@@@std@@PAX@std@@@std@@@2@XZ 10032b60 f i RPC.obj
 0001:00031b90       ?_Getal@?$_Vector_alloc@$0A@U?$_Vec_base_types@PAVNPRPCAsync@@V?$allocator@PAVNPRPCAsync@@@std@@@std@@@std@@QBE?AU?$_Wrap_alloc@V?$allocator@PAVNPRPCAsync@@@std@@@2@XZ 10032b90 f i RPC.obj
 0001:00031bc0       ?_Getal@?$_Vector_alloc@$0A@U?$_Vec_base_types@Urpc_dispatch_handler_s@@V?$allocator@Urpc_dispatch_handler_s@@@std@@@std@@@std@@QBE?AU?$_Wrap_alloc@V?$allocator@Urpc_dispatch_handler_s@@@std@@@2@XZ 10032bc0 f i RPC.obj
 0001:00031bf0       ?_Getcomp@?$_Tree_comp@$0A@V?$_Tmap_traits@HPAVNPRPCAsync@@U?$less@H@std@@V?$allocator@U?$pair@$$CBHPAVNPRPCAsync@@@std@@@3@$0A@@std@@@std@@QBE?AU?$less@H@2@XZ 10032bf0 f i RPC.obj
 0001:00031c10       ?_Grow_to@?$vector@PAVNPRPCAsync@@V?$allocator@PAVNPRPCAsync@@@std@@@std@@IBEII@Z 10032c10 f i RPC.obj
 0001:00031c90       ?_Grow_to@?$vector@Urpc_dispatch_handler_s@@V?$allocator@Urpc_dispatch_handler_s@@@std@@@std@@IBEII@Z 10032c90 f i RPC.obj
 0001:00031d10       ?_Inside@?$vector@PAVNPRPCAsync@@V?$allocator@PAVNPRPCAsync@@@std@@@std@@IBE_NPBQAVNPRPCAsync@@@Z 10032d10 f i RPC.obj
 0001:00031d60       ?_Inside@?$vector@Urpc_dispatch_handler_s@@V?$allocator@Urpc_dispatch_handler_s@@@std@@@std@@IBE_NPBUrpc_dispatch_handler_s@@@Z 10032d60 f i RPC.obj
 0001:00031db0       ?_Isnil@?$_Tree_val@U?$_Tree_simple_types@U?$pair@$$CBHPAVNPRPCAsync@@@std@@@std@@@std@@SAAADPAU?$_Tree_node@U?$pair@$$CBHPAVNPRPCAsync@@@std@@PAX@2@@Z 10032db0 f i RPC.obj
 0001:00031dd0       ?_Key@?$_Tree@V?$_Tmap_traits@HPAVNPRPCAsync@@U?$less@H@std@@V?$allocator@U?$pair@$$CBHPAVNPRPCAsync@@@std@@@3@$0A@@std@@@std@@IBEABHPAU?$_Tree_node@U?$pair@$$CBHPAVNPRPCAsync@@@std@@PAX@2@@Z 10032dd0 f i RPC.obj
 0001:00031e10       ?_Kfn@?$_Tree@V?$_Tmap_traits@HPAVNPRPCAsync@@U?$less@H@std@@V?$allocator@U?$pair@$$CBHPAVNPRPCAsync@@@std@@@3@$0A@@std@@@std@@IBEABHABU?$pair@$$CBHPAVNPRPCAsync@@@2@@Z 10032e10 f i RPC.obj
 0001:00031e40       ?_Lbound@?$_Tree@V?$_Tmap_traits@HPAVNPRPCAsync@@U?$less@H@std@@V?$allocator@U?$pair@$$CBHPAVNPRPCAsync@@@std@@@3@$0A@@std@@@std@@IAEPAU?$_Tree_node@U?$pair@$$CBHPAVNPRPCAsync@@@std@@PAX@2@ABH@Z 10032e40 f i RPC.obj
 0001:00031f00       ?_Left@?$_Tree_val@U?$_Tree_simple_types@U?$pair@$$CBHPAVNPRPCAsync@@@std@@@std@@@std@@SAAAPAU?$_Tree_node@U?$pair@$$CBHPAVNPRPCAsync@@@std@@PAX@2@PAU32@@Z 10032f00 f i RPC.obj
 0001:00031f20       ?_Lmost@?$_Tree@V?$_Tmap_traits@HPAVNPRPCAsync@@U?$less@H@std@@V?$allocator@U?$pair@$$CBHPAVNPRPCAsync@@@std@@@3@$0A@@std@@@std@@IBEAAPAU?$_Tree_node@U?$pair@$$CBHPAVNPRPCAsync@@@std@@PAX@2@XZ 10032f20 f i RPC.obj
 0001:00031f50       ?_Lrotate@?$_Tree@V?$_Tmap_traits@HPAVNPRPCAsync@@U?$less@H@std@@V?$allocator@U?$pair@$$CBHPAVNPRPCAsync@@@std@@@3@$0A@@std@@@std@@IAEXPAU?$_Tree_node@U?$pair@$$CBHPAVNPRPCAsync@@@std@@PAX@2@@Z 10032f50 f i RPC.obj
 0001:000320e0       ?_Max@?$_Tree_val@U?$_Tree_simple_types@U?$pair@$$CBHPAVNPRPCAsync@@@std@@@std@@@std@@SAPAU?$_Tree_node@U?$pair@$$CBHPAVNPRPCAsync@@@std@@PAX@2@PAU32@@Z 100330e0 f i RPC.obj
 0001:00032140       ?_Min@?$_Tree_val@U?$_Tree_simple_types@U?$pair@$$CBHPAVNPRPCAsync@@@std@@@std@@@std@@SAPAU?$_Tree_node@U?$pair@$$CBHPAVNPRPCAsync@@@std@@PAX@2@PAU32@@Z 10033140 f i RPC.obj
 0001:000321a0       ?_Mynode@?$_Tree_unchecked_const_iterator@V?$_Tree_val@U?$_Tree_simple_types@U?$pair@$$CBHPAVNPRPCAsync@@@std@@@std@@@std@@U_Iterator_base0@2@@std@@QBEPAU?$_Tree_node@U?$pair@$$CBHPAVNPRPCAsync@@@std@@PAX@2@XZ 100331a0 f i RPC.obj
 0001:000321c0       ?_Myval@?$_Tree_val@U?$_Tree_simple_types@U?$pair@$$CBHPAVNPRPCAsync@@@std@@@std@@@std@@SAAAU?$pair@$$CBHPAVNPRPCAsync@@@2@PAU?$_Tree_node@U?$pair@$$CBHPAVNPRPCAsync@@@std@@PAX@2@@Z 100331c0 f i RPC.obj
 0001:000321e0       ?_Orphan_all@_Container_base0@std@@QAEXXZ 100331e0 f i RPC.obj
 0001:00032200       ?_Orphan_range@?$vector@PAVNPRPCAsync@@V?$allocator@PAVNPRPCAsync@@@std@@@std@@IBEXPAPAVNPRPCAsync@@0@Z 10033200 f i RPC.obj
 0001:00032220       ?_Orphan_range@?$vector@Urpc_dispatch_handler_s@@V?$allocator@Urpc_dispatch_handler_s@@@std@@@std@@IBEXPAUrpc_dispatch_handler_s@@0@Z 10033220 f i RPC.obj
 0001:00032240       ?_Parent@?$_Tree_val@U?$_Tree_simple_types@U?$pair@$$CBHPAVNPRPCAsync@@@std@@@std@@@std@@SAAAPAU?$_Tree_node@U?$pair@$$CBHPAVNPRPCAsync@@@std@@PAX@2@PAU32@@Z 10033240 f i RPC.obj
 0001:00032260       ?_Reallocate@?$vector@PAVNPRPCAsync@@V?$allocator@PAVNPRPCAsync@@@std@@@std@@IAEXI@Z 10033260 f i RPC.obj
 0001:000323f0       ?_Reallocate@?$vector@Urpc_dispatch_handler_s@@V?$allocator@Urpc_dispatch_handler_s@@@std@@@std@@IAEXI@Z 100333f0 f i RPC.obj
 0001:00032580       ?_Reserve@?$vector@PAVNPRPCAsync@@V?$allocator@PAVNPRPCAsync@@@std@@@std@@IAEXI@Z 10033580 f i RPC.obj
 0001:00032600       ?_Reserve@?$vector@Urpc_dispatch_handler_s@@V?$allocator@Urpc_dispatch_handler_s@@@std@@@std@@IAEXI@Z 10033600 f i RPC.obj
 0001:00032680       ?_Right@?$_Tree_val@U?$_Tree_simple_types@U?$pair@$$CBHPAVNPRPCAsync@@@std@@@std@@@std@@SAAAPAU?$_Tree_node@U?$pair@$$CBHPAVNPRPCAsync@@@std@@PAX@2@PAU32@@Z 10033680 f i RPC.obj
 0001:000326a0       ?_Rmost@?$_Tree@V?$_Tmap_traits@HPAVNPRPCAsync@@U?$less@H@std@@V?$allocator@U?$pair@$$CBHPAVNPRPCAsync@@@std@@@3@$0A@@std@@@std@@IBEAAPAU?$_Tree_node@U?$pair@$$CBHPAVNPRPCAsync@@@std@@PAX@2@XZ 100336a0 f i RPC.obj
 0001:000326d0       ?_Root@?$_Tree@V?$_Tmap_traits@HPAVNPRPCAsync@@U?$less@H@std@@V?$allocator@U?$pair@$$CBHPAVNPRPCAsync@@@std@@@3@$0A@@std@@@std@@IBEAAPAU?$_Tree_node@U?$pair@$$CBHPAVNPRPCAsync@@@std@@PAX@2@XZ 100336d0 f i RPC.obj
 0001:00032700       ?_Rrotate@?$_Tree@V?$_Tmap_traits@HPAVNPRPCAsync@@U?$less@H@std@@V?$allocator@U?$pair@$$CBHPAVNPRPCAsync@@@std@@@3@$0A@@std@@@std@@IAEXPAU?$_Tree_node@U?$pair@$$CBHPAVNPRPCAsync@@@std@@PAX@2@@Z 10033700 f i RPC.obj
 0001:00032890       ?_Tidy@?$_Tree@V?$_Tmap_traits@HPAVNPRPCAsync@@U?$less@H@std@@V?$allocator@U?$pair@$$CBHPAVNPRPCAsync@@@std@@@3@$0A@@std@@@std@@IAEXXZ 10033890 f i RPC.obj
 0001:000328f0       ?_Tidy@?$vector@PAVNPRPCAsync@@V?$allocator@PAVNPRPCAsync@@@std@@@std@@IAEXXZ 100338f0 f i RPC.obj
 0001:00032990       ?_Tidy@?$vector@Urpc_dispatch_handler_s@@V?$allocator@Urpc_dispatch_handler_s@@@std@@@std@@IAEXXZ 10033990 f i RPC.obj
 0001:00032a40       ?_Unused_capacity@?$vector@PAVNPRPCAsync@@V?$allocator@PAVNPRPCAsync@@@std@@@std@@QBEIXZ 10033a40 f i RPC.obj
 0001:00032a70       ?_Unused_capacity@?$vector@Urpc_dispatch_handler_s@@V?$allocator@Urpc_dispatch_handler_s@@@std@@@std@@QBEIXZ 10033a70 f i RPC.obj
 0001:00032aa0       ?_Xlen@?$vector@PAVNPRPCAsync@@V?$allocator@PAVNPRPCAsync@@@std@@@std@@IBEXXZ 10033aa0 f i RPC.obj
 0001:00032ad0       ?_Xlen@?$vector@Urpc_dispatch_handler_s@@V?$allocator@Urpc_dispatch_handler_s@@@std@@@std@@IBEXXZ 10033ad0 f i RPC.obj
 0001:00032b00       ?allocate@?$_Wrap_alloc@V?$allocator@PAVNPRPCAsync@@@std@@@std@@QAEPAPAVNPRPCAsync@@I@Z 10033b00 f i RPC.obj
 0001:00032b30       ?allocate@?$_Wrap_alloc@V?$allocator@U?$_Tree_node@U?$pair@$$CBHPAVNPRPCAsync@@@std@@PAX@std@@@std@@@std@@QAEPAU?$_Tree_node@U?$pair@$$CBHPAVNPRPCAsync@@@std@@PAX@2@I@Z 10033b30 f i RPC.obj
 0001:00032b60       ?allocate@?$_Wrap_alloc@V?$allocator@Urpc_dispatch_handler_s@@@std@@@std@@QAEPAUrpc_dispatch_handler_s@@I@Z 10033b60 f i RPC.obj
 0001:00032b90       ?allocate@?$allocator@PAVNPRPCAsync@@@std@@QAEPAPAVNPRPCAsync@@I@Z 10033b90 f i RPC.obj
 0001:00032bc0       ?allocate@?$allocator@U?$_Tree_node@U?$pair@$$CBHPAVNPRPCAsync@@@std@@PAX@std@@@std@@QAEPAU?$_Tree_node@U?$pair@$$CBHPAVNPRPCAsync@@@std@@PAX@2@I@Z 10033bc0 f i RPC.obj
 0001:00032bf0       ?allocate@?$allocator@Urpc_dispatch_handler_s@@@std@@QAEPAUrpc_dispatch_handler_s@@I@Z 10033bf0 f i RPC.obj
 0001:00032c20       ?begin@?$_Tree@V?$_Tmap_traits@HPAVNPRPCAsync@@U?$less@H@std@@V?$allocator@U?$pair@$$CBHPAVNPRPCAsync@@@std@@@3@$0A@@std@@@std@@QAE?AV?$_Tree_iterator@V?$_Tree_val@U?$_Tree_simple_types@U?$pair@$$CBHPAVNPRPCAsync@@@std@@@std@@@std@@@2@XZ 10033c20 f i RPC.obj
 0001:00032c60       ?begin@?$vector@PAVNPRPCAsync@@V?$allocator@PAVNPRPCAsync@@@std@@@std@@QAE?AV?$_Vector_iterator@V?$_Vector_val@U?$_Simple_types@PAVNPRPCAsync@@@std@@@std@@@2@XZ 10033c60 f i RPC.obj
 0001:00032ca0       ?begin@?$vector@Urpc_dispatch_handler_s@@V?$allocator@Urpc_dispatch_handler_s@@@std@@@std@@QAE?AV?$_Vector_iterator@V?$_Vector_val@U?$_Simple_types@Urpc_dispatch_handler_s@@@std@@@std@@@2@XZ 10033ca0 f i RPC.obj
 0001:00032ce0       ?capacity@?$vector@PAVNPRPCAsync@@V?$allocator@PAVNPRPCAsync@@@std@@@std@@QBEIXZ 10033ce0 f i RPC.obj
 0001:00032d10       ?capacity@?$vector@Urpc_dispatch_handler_s@@V?$allocator@Urpc_dispatch_handler_s@@@std@@@std@@QBEIXZ 10033d10 f i RPC.obj
 0001:00032d40       ?clear@?$_Tree@V?$_Tmap_traits@HPAVNPRPCAsync@@U?$less@H@std@@V?$allocator@U?$pair@$$CBHPAVNPRPCAsync@@@std@@@3@$0A@@std@@@std@@QAEXXZ 10033d40 f i RPC.obj
 0001:00032dc0       ?clear@?$vector@PAVNPRPCAsync@@V?$allocator@PAVNPRPCAsync@@@std@@@std@@QAEXXZ 10033dc0 f i RPC.obj
 0001:00032e10       ?clear@?$vector@Urpc_dispatch_handler_s@@V?$allocator@Urpc_dispatch_handler_s@@@std@@@std@@QAEXXZ 10033e10 f i RPC.obj
 0001:00032e60       ?construct@?$allocator@PAVNPRPCAsync@@@std@@QAEXPAPAVNPRPCAsync@@ABQAV3@@Z 10033e60 f i RPC.obj
 0001:00032ec0       ?construct@?$allocator@Urpc_dispatch_handler_s@@@std@@QAEXPAUrpc_dispatch_handler_s@@ABU3@@Z 10033ec0 f i RPC.obj
 0001:00032f30       ?deallocate@?$_Wrap_alloc@V?$allocator@PAVNPRPCAsync@@@std@@@std@@QAEXPAPAVNPRPCAsync@@I@Z 10033f30 f i RPC.obj
 0001:00032f60       ?deallocate@?$_Wrap_alloc@V?$allocator@U?$_Tree_node@U?$pair@$$CBHPAVNPRPCAsync@@@std@@PAX@std@@@std@@@std@@QAEXPAU?$_Tree_node@U?$pair@$$CBHPAVNPRPCAsync@@@std@@PAX@2@I@Z 10033f60 f i RPC.obj
 0001:00032f90       ?deallocate@?$_Wrap_alloc@V?$allocator@Urpc_dispatch_handler_s@@@std@@@std@@QAEXPAUrpc_dispatch_handler_s@@I@Z 10033f90 f i RPC.obj
 0001:00032fc0       ?deallocate@?$allocator@PAVNPRPCAsync@@@std@@QAEXPAPAVNPRPCAsync@@I@Z 10033fc0 f i RPC.obj
 0001:00032ff0       ?deallocate@?$allocator@U?$_Tree_node@U?$pair@$$CBHPAVNPRPCAsync@@@std@@PAX@std@@@std@@QAEXPAU?$_Tree_node@U?$pair@$$CBHPAVNPRPCAsync@@@std@@PAX@2@I@Z 10033ff0 f i RPC.obj
 0001:00033020       ?deallocate@?$allocator@Urpc_dispatch_handler_s@@@std@@QAEXPAUrpc_dispatch_handler_s@@I@Z 10034020 f i RPC.obj
 0001:00033050       ?end@?$_Tree@V?$_Tmap_traits@HPAVNPRPCAsync@@U?$less@H@std@@V?$allocator@U?$pair@$$CBHPAVNPRPCAsync@@@std@@@3@$0A@@std@@@std@@QAE?AV?$_Tree_iterator@V?$_Tree_val@U?$_Tree_simple_types@U?$pair@$$CBHPAVNPRPCAsync@@@std@@@std@@@std@@@2@XZ 10034050 f i RPC.obj
 0001:00033090       ?end@?$vector@PAVNPRPCAsync@@V?$allocator@PAVNPRPCAsync@@@std@@@std@@QAE?AV?$_Vector_iterator@V?$_Vector_val@U?$_Simple_types@PAVNPRPCAsync@@@std@@@std@@@2@XZ 10034090 f i RPC.obj
 0001:000330d0       ?end@?$vector@Urpc_dispatch_handler_s@@V?$allocator@Urpc_dispatch_handler_s@@@std@@@std@@QAE?AV?$_Vector_iterator@V?$_Vector_val@U?$_Simple_types@Urpc_dispatch_handler_s@@@std@@@std@@@2@XZ 100340d0 f i RPC.obj
 0001:00033110       ?erase@?$_Tree@V?$_Tmap_traits@HPAVNPRPCAsync@@U?$less@H@std@@V?$allocator@U?$pair@$$CBHPAVNPRPCAsync@@@std@@@3@$0A@@std@@@std@@QAE?AV?$_Tree_iterator@V?$_Tree_val@U?$_Tree_simple_types@U?$pair@$$CBHPAVNPRPCAsync@@@std@@@std@@@std@@@2@V?$_Tree_const_iterator@V?$_Tree_val@U?$_Tree_simple_types@U?$pair@$$CBHPAVNPRPCAsync@@@std@@@std@@@std@@@2@0@Z 10034110 f i RPC.obj
 0001:000331f0       ?erase@?$_Tree@V?$_Tmap_traits@HPAVNPRPCAsync@@U?$less@H@std@@V?$allocator@U?$pair@$$CBHPAVNPRPCAsync@@@std@@@3@$0A@@std@@@std@@QAE?AV?$_Tree_iterator@V?$_Tree_val@U?$_Tree_simple_types@U?$pair@$$CBHPAVNPRPCAsync@@@std@@@std@@@std@@@2@V?$_Tree_const_iterator@V?$_Tree_val@U?$_Tree_simple_types@U?$pair@$$CBHPAVNPRPCAsync@@@std@@@std@@@std@@@2@@Z 100341f0 f i RPC.obj
 0001:00033b70       ?lower_bound@?$_Tree@V?$_Tmap_traits@HPAVNPRPCAsync@@U?$less@H@std@@V?$allocator@U?$pair@$$CBHPAVNPRPCAsync@@@std@@@3@$0A@@std@@@std@@QAE?AV?$_Tree_iterator@V?$_Tree_val@U?$_Tree_simple_types@U?$pair@$$CBHPAVNPRPCAsync@@@std@@@std@@@std@@@2@ABH@Z 10034b70 f i RPC.obj
 0001:00033bb0       ?max_size@?$_Tree@V?$_Tmap_traits@HPAVNPRPCAsync@@U?$less@H@std@@V?$allocator@U?$pair@$$CBHPAVNPRPCAsync@@@std@@@3@$0A@@std@@@std@@QBEIXZ 10034bb0 f i RPC.obj
 0001:00033be0       ?max_size@?$_Wrap_alloc@V?$allocator@PAVNPRPCAsync@@@std@@@std@@QBEIXZ 10034be0 f i RPC.obj
 0001:00033c10       ?max_size@?$_Wrap_alloc@V?$allocator@U?$_Tree_node@U?$pair@$$CBHPAVNPRPCAsync@@@std@@PAX@std@@@std@@@std@@QBEIXZ 10034c10 f i RPC.obj
 0001:00033c40       ?max_size@?$_Wrap_alloc@V?$allocator@Urpc_dispatch_handler_s@@@std@@@std@@QBEIXZ 10034c40 f i RPC.obj
 0001:00033c70       ?max_size@?$allocator@PAVNPRPCAsync@@@std@@QBEIXZ 10034c70 f i RPC.obj
 0001:00033c90       ?max_size@?$allocator@U?$_Tree_node@U?$pair@$$CBHPAVNPRPCAsync@@@std@@PAX@std@@@std@@QBEIXZ 10034c90 f i RPC.obj
 0001:00033cb0       ?max_size@?$allocator@Urpc_dispatch_handler_s@@@std@@QBEIXZ 10034cb0 f i RPC.obj
 0001:00033cd0       ?max_size@?$allocator_traits@V?$allocator@PAVNPRPCAsync@@@std@@@std@@SAIABV?$allocator@PAVNPRPCAsync@@@2@@Z 10034cd0 f i RPC.obj
 0001:00033cf0       ?max_size@?$allocator_traits@V?$allocator@U?$_Tree_node@U?$pair@$$CBHPAVNPRPCAsync@@@std@@PAX@std@@@std@@@std@@SAIABV?$allocator@U?$_Tree_node@U?$pair@$$CBHPAVNPRPCAsync@@@std@@PAX@std@@@2@@Z 10034cf0 f i RPC.obj
 0001:00033d10       ?max_size@?$allocator_traits@V?$allocator@Urpc_dispatch_handler_s@@@std@@@std@@SAIABV?$allocator@Urpc_dispatch_handler_s@@@2@@Z 10034d10 f i RPC.obj
 0001:00033d30       ?max_size@?$vector@PAVNPRPCAsync@@V?$allocator@PAVNPRPCAsync@@@std@@@std@@QBEIXZ 10034d30 f i RPC.obj
 0001:00033d60       ?max_size@?$vector@Urpc_dispatch_handler_s@@V?$allocator@Urpc_dispatch_handler_s@@@std@@@std@@QBEIXZ 10034d60 f i RPC.obj
 0001:00033d90       ?pointer_to@?$pointer_traits@PAU?$pair@$$CBHPAVNPRPCAsync@@@std@@@std@@SAPAU?$pair@$$CBHPAVNPRPCAsync@@@2@AAU32@@Z 10034d90 f i RPC.obj
 0001:00033dc0       ?pointer_to@?$pointer_traits@PAUrpc_dispatch_handler_s@@@std@@SAPAUrpc_dispatch_handler_s@@AAU3@@Z 10034dc0 f i RPC.obj
 0001:00033df0       ?push_back@?$vector@PAVNPRPCAsync@@V?$allocator@PAVNPRPCAsync@@@std@@@std@@QAEXABQAVNPRPCAsync@@@Z 10034df0 f i RPC.obj
 0001:00033f40       ?push_back@?$vector@Urpc_dispatch_handler_s@@V?$allocator@Urpc_dispatch_handler_s@@@std@@@std@@QAEXABUrpc_dispatch_handler_s@@@Z 10034f40 f i RPC.obj
 0001:000340a0       ?size@?$_Tree@V?$_Tmap_traits@HPAVNPRPCAsync@@U?$less@H@std@@V?$allocator@U?$pair@$$CBHPAVNPRPCAsync@@@std@@@3@$0A@@std@@@std@@QBEIXZ 100350a0 f i RPC.obj
 0001:000340c0       ?size@?$vector@PAVNPRPCAsync@@V?$allocator@PAVNPRPCAsync@@@std@@@std@@QBEIXZ 100350c0 f i RPC.obj
 0001:000340f0       ?size@?$vector@Urpc_dispatch_handler_s@@V?$allocator@Urpc_dispatch_handler_s@@@std@@@std@@QBEIXZ 100350f0 f i RPC.obj
 0001:00034120       _NP_Connect                10035120 f   RPC.obj
 0001:000342b0       ?Log_Print@@YAXPBDZZ       100352b0 f   Utils.obj
 0001:00034320       _NP_SetLogCallback         10035320 f   Utils.obj
 0001:00034340       ??$ReadPrimitive@H$04@WireFormatLite@internal@protobuf@google@@SA_NPAVCodedInputStream@io@23@PAH@Z 10035340 f i auth.pb.obj
 0001:00034380       ??$ReadPrimitive@I$06@WireFormatLite@internal@protobuf@google@@SA_NPAVCodedInputStream@io@23@PAI@Z 10035380 f i auth.pb.obj
 0001:000343b0       ??$ReadPrimitive@_K$05@WireFormatLite@internal@protobuf@google@@SA_NPAVCodedInputStream@io@23@PA_K@Z 100353b0 f i auth.pb.obj
 0001:000343e0       ??$_Move@AAH@std@@YA$$QAHAAH@Z 100353e0 f i auth.pb.obj
 0001:00034400       ??$_Move@AAPAV?$basic_string@DU?$char_traits@D@std@@V?$allocator@D@2@@std@@@std@@YA$$QAPAV?$basic_string@DU?$char_traits@D@std@@V?$allocator@D@2@@0@AAPAV10@@Z 10035400 f i auth.pb.obj
 0001:00034420       ??$_Move@AA_K@std@@YA$$QA_KAA_K@Z 10035420 f i auth.pb.obj
 0001:00034440       ??$down_cast@PBVAuthenticateExternalStatusMessage@@$$CBVMessageLite@protobuf@google@@@internal@protobuf@google@@YAPBVAuthenticateExternalStatusMessage@@PBVMessageLite@12@@Z 10035440 f i auth.pb.obj
 0001:00034480       ??$down_cast@PBVAuthenticateKickUserMessage@@$$CBVMessageLite@protobuf@google@@@internal@protobuf@google@@YAPBVAuthenticateKickUserMessage@@PBVMessageLite@12@@Z 10035480 f i auth.pb.obj
 0001:000344c0       ??$down_cast@PBVAuthenticateRegisterServerMessage@@$$CBVMessageLite@protobuf@google@@@internal@protobuf@google@@YAPBVAuthenticateRegisterServerMessage@@PBVMessageLite@12@@Z 100354c0 f i auth.pb.obj
 0001:00034500       ??$down_cast@PBVAuthenticateRegisterServerResultMessage@@$$CBVMessageLite@protobuf@google@@@internal@protobuf@google@@YAPBVAuthenticateRegisterServerResultMessage@@PBVMessageLite@12@@Z 10035500 f i auth.pb.obj
 0001:00034540       ??$down_cast@PBVAuthenticateResultMessage@@$$CBVMessageLite@protobuf@google@@@internal@protobuf@google@@YAPBVAuthenticateResultMessage@@PBVMessageLite@12@@Z 10035540 f i auth.pb.obj
 0001:00034580       ??$down_cast@PBVAuthenticateUserGroupMessage@@$$CBVMessageLite@protobuf@google@@@internal@protobuf@google@@YAPBVAuthenticateUserGroupMessage@@PBVMessageLite@12@@Z 10035580 f i auth.pb.obj
 0001:000345c0       ??$down_cast@PBVAuthenticateValidateTicketMessage@@$$CBVMessageLite@protobuf@google@@@internal@protobuf@google@@YAPBVAuthenticateValidateTicketMessage@@PBVMessageLite@12@@Z 100355c0 f i auth.pb.obj
 0001:00034600       ??$down_cast@PBVAuthenticateValidateTicketResultMessage@@$$CBVMessageLite@protobuf@google@@@internal@protobuf@google@@YAPBVAuthenticateValidateTicketResultMessage@@PBVMessageLite@12@@Z 10035600 f i auth.pb.obj
 0001:00034640       ??$down_cast@PBVAuthenticateWithDetailsMessage@@$$CBVMessageLite@protobuf@google@@@internal@protobuf@google@@YAPBVAuthenticateWithDetailsMessage@@PBVMessageLite@12@@Z 10035640 f i auth.pb.obj
 0001:00034680       ??$down_cast@PBVAuthenticateWithKeyMessage@@$$CBVMessageLite@protobuf@google@@@internal@protobuf@google@@YAPBVAuthenticateWithKeyMessage@@PBVMessageLite@12@@Z 10035680 f i auth.pb.obj
 0001:000346c0       ??$down_cast@PBVAuthenticateWithTokenMessage@@$$CBVMessageLite@protobuf@google@@@internal@protobuf@google@@YAPBVAuthenticateWithTokenMessage@@PBVMessageLite@12@@Z 100356c0 f i auth.pb.obj
 0001:00034700       ??$implicit_cast@PBVMessageLite@protobuf@google@@PBVAuthenticateExternalStatusMessage@@@internal@protobuf@google@@YAPBVMessageLite@12@ABQBVAuthenticateExternalStatusMessage@@@Z 10035700 f i auth.pb.obj
 0001:00034720       ??$implicit_cast@PBVMessageLite@protobuf@google@@PBVAuthenticateKickUserMessage@@@internal@protobuf@google@@YAPBVMessageLite@12@ABQBVAuthenticateKickUserMessage@@@Z 10035720 f i auth.pb.obj
 0001:00034740       ??$implicit_cast@PBVMessageLite@protobuf@google@@PBVAuthenticateRegisterServerMessage@@@internal@protobuf@google@@YAPBVMessageLite@12@ABQBVAuthenticateRegisterServerMessage@@@Z 10035740 f i auth.pb.obj
 0001:00034760       ??$implicit_cast@PBVMessageLite@protobuf@google@@PBVAuthenticateRegisterServerResultMessage@@@internal@protobuf@google@@YAPBVMessageLite@12@ABQBVAuthenticateRegisterServerResultMessage@@@Z 10035760 f i auth.pb.obj
 0001:00034780       ??$implicit_cast@PBVMessageLite@protobuf@google@@PBVAuthenticateResultMessage@@@internal@protobuf@google@@YAPBVMessageLite@12@ABQBVAuthenticateResultMessage@@@Z 10035780 f i auth.pb.obj
 0001:000347a0       ??$implicit_cast@PBVMessageLite@protobuf@google@@PBVAuthenticateUserGroupMessage@@@internal@protobuf@google@@YAPBVMessageLite@12@ABQBVAuthenticateUserGroupMessage@@@Z 100357a0 f i auth.pb.obj
 0001:000347c0       ??$implicit_cast@PBVMessageLite@protobuf@google@@PBVAuthenticateValidateTicketMessage@@@internal@protobuf@google@@YAPBVMessageLite@12@ABQBVAuthenticateValidateTicketMessage@@@Z 100357c0 f i auth.pb.obj
 0001:000347e0       ??$implicit_cast@PBVMessageLite@protobuf@google@@PBVAuthenticateValidateTicketResultMessage@@@internal@protobuf@google@@YAPBVMessageLite@12@ABQBVAuthenticateValidateTicketResultMessage@@@Z 100357e0 f i auth.pb.obj
 0001:00034800       ??$implicit_cast@PBVMessageLite@protobuf@google@@PBVAuthenticateWithDetailsMessage@@@internal@protobuf@google@@YAPBVMessageLite@12@ABQBVAuthenticateWithDetailsMessage@@@Z 10035800 f i auth.pb.obj
 0001:00034820       ??$implicit_cast@PBVMessageLite@protobuf@google@@PBVAuthenticateWithKeyMessage@@@internal@protobuf@google@@YAPBVMessageLite@12@ABQBVAuthenticateWithKeyMessage@@@Z 10035820 f i auth.pb.obj
 0001:00034840       ??$implicit_cast@PBVMessageLite@protobuf@google@@PBVAuthenticateWithTokenMessage@@@internal@protobuf@google@@YAPBVMessageLite@12@ABQBVAuthenticateWithTokenMessage@@@Z 10035840 f i auth.pb.obj
 0001:00034860       ??$swap@H@std@@YAXAAH0@Z   10035860 f i auth.pb.obj
 0001:000348c0       ??$swap@PAV?$basic_string@DU?$char_traits@D@std@@V?$allocator@D@2@@std@@@std@@YAXAAPAV?$basic_string@DU?$char_traits@D@std@@V?$allocator@D@2@@0@0@Z 100358c0 f i auth.pb.obj
 0001:00034920       ??$swap@_K@std@@YAXAA_K0@Z 10035920 f i auth.pb.obj
 0001:00034990       ??0AuthenticateExternalStatusMessage@@QAE@ABV0@@Z 10035990 f   auth.pb.obj
 0001:00034a30       ??0AuthenticateExternalStatusMessage@@QAE@XZ 10035a30 f   auth.pb.obj
 0001:00034ab0       ??0AuthenticateKickUserMessage@@QAE@ABV0@@Z 10035ab0 f   auth.pb.obj
 0001:00034b50       ??0AuthenticateKickUserMessage@@QAE@XZ 10035b50 f   auth.pb.obj
 0001:00034bd0       ??0AuthenticateRegisterServerMessage@@QAE@ABV0@@Z 10035bd0 f   auth.pb.obj
 0001:00034c70       ??0AuthenticateRegisterServerMessage@@QAE@XZ 10035c70 f   auth.pb.obj
 0001:00034cf0       ??0AuthenticateRegisterServerResultMessage@@QAE@ABV0@@Z 10035cf0 f   auth.pb.obj
 0001:00034d90       ??0AuthenticateRegisterServerResultMessage@@QAE@XZ 10035d90 f   auth.pb.obj
 0001:00034e10       ??0AuthenticateResultMessage@@QAE@ABV0@@Z 10035e10 f   auth.pb.obj
 0001:00034eb0       ??0AuthenticateResultMessage@@QAE@XZ 10035eb0 f   auth.pb.obj
 0001:00034f30       ??0AuthenticateUserGroupMessage@@QAE@ABV0@@Z 10035f30 f   auth.pb.obj
 0001:00034fd0       ??0AuthenticateUserGroupMessage@@QAE@XZ 10035fd0 f   auth.pb.obj
 0001:00035050       ??0AuthenticateValidateTicketMessage@@QAE@ABV0@@Z 10036050 f   auth.pb.obj
 0001:000350f0       ??0AuthenticateValidateTicketMessage@@QAE@XZ 100360f0 f   auth.pb.obj
 0001:00035170       ??0AuthenticateValidateTicketResultMessage@@QAE@ABV0@@Z 10036170 f   auth.pb.obj
 0001:00035210       ??0AuthenticateValidateTicketResultMessage@@QAE@XZ 10036210 f   auth.pb.obj
 0001:00035290       ??0AuthenticateWithDetailsMessage@@QAE@ABV0@@Z 10036290 f   auth.pb.obj
 0001:00035330       ??0AuthenticateWithDetailsMessage@@QAE@XZ 10036330 f   auth.pb.obj
 0001:000353b0       ??0AuthenticateWithKeyMessage@@QAE@ABV0@@Z 100363b0 f   auth.pb.obj
 0001:00035450       ??0AuthenticateWithKeyMessage@@QAE@XZ 10036450 f   auth.pb.obj
 0001:000354d0       ??0AuthenticateWithTokenMessage@@QAE@ABV0@@Z 100364d0 f   auth.pb.obj
 0001:00035570       ??0AuthenticateWithTokenMessage@@QAE@XZ 10036570 f   auth.pb.obj
 0001:000355f0       ??0MessageLite@protobuf@google@@QAE@XZ 100365f0 f i auth.pb.obj
 0001:00035620       ??0StaticDescriptorInitializer_auth_2eproto@@QAE@XZ 10036620 f i auth.pb.obj
 0001:00035650       ??1AuthenticateExternalStatusMessage@@UAE@XZ 10036650 f   auth.pb.obj
 0001:000356d0       ??1AuthenticateKickUserMessage@@UAE@XZ 100366d0 f   auth.pb.obj
 0001:00035750       ??1AuthenticateRegisterServerMessage@@UAE@XZ 10036750 f   auth.pb.obj
 0001:000357d0       ??1AuthenticateRegisterServerResultMessage@@UAE@XZ 100367d0 f   auth.pb.obj
 0001:00035850       ??1AuthenticateResultMessage@@UAE@XZ 10036850 f   auth.pb.obj
 0001:000358d0       ??1AuthenticateUserGroupMessage@@UAE@XZ 100368d0 f   auth.pb.obj
 0001:00035950       ??1AuthenticateValidateTicketMessage@@UAE@XZ 10036950 f   auth.pb.obj
 0001:000359d0       ??1AuthenticateValidateTicketResultMessage@@UAE@XZ 100369d0 f   auth.pb.obj
 0001:00035a50       ??1AuthenticateWithDetailsMessage@@UAE@XZ 10036a50 f   auth.pb.obj
 0001:00035ad0       ??1AuthenticateWithKeyMessage@@UAE@XZ 10036ad0 f   auth.pb.obj
 0001:00035b50       ??1AuthenticateWithTokenMessage@@UAE@XZ 10036b50 f   auth.pb.obj
 0001:00035bd0       ??_G?$basic_string@DU?$char_traits@D@std@@V?$allocator@D@2@@std@@QAEPAXI@Z 10036bd0 f i auth.pb.obj
 0001:00035c20       ??_EAuthenticateExternalStatusMessage@@UAEPAXI@Z 10036c20 f i auth.pb.obj
 0001:00035c20       ??_GAuthenticateExternalStatusMessage@@UAEPAXI@Z 10036c20 f i auth.pb.obj
 0001:00035c70       ??_GAuthenticateKickUserMessage@@UAEPAXI@Z 10036c70 f i auth.pb.obj
 0001:00035c70       ??_EAuthenticateKickUserMessage@@UAEPAXI@Z 10036c70 f i auth.pb.obj
 0001:00035cc0       ??_GAuthenticateRegisterServerMessage@@UAEPAXI@Z 10036cc0 f i auth.pb.obj
 0001:00035cc0       ??_EAuthenticateRegisterServerMessage@@UAEPAXI@Z 10036cc0 f i auth.pb.obj
 0001:00035d10       ??_EAuthenticateRegisterServerResultMessage@@UAEPAXI@Z 10036d10 f i auth.pb.obj
 0001:00035d10       ??_GAuthenticateRegisterServerResultMessage@@UAEPAXI@Z 10036d10 f i auth.pb.obj
 0001:00035d60       ??_EAuthenticateResultMessage@@UAEPAXI@Z 10036d60 f i auth.pb.obj
 0001:00035d60       ??_GAuthenticateResultMessage@@UAEPAXI@Z 10036d60 f i auth.pb.obj
 0001:00035db0       ??_GAuthenticateUserGroupMessage@@UAEPAXI@Z 10036db0 f i auth.pb.obj
 0001:00035db0       ??_EAuthenticateUserGroupMessage@@UAEPAXI@Z 10036db0 f i auth.pb.obj
 0001:00035e00       ??_EAuthenticateValidateTicketMessage@@UAEPAXI@Z 10036e00 f i auth.pb.obj
 0001:00035e00       ??_GAuthenticateValidateTicketMessage@@UAEPAXI@Z 10036e00 f i auth.pb.obj
 0001:00035e50       ??_GAuthenticateValidateTicketResultMessage@@UAEPAXI@Z 10036e50 f i auth.pb.obj
 0001:00035e50       ??_EAuthenticateValidateTicketResultMessage@@UAEPAXI@Z 10036e50 f i auth.pb.obj
 0001:00035ea0       ??_GAuthenticateWithDetailsMessage@@UAEPAXI@Z 10036ea0 f i auth.pb.obj
 0001:00035ea0       ??_EAuthenticateWithDetailsMessage@@UAEPAXI@Z 10036ea0 f i auth.pb.obj
 0001:00035ef0       ??_GAuthenticateWithKeyMessage@@UAEPAXI@Z 10036ef0 f i auth.pb.obj
 0001:00035ef0       ??_EAuthenticateWithKeyMessage@@UAEPAXI@Z 10036ef0 f i auth.pb.obj
 0001:00035f40       ??_GAuthenticateWithTokenMessage@@UAEPAXI@Z 10036f40 f i auth.pb.obj
 0001:00035f40       ??_EAuthenticateWithTokenMessage@@UAEPAXI@Z 10036f40 f i auth.pb.obj
 0001:00035f90       ??_GMessageLite@protobuf@google@@UAEPAXI@Z 10036f90 f i auth.pb.obj
 0001:00035f90       ??_EMessageLite@protobuf@google@@UAEPAXI@Z 10036f90 f i auth.pb.obj
 0001:00035fe0       ?Advance@CodedInputStream@io@protobuf@google@@AAEXH@Z 10036fe0 f i auth.pb.obj
 0001:00036010       ?BufferSize@CodedInputStream@io@protobuf@google@@ABEHXZ 10037010 f i auth.pb.obj
 0001:00036040       ?ByteSize@AuthenticateExternalStatusMessage@@UBEHXZ 10037040 f   auth.pb.obj
 0001:000360c0       ?ByteSize@AuthenticateKickUserMessage@@UBEHXZ 100370c0 f   auth.pb.obj
 0001:000361a0       ?ByteSize@AuthenticateRegisterServerMessage@@UBEHXZ 100371a0 f   auth.pb.obj
 0001:00036220       ?ByteSize@AuthenticateRegisterServerResultMessage@@UBEHXZ 10037220 f   auth.pb.obj
 0001:00036310       ?ByteSize@AuthenticateResultMessage@@UBEHXZ 10037310 f   auth.pb.obj
 0001:000363f0       ?ByteSize@AuthenticateUserGroupMessage@@UBEHXZ 100373f0 f   auth.pb.obj
 0001:00036470       ?ByteSize@AuthenticateValidateTicketMessage@@UBEHXZ 10037470 f   auth.pb.obj
 0001:00036530       ?ByteSize@AuthenticateValidateTicketResultMessage@@UBEHXZ 10037530 f   auth.pb.obj
 0001:00036610       ?ByteSize@AuthenticateWithDetailsMessage@@UBEHXZ 10037610 f   auth.pb.obj
 0001:000366d0       ?ByteSize@AuthenticateWithKeyMessage@@UBEHXZ 100376d0 f   auth.pb.obj
 0001:00036750       ?ByteSize@AuthenticateWithTokenMessage@@UBEHXZ 10037750 f   auth.pb.obj
 0001:000367d0       ?BytesSize@WireFormatLite@internal@protobuf@google@@SAHABV?$basic_string@DU?$char_traits@D@std@@V?$allocator@D@2@@std@@@Z 100377d0 f i auth.pb.obj
 0001:00036810       ?CheckTypeAndMergeFrom@AuthenticateExternalStatusMessage@@UAEXABVMessageLite@protobuf@google@@@Z 10037810 f   auth.pb.obj
 0001:00036850       ?CheckTypeAndMergeFrom@AuthenticateKickUserMessage@@UAEXABVMessageLite@protobuf@google@@@Z 10037850 f   auth.pb.obj
 0001:00036890       ?CheckTypeAndMergeFrom@AuthenticateRegisterServerMessage@@UAEXABVMessageLite@protobuf@google@@@Z 10037890 f   auth.pb.obj
 0001:000368d0       ?CheckTypeAndMergeFrom@AuthenticateRegisterServerResultMessage@@UAEXABVMessageLite@protobuf@google@@@Z 100378d0 f   auth.pb.obj
 0001:00036910       ?CheckTypeAndMergeFrom@AuthenticateResultMessage@@UAEXABVMessageLite@protobuf@google@@@Z 10037910 f   auth.pb.obj
 0001:00036950       ?CheckTypeAndMergeFrom@AuthenticateUserGroupMessage@@UAEXABVMessageLite@protobuf@google@@@Z 10037950 f   auth.pb.obj
 0001:00036990       ?CheckTypeAndMergeFrom@AuthenticateValidateTicketMessage@@UAEXABVMessageLite@protobuf@google@@@Z 10037990 f   auth.pb.obj
 0001:000369d0       ?CheckTypeAndMergeFrom@AuthenticateValidateTicketResultMessage@@UAEXABVMessageLite@protobuf@google@@@Z 100379d0 f   auth.pb.obj
 0001:00036a10       ?CheckTypeAndMergeFrom@AuthenticateWithDetailsMessage@@UAEXABVMessageLite@protobuf@google@@@Z 10037a10 f   auth.pb.obj
 0001:00036a50       ?CheckTypeAndMergeFrom@AuthenticateWithKeyMessage@@UAEXABVMessageLite@protobuf@google@@@Z 10037a50 f   auth.pb.obj
 0001:00036a90       ?CheckTypeAndMergeFrom@AuthenticateWithTokenMessage@@UAEXABVMessageLite@protobuf@google@@@Z 10037a90 f   auth.pb.obj
 0001:00036ad0       ?Clear@AuthenticateExternalStatusMessage@@UAEXXZ 10037ad0 f   auth.pb.obj
 0001:00036b30       ?Clear@AuthenticateKickUserMessage@@UAEXXZ 10037b30 f   auth.pb.obj
 0001:00036bd0       ?Clear@AuthenticateRegisterServerMessage@@UAEXXZ 10037bd0 f   auth.pb.obj
 0001:00036c50       ?Clear@AuthenticateRegisterServerResultMessage@@UAEXXZ 10037c50 f   auth.pb.obj
 0001:00036cf0       ?Clear@AuthenticateResultMessage@@UAEXXZ 10037cf0 f   auth.pb.obj
 0001:00036d90       ?Clear@AuthenticateUserGroupMessage@@UAEXXZ 10037d90 f   auth.pb.obj
 0001:00036df0       ?Clear@AuthenticateValidateTicketMessage@@UAEXXZ 10037df0 f   auth.pb.obj
 0001:00036e90       ?Clear@AuthenticateValidateTicketResultMessage@@UAEXXZ 10037e90 f   auth.pb.obj
 0001:00036f10       ?Clear@AuthenticateWithDetailsMessage@@UAEXXZ 10037f10 f   auth.pb.obj
 0001:00036fc0       ?Clear@AuthenticateWithKeyMessage@@UAEXXZ 10037fc0 f   auth.pb.obj
 0001:00037040       ?Clear@AuthenticateWithTokenMessage@@UAEXXZ 10038040 f   auth.pb.obj
 0001:000370c0       ?CopyFrom@AuthenticateExternalStatusMessage@@QAEXABV1@@Z 100380c0 f   auth.pb.obj
 0001:00037110       ?CopyFrom@AuthenticateKickUserMessage@@QAEXABV1@@Z 10038110 f   auth.pb.obj
 0001:00037160       ?CopyFrom@AuthenticateRegisterServerMessage@@QAEXABV1@@Z 10038160 f   auth.pb.obj
 0001:000371b0       ?CopyFrom@AuthenticateRegisterServerResultMessage@@QAEXABV1@@Z 100381b0 f   auth.pb.obj
 0001:00037200       ?CopyFrom@AuthenticateResultMessage@@QAEXABV1@@Z 10038200 f   auth.pb.obj
 0001:00037250       ?CopyFrom@AuthenticateUserGroupMessage@@QAEXABV1@@Z 10038250 f   auth.pb.obj
 0001:000372a0       ?CopyFrom@AuthenticateValidateTicketMessage@@QAEXABV1@@Z 100382a0 f   auth.pb.obj
 0001:000372f0       ?CopyFrom@AuthenticateValidateTicketResultMessage@@QAEXABV1@@Z 100382f0 f   auth.pb.obj
 0001:00037340       ?CopyFrom@AuthenticateWithDetailsMessage@@QAEXABV1@@Z 10038340 f   auth.pb.obj
 0001:00037390       ?CopyFrom@AuthenticateWithKeyMessage@@QAEXABV1@@Z 10038390 f   auth.pb.obj
 0001:000373e0       ?CopyFrom@AuthenticateWithTokenMessage@@QAEXABV1@@Z 100383e0 f   auth.pb.obj
 0001:00037430       ?ExpectAtEnd@CodedInputStream@io@protobuf@google@@QAE_NXZ 10038430 f i auth.pb.obj
 0001:000374a0       ?ExpectTag@CodedInputStream@io@protobuf@google@@QAE_NI@Z 100384a0 f i auth.pb.obj
 0001:000375a0       ?GetCachedSize@AuthenticateExternalStatusMessage@@UBEHXZ 100385a0 f i auth.pb.obj
 0001:000375c0       ?GetCachedSize@AuthenticateKickUserMessage@@UBEHXZ 100385c0 f i auth.pb.obj
 0001:000375e0       ?GetCachedSize@AuthenticateRegisterServerMessage@@UBEHXZ 100385e0 f i auth.pb.obj
 0001:00037600       ?GetCachedSize@AuthenticateRegisterServerResultMessage@@UBEHXZ 10038600 f i auth.pb.obj
 0001:00037620       ?GetCachedSize@AuthenticateResultMessage@@UBEHXZ 10038620 f i auth.pb.obj
 0001:00037640       ?GetCachedSize@AuthenticateUserGroupMessage@@UBEHXZ 10038640 f i auth.pb.obj
 0001:00037660       ?GetCachedSize@AuthenticateValidateTicketMessage@@UBEHXZ 10038660 f i auth.pb.obj
 0001:00037680       ?GetCachedSize@AuthenticateValidateTicketResultMessage@@UBEHXZ 10038680 f i auth.pb.obj
 0001:000376a0       ?GetCachedSize@AuthenticateWithDetailsMessage@@UBEHXZ 100386a0 f i auth.pb.obj
 0001:000376c0       ?GetCachedSize@AuthenticateWithKeyMessage@@UBEHXZ 100386c0 f i auth.pb.obj
 0001:000376e0       ?GetCachedSize@AuthenticateWithTokenMessage@@UBEHXZ 100386e0 f i auth.pb.obj
 0001:00037700       ?GetTagFieldNumber@WireFormatLite@internal@protobuf@google@@SAHI@Z 10038700 f i auth.pb.obj
 0001:00037720       ?GetTagWireType@WireFormatLite@internal@protobuf@google@@SA?AW4WireType@1234@I@Z 10038720 f i auth.pb.obj
 0001:00037740       ?GetTypeName@AuthenticateExternalStatusMessage@@UBE?AV?$basic_string@DU?$char_traits@D@std@@V?$allocator@D@2@@std@@XZ 10038740 f   auth.pb.obj
 0001:00037790       ?GetTypeName@AuthenticateKickUserMessage@@UBE?AV?$basic_string@DU?$char_traits@D@std@@V?$allocator@D@2@@std@@XZ 10038790 f   auth.pb.obj
 0001:000377e0       ?GetTypeName@AuthenticateRegisterServerMessage@@UBE?AV?$basic_string@DU?$char_traits@D@std@@V?$allocator@D@2@@std@@XZ 100387e0 f   auth.pb.obj
 0001:00037830       ?GetTypeName@AuthenticateRegisterServerResultMessage@@UBE?AV?$basic_string@DU?$char_traits@D@std@@V?$allocator@D@2@@std@@XZ 10038830 f   auth.pb.obj
 0001:00037880       ?GetTypeName@AuthenticateResultMessage@@UBE?AV?$basic_string@DU?$char_traits@D@std@@V?$allocator@D@2@@std@@XZ 10038880 f   auth.pb.obj
 0001:000378d0       ?GetTypeName@AuthenticateUserGroupMessage@@UBE?AV?$basic_string@DU?$char_traits@D@std@@V?$allocator@D@2@@std@@XZ 100388d0 f   auth.pb.obj
 0001:00037920       ?GetTypeName@AuthenticateValidateTicketMessage@@UBE?AV?$basic_string@DU?$char_traits@D@std@@V?$allocator@D@2@@std@@XZ 10038920 f   auth.pb.obj
 0001:00037970       ?GetTypeName@AuthenticateValidateTicketResultMessage@@UBE?AV?$basic_string@DU?$char_traits@D@std@@V?$allocator@D@2@@std@@XZ 10038970 f   auth.pb.obj
 0001:000379c0       ?GetTypeName@AuthenticateWithDetailsMessage@@UBE?AV?$basic_string@DU?$char_traits@D@std@@V?$allocator@D@2@@std@@XZ 100389c0 f   auth.pb.obj
 0001:00037a10       ?GetTypeName@AuthenticateWithKeyMessage@@UBE?AV?$basic_string@DU?$char_traits@D@std@@V?$allocator@D@2@@std@@XZ 10038a10 f   auth.pb.obj
 0001:00037a60       ?GetTypeName@AuthenticateWithTokenMessage@@UBE?AV?$basic_string@DU?$char_traits@D@std@@V?$allocator@D@2@@std@@XZ 10038a60 f   auth.pb.obj
 0001:00037ab0       ?InitAsDefaultInstance@AuthenticateExternalStatusMessage@@AAEXXZ 10038ab0 f   auth.pb.obj
 0001:00037ad0       ?InitAsDefaultInstance@AuthenticateKickUserMessage@@AAEXXZ 10038ad0 f   auth.pb.obj
 0001:00037af0       ?InitAsDefaultInstance@AuthenticateRegisterServerMessage@@AAEXXZ 10038af0 f   auth.pb.obj
 0001:00037b10       ?InitAsDefaultInstance@AuthenticateRegisterServerResultMessage@@AAEXXZ 10038b10 f   auth.pb.obj
 0001:00037b30       ?InitAsDefaultInstance@AuthenticateResultMessage@@AAEXXZ 10038b30 f   auth.pb.obj
 0001:00037b50       ?InitAsDefaultInstance@AuthenticateUserGroupMessage@@AAEXXZ 10038b50 f   auth.pb.obj
 0001:00037b70       ?InitAsDefaultInstance@AuthenticateValidateTicketMessage@@AAEXXZ 10038b70 f   auth.pb.obj
 0001:00037b90       ?InitAsDefaultInstance@AuthenticateValidateTicketResultMessage@@AAEXXZ 10038b90 f   auth.pb.obj
 0001:00037bb0       ?InitAsDefaultInstance@AuthenticateWithDetailsMessage@@AAEXXZ 10038bb0 f   auth.pb.obj
 0001:00037bd0       ?InitAsDefaultInstance@AuthenticateWithKeyMessage@@AAEXXZ 10038bd0 f   auth.pb.obj
 0001:00037bf0       ?InitAsDefaultInstance@AuthenticateWithTokenMessage@@AAEXXZ 10038bf0 f   auth.pb.obj
 0001:00037c10       ?Int32Size@WireFormatLite@internal@protobuf@google@@SAHH@Z 10038c10 f i auth.pb.obj
 0001:00037c40       ?IsInitialized@AuthenticateExternalStatusMessage@@UBE_NXZ 10038c40 f   auth.pb.obj
 0001:00037c80       ?IsInitialized@AuthenticateKickUserMessage@@UBE_NXZ 10038c80 f   auth.pb.obj
 0001:00037cc0       ?IsInitialized@AuthenticateRegisterServerMessage@@UBE_NXZ 10038cc0 f   auth.pb.obj
 0001:00037ce0       ?IsInitialized@AuthenticateRegisterServerResultMessage@@UBE_NXZ 10038ce0 f   auth.pb.obj
 0001:00037d20       ?IsInitialized@AuthenticateResultMessage@@UBE_NXZ 10038d20 f   auth.pb.obj
 0001:00037d60       ?IsInitialized@AuthenticateUserGroupMessage@@UBE_NXZ 10038d60 f   auth.pb.obj
 0001:00037da0       ?IsInitialized@AuthenticateValidateTicketMessage@@UBE_NXZ 10038da0 f   auth.pb.obj
 0001:00037de0       ?IsInitialized@AuthenticateValidateTicketResultMessage@@UBE_NXZ 10038de0 f   auth.pb.obj
 0001:00037e20       ?IsInitialized@AuthenticateWithDetailsMessage@@UBE_NXZ 10038e20 f   auth.pb.obj
 0001:00037e60       ?IsInitialized@AuthenticateWithKeyMessage@@UBE_NXZ 10038e60 f   auth.pb.obj
 0001:00037ea0       ?IsInitialized@AuthenticateWithTokenMessage@@UBE_NXZ 10038ea0 f   auth.pb.obj
 0001:00037ee0       ?MergeFrom@AuthenticateExternalStatusMessage@@QAEXABV1@@Z 10038ee0 f   auth.pb.obj
 0001:00038030       ?MergeFrom@AuthenticateKickUserMessage@@QAEXABV1@@Z 10039030 f   auth.pb.obj
 0001:000381d0       ?MergeFrom@AuthenticateRegisterServerMessage@@QAEXABV1@@Z 100391d0 f   auth.pb.obj
 0001:00038320       ?MergeFrom@AuthenticateRegisterServerResultMessage@@QAEXABV1@@Z 10039320 f   auth.pb.obj
 0001:000384c0       ?MergeFrom@AuthenticateResultMessage@@QAEXABV1@@Z 100394c0 f   auth.pb.obj
 0001:00038660       ?MergeFrom@AuthenticateUserGroupMessage@@QAEXABV1@@Z 10039660 f   auth.pb.obj
 0001:000387b0       ?MergeFrom@AuthenticateValidateTicketMessage@@QAEXABV1@@Z 100397b0 f   auth.pb.obj
 0001:00038950       ?MergeFrom@AuthenticateValidateTicketResultMessage@@QAEXABV1@@Z 10039950 f   auth.pb.obj
 0001:00038af0       ?MergeFrom@AuthenticateWithDetailsMessage@@QAEXABV1@@Z 10039af0 f   auth.pb.obj
 0001:00038c70       ?MergeFrom@AuthenticateWithKeyMessage@@QAEXABV1@@Z 10039c70 f   auth.pb.obj
 0001:00038dc0       ?MergeFrom@AuthenticateWithTokenMessage@@QAEXABV1@@Z 10039dc0 f   auth.pb.obj
 0001:00038f10       ?MergePartialFromCodedStream@AuthenticateExternalStatusMessage@@UAE_NPAVCodedInputStream@io@protobuf@google@@@Z 10039f10 f   auth.pb.obj
 0001:00039010       ?MergePartialFromCodedStream@AuthenticateKickUserMessage@@UAE_NPAVCodedInputStream@io@protobuf@google@@@Z 1003a010 f   auth.pb.obj
 0001:00039200       ?MergePartialFromCodedStream@AuthenticateRegisterServerMessage@@UAE_NPAVCodedInputStream@io@protobuf@google@@@Z 1003a200 f   auth.pb.obj
 0001:00039300       ?MergePartialFromCodedStream@AuthenticateRegisterServerResultMessage@@UAE_NPAVCodedInputStream@io@protobuf@google@@@Z 1003a300 f   auth.pb.obj
 0001:00039500       ?MergePartialFromCodedStream@AuthenticateResultMessage@@UAE_NPAVCodedInputStream@io@protobuf@google@@@Z 1003a500 f   auth.pb.obj
 0001:000396f0       ?MergePartialFromCodedStream@AuthenticateUserGroupMessage@@UAE_NPAVCodedInputStream@io@protobuf@google@@@Z 1003a6f0 f   auth.pb.obj
 0001:000397f0       ?MergePartialFromCodedStream@AuthenticateValidateTicketMessage@@UAE_NPAVCodedInputStream@io@protobuf@google@@@Z 1003a7f0 f   auth.pb.obj
 0001:000399f0       ?MergePartialFromCodedStream@AuthenticateValidateTicketResultMessage@@UAE_NPAVCodedInputStream@io@protobuf@google@@@Z 1003a9f0 f   auth.pb.obj
 0001:00039bf0       ?MergePartialFromCodedStream@AuthenticateWithDetailsMessage@@UAE_NPAVCodedInputStream@io@protobuf@google@@@Z 1003abf0 f   auth.pb.obj
 0001:00039d60       ?MergePartialFromCodedStream@AuthenticateWithKeyMessage@@UAE_NPAVCodedInputStream@io@protobuf@google@@@Z 1003ad60 f   auth.pb.obj
 0001:00039e60       ?MergePartialFromCodedStream@AuthenticateWithTokenMessage@@UAE_NPAVCodedInputStream@io@protobuf@google@@@Z 1003ae60 f   auth.pb.obj
 0001:00039f60       ?New@AuthenticateExternalStatusMessage@@UBEPAV1@XZ 1003af60 f   auth.pb.obj
 0001:0003a000       ?New@AuthenticateKickUserMessage@@UBEPAV1@XZ 1003b000 f   auth.pb.obj
 0001:0003a0a0       ?New@AuthenticateRegisterServerMessage@@UBEPAV1@XZ 1003b0a0 f   auth.pb.obj
 0001:0003a140       ?New@AuthenticateRegisterServerResultMessage@@UBEPAV1@XZ 1003b140 f   auth.pb.obj
 0001:0003a1e0       ?New@AuthenticateResultMessage@@UBEPAV1@XZ 1003b1e0 f   auth.pb.obj
 0001:0003a280       ?New@AuthenticateUserGroupMessage@@UBEPAV1@XZ 1003b280 f   auth.pb.obj
 0001:0003a320       ?New@AuthenticateValidateTicketMessage@@UBEPAV1@XZ 1003b320 f   auth.pb.obj
 0001:0003a3c0       ?New@AuthenticateValidateTicketResultMessage@@UBEPAV1@XZ 1003b3c0 f   auth.pb.obj
 0001:0003a460       ?New@AuthenticateWithDetailsMessage@@UBEPAV1@XZ 1003b460 f   auth.pb.obj
 0001:0003a500       ?New@AuthenticateWithKeyMessage@@UBEPAV1@XZ 1003b500 f   auth.pb.obj
 0001:0003a5a0       ?New@AuthenticateWithTokenMessage@@UBEPAV1@XZ 1003b5a0 f   auth.pb.obj
 0001:0003a640       ?ReadLittleEndian32@CodedInputStream@io@protobuf@google@@QAE_NPAI@Z 1003b640 f i auth.pb.obj
 0001:0003a6b0       ?ReadLittleEndian64@CodedInputStream@io@protobuf@google@@QAE_NPA_K@Z 1003b6b0 f i auth.pb.obj
 0001:0003a720       ?ReadTag@CodedInputStream@io@protobuf@google@@QAEIXZ 1003b720 f i auth.pb.obj
 0001:0003a7c0       ?ReadVarint32@CodedInputStream@io@protobuf@google@@QAE_NPAI@Z 1003b7c0 f i auth.pb.obj
 0001:0003a840       ?SerializeWithCachedSizes@AuthenticateExternalStatusMessage@@UBEXPAVCodedOutputStream@io@protobuf@google@@@Z 1003b840 f   auth.pb.obj
 0001:0003a890       ?SerializeWithCachedSizes@AuthenticateKickUserMessage@@UBEXPAVCodedOutputStream@io@protobuf@google@@@Z 1003b890 f   auth.pb.obj
 0001:0003a940       ?SerializeWithCachedSizes@AuthenticateRegisterServerMessage@@UBEXPAVCodedOutputStream@io@protobuf@google@@@Z 1003b940 f   auth.pb.obj
 0001:0003a990       ?SerializeWithCachedSizes@AuthenticateRegisterServerResultMessage@@UBEXPAVCodedOutputStream@io@protobuf@google@@@Z 1003b990 f   auth.pb.obj
 0001:0003aa40       ?SerializeWithCachedSizes@AuthenticateResultMessage@@UBEXPAVCodedOutputStream@io@protobuf@google@@@Z 1003ba40 f   auth.pb.obj
 0001:0003aaf0       ?SerializeWithCachedSizes@AuthenticateUserGroupMessage@@UBEXPAVCodedOutputStream@io@protobuf@google@@@Z 1003baf0 f   auth.pb.obj
 0001:0003ab40       ?SerializeWithCachedSizes@AuthenticateValidateTicketMessage@@UBEXPAVCodedOutputStream@io@protobuf@google@@@Z 1003bb40 f   auth.pb.obj
 0001:0003abf0       ?SerializeWithCachedSizes@AuthenticateValidateTicketResultMessage@@UBEXPAVCodedOutputStream@io@protobuf@google@@@Z 1003bbf0 f   auth.pb.obj
 0001:0003aca0       ?SerializeWithCachedSizes@AuthenticateWithDetailsMessage@@UBEXPAVCodedOutputStream@io@protobuf@google@@@Z 1003bca0 f   auth.pb.obj
 0001:0003ad20       ?SerializeWithCachedSizes@AuthenticateWithKeyMessage@@UBEXPAVCodedOutputStream@io@protobuf@google@@@Z 1003bd20 f   auth.pb.obj
 0001:0003ad70       ?SerializeWithCachedSizes@AuthenticateWithTokenMessage@@UBEXPAVCodedOutputStream@io@protobuf@google@@@Z 1003bd70 f   auth.pb.obj
 0001:0003adc0       ?SetCachedSize@AuthenticateExternalStatusMessage@@ABEXH@Z 1003bdc0 f   auth.pb.obj
 0001:0003adf0       ?SetCachedSize@AuthenticateKickUserMessage@@ABEXH@Z 1003bdf0 f   auth.pb.obj
 0001:0003ae20       ?SetCachedSize@AuthenticateRegisterServerMessage@@ABEXH@Z 1003be20 f   auth.pb.obj
 0001:0003ae50       ?SetCachedSize@AuthenticateRegisterServerResultMessage@@ABEXH@Z 1003be50 f   auth.pb.obj
 0001:0003ae80       ?SetCachedSize@AuthenticateResultMessage@@ABEXH@Z 1003be80 f   auth.pb.obj
 0001:0003aeb0       ?SetCachedSize@AuthenticateUserGroupMessage@@ABEXH@Z 1003beb0 f   auth.pb.obj
 0001:0003aee0       ?SetCachedSize@AuthenticateValidateTicketMessage@@ABEXH@Z 1003bee0 f   auth.pb.obj
 0001:0003af10       ?SetCachedSize@AuthenticateValidateTicketResultMessage@@ABEXH@Z 1003bf10 f   auth.pb.obj
 0001:0003af40       ?SetCachedSize@AuthenticateWithDetailsMessage@@ABEXH@Z 1003bf40 f   auth.pb.obj
 0001:0003af70       ?SetCachedSize@AuthenticateWithKeyMessage@@ABEXH@Z 1003bf70 f   auth.pb.obj
 0001:0003afa0       ?SetCachedSize@AuthenticateWithTokenMessage@@ABEXH@Z 1003bfa0 f   auth.pb.obj
 0001:0003afd0       ?SharedCtor@AuthenticateExternalStatusMessage@@AAEXXZ 1003bfd0 f   auth.pb.obj
 0001:0003b020       ?SharedCtor@AuthenticateKickUserMessage@@AAEXXZ 1003c020 f   auth.pb.obj
 0001:0003b090       ?SharedCtor@AuthenticateRegisterServerMessage@@AAEXXZ 1003c090 f   auth.pb.obj
 0001:0003b0e0       ?SharedCtor@AuthenticateRegisterServerResultMessage@@AAEXXZ 1003c0e0 f   auth.pb.obj
 0001:0003b150       ?SharedCtor@AuthenticateResultMessage@@AAEXXZ 1003c150 f   auth.pb.obj
 0001:0003b1c0       ?SharedCtor@AuthenticateUserGroupMessage@@AAEXXZ 1003c1c0 f   auth.pb.obj
 0001:0003b210       ?SharedCtor@AuthenticateValidateTicketMessage@@AAEXXZ 1003c210 f   auth.pb.obj
 0001:0003b280       ?SharedCtor@AuthenticateValidateTicketResultMessage@@AAEXXZ 1003c280 f   auth.pb.obj
 0001:0003b2f0       ?SharedCtor@AuthenticateWithDetailsMessage@@AAEXXZ 1003c2f0 f   auth.pb.obj
 0001:0003b350       ?SharedCtor@AuthenticateWithKeyMessage@@AAEXXZ 1003c350 f   auth.pb.obj
 0001:0003b3a0       ?SharedCtor@AuthenticateWithTokenMessage@@AAEXXZ 1003c3a0 f   auth.pb.obj
 0001:0003b3f0       ?SharedDtor@AuthenticateExternalStatusMessage@@AAEXXZ 1003c3f0 f   auth.pb.obj
 0001:0003b410       ?SharedDtor@AuthenticateKickUserMessage@@AAEXXZ 1003c410 f   auth.pb.obj
 0001:0003b470       ?SharedDtor@AuthenticateRegisterServerMessage@@AAEXXZ 1003c470 f   auth.pb.obj
 0001:0003b4d0       ?SharedDtor@AuthenticateRegisterServerResultMessage@@AAEXXZ 1003c4d0 f   auth.pb.obj
 0001:0003b530       ?SharedDtor@AuthenticateResultMessage@@AAEXXZ 1003c530 f   auth.pb.obj
 0001:0003b590       ?SharedDtor@AuthenticateUserGroupMessage@@AAEXXZ 1003c590 f   auth.pb.obj
 0001:0003b5b0       ?SharedDtor@AuthenticateValidateTicketMessage@@AAEXXZ 1003c5b0 f   auth.pb.obj
 0001:0003b610       ?SharedDtor@AuthenticateValidateTicketResultMessage@@AAEXXZ 1003c610 f   auth.pb.obj
 0001:0003b630       ?SharedDtor@AuthenticateWithDetailsMessage@@AAEXXZ 1003c630 f   auth.pb.obj
 0001:0003b6e0       ?SharedDtor@AuthenticateWithKeyMessage@@AAEXXZ 1003c6e0 f   auth.pb.obj
 0001:0003b740       ?SharedDtor@AuthenticateWithTokenMessage@@AAEXXZ 1003c740 f   auth.pb.obj
 0001:0003b7a0       ?StringSize@WireFormatLite@internal@protobuf@google@@SAHABV?$basic_string@DU?$char_traits@D@std@@V?$allocator@D@2@@std@@@Z 1003c7a0 f i auth.pb.obj
 0001:0003b7e0       ?Swap@AuthenticateExternalStatusMessage@@QAEXPAV1@@Z 1003c7e0 f   auth.pb.obj
 0001:0003b870       ?Swap@AuthenticateKickUserMessage@@QAEXPAV1@@Z 1003c870 f   auth.pb.obj
 0001:0003b940       ?Swap@AuthenticateRegisterServerMessage@@QAEXPAV1@@Z 1003c940 f   auth.pb.obj
 0001:0003b9d0       ?Swap@AuthenticateRegisterServerResultMessage@@QAEXPAV1@@Z 1003c9d0 f   auth.pb.obj
 0001:0003baa0       ?Swap@AuthenticateResultMessage@@QAEXPAV1@@Z 1003caa0 f   auth.pb.obj
 0001:0003bb70       ?Swap@AuthenticateUserGroupMessage@@QAEXPAV1@@Z 1003cb70 f   auth.pb.obj
 0001:0003bc00       ?Swap@AuthenticateValidateTicketMessage@@QAEXPAV1@@Z 1003cc00 f   auth.pb.obj
 0001:0003bcd0       ?Swap@AuthenticateValidateTicketResultMessage@@QAEXPAV1@@Z 1003ccd0 f   auth.pb.obj
 0001:0003bda0       ?Swap@AuthenticateWithDetailsMessage@@QAEXPAV1@@Z 1003cda0 f   auth.pb.obj
 0001:0003be50       ?Swap@AuthenticateWithKeyMessage@@QAEXPAV1@@Z 1003ce50 f   auth.pb.obj
 0001:0003bee0       ?Swap@AuthenticateWithTokenMessage@@QAEXPAV1@@Z 1003cee0 f   auth.pb.obj
 0001:0003bf70       ?VarintSize32@CodedOutputStream@io@protobuf@google@@SAHI@Z 1003cf70 f i auth.pb.obj
 0001:0003bfb0       ?VarintSize32SignExtended@CodedOutputStream@io@protobuf@google@@SAHH@Z 1003cfb0 f i auth.pb.obj
 0001:0003bff0       ?clear@?$basic_string@DU?$char_traits@D@std@@V?$allocator@D@2@@std@@QAEXXZ 1003cff0 f i auth.pb.obj
 0001:0003c020       ?clientip@AuthenticateValidateTicketMessage@@QBEIXZ 1003d020 f i auth.pb.obj
 0001:0003c040       ?configpath@AuthenticateRegisterServerMessage@@QBEABV?$basic_string@DU?$char_traits@D@std@@V?$allocator@D@2@@std@@XZ 1003d040 f i auth.pb.obj
 0001:0003c060       ?default_instance@AuthenticateExternalStatusMessage@@SAABV1@XZ 1003d060 f   auth.pb.obj
 0001:0003c090       ?default_instance@AuthenticateKickUserMessage@@SAABV1@XZ 1003d090 f   auth.pb.obj
 0001:0003c0c0       ?default_instance@AuthenticateRegisterServerMessage@@SAABV1@XZ 1003d0c0 f   auth.pb.obj
 0001:0003c0f0       ?default_instance@AuthenticateRegisterServerResultMessage@@SAABV1@XZ 1003d0f0 f   auth.pb.obj
 0001:0003c120       ?default_instance@AuthenticateResultMessage@@SAABV1@XZ 1003d120 f   auth.pb.obj
 0001:0003c150       ?default_instance@AuthenticateUserGroupMessage@@SAABV1@XZ 1003d150 f   auth.pb.obj
 0001:0003c180       ?default_instance@AuthenticateValidateTicketMessage@@SAABV1@XZ 1003d180 f   auth.pb.obj
 0001:0003c1b0       ?default_instance@AuthenticateValidateTicketResultMessage@@SAABV1@XZ 1003d1b0 f   auth.pb.obj
 0001:0003c1e0       ?default_instance@AuthenticateWithDetailsMessage@@SAABV1@XZ 1003d1e0 f   auth.pb.obj
 0001:0003c210       ?default_instance@AuthenticateWithKeyMessage@@SAABV1@XZ 1003d210 f   auth.pb.obj
 0001:0003c240       ?default_instance@AuthenticateWithTokenMessage@@SAABV1@XZ 1003d240 f   auth.pb.obj
 0001:0003c270       ?has_clientip@AuthenticateValidateTicketMessage@@QBE_NXZ 1003d270 f i auth.pb.obj
 0001:0003c2c0       ?has_configpath@AuthenticateRegisterServerMessage@@QBE_NXZ 1003d2c0 f i auth.pb.obj
 0001:0003c310       ?has_groupid@AuthenticateUserGroupMessage@@QBE_NXZ 1003d310 f i auth.pb.obj
 0001:0003c360       ?has_groupid@AuthenticateValidateTicketResultMessage@@QBE_NXZ 1003d360 f i auth.pb.obj
 0001:0003c3b0       ?has_licensekey@AuthenticateRegisterServerResultMessage@@QBE_NXZ 1003d3b0 f i auth.pb.obj
 0001:0003c400       ?has_licensekey@AuthenticateWithKeyMessage@@QBE_NXZ 1003d400 f i auth.pb.obj
 0001:0003c450       ?has_npid@AuthenticateKickUserMessage@@QBE_NXZ 1003d450 f i auth.pb.obj
 0001:0003c4a0       ?has_npid@AuthenticateResultMessage@@QBE_NXZ 1003d4a0 f i auth.pb.obj
 0001:0003c4f0       ?has_npid@AuthenticateValidateTicketMessage@@QBE_NXZ 1003d4f0 f i auth.pb.obj
 0001:0003c540       ?has_npid@AuthenticateValidateTicketResultMessage@@QBE_NXZ 1003d540 f i auth.pb.obj
 0001:0003c590       ?has_password@AuthenticateWithDetailsMessage@@QBE_NXZ 1003d590 f i auth.pb.obj
 0001:0003c5e0       ?has_reason@AuthenticateKickUserMessage@@QBE_NXZ 1003d5e0 f i auth.pb.obj
 0001:0003c630       ?has_reasonstring@AuthenticateKickUserMessage@@QBE_NXZ 1003d630 f i auth.pb.obj
 0001:0003c680       ?has_result@AuthenticateRegisterServerResultMessage@@QBE_NXZ 1003d680 f i auth.pb.obj
 0001:0003c6d0       ?has_result@AuthenticateResultMessage@@QBE_NXZ 1003d6d0 f i auth.pb.obj
 0001:0003c720       ?has_result@AuthenticateValidateTicketResultMessage@@QBE_NXZ 1003d720 f i auth.pb.obj
 0001:0003c770       ?has_serverid@AuthenticateRegisterServerResultMessage@@QBE_NXZ 1003d770 f i auth.pb.obj
 0001:0003c7c0       ?has_sessiontoken@AuthenticateResultMessage@@QBE_NXZ 1003d7c0 f i auth.pb.obj
 0001:0003c810       ?has_status@AuthenticateExternalStatusMessage@@QBE_NXZ 1003d810 f i auth.pb.obj
 0001:0003c860       ?has_ticket@AuthenticateValidateTicketMessage@@QBE_NXZ 1003d860 f i auth.pb.obj
 0001:0003c8b0       ?has_token@AuthenticateWithTokenMessage@@QBE_NXZ 1003d8b0 f i auth.pb.obj
 0001:0003c900       ?has_username@AuthenticateWithDetailsMessage@@QBE_NXZ 1003d900 f i auth.pb.obj
 0001:0003c950       ?licensekey@AuthenticateWithKeyMessage@@QBEABV?$basic_string@DU?$char_traits@D@std@@V?$allocator@D@2@@std@@XZ 1003d950 f i auth.pb.obj
 0001:0003c970       ?mutable_configpath@AuthenticateRegisterServerMessage@@QAEPAV?$basic_string@DU?$char_traits@D@std@@V?$allocator@D@2@@std@@XZ 1003d970 f i auth.pb.obj
 0001:0003ca40       ?mutable_licensekey@AuthenticateRegisterServerResultMessage@@QAEPAV?$basic_string@DU?$char_traits@D@std@@V?$allocator@D@2@@std@@XZ 1003da40 f i auth.pb.obj
 0001:0003cb10       ?mutable_licensekey@AuthenticateWithKeyMessage@@QAEPAV?$basic_string@DU?$char_traits@D@std@@V?$allocator@D@2@@std@@XZ 1003db10 f i auth.pb.obj
 0001:0003cbe0       ?mutable_password@AuthenticateWithDetailsMessage@@QAEPAV?$basic_string@DU?$char_traits@D@std@@V?$allocator@D@2@@std@@XZ 1003dbe0 f i auth.pb.obj
 0001:0003ccb0       ?mutable_reasonstring@AuthenticateKickUserMessage@@QAEPAV?$basic_string@DU?$char_traits@D@std@@V?$allocator@D@2@@std@@XZ 1003dcb0 f i auth.pb.obj
 0001:0003cd80       ?mutable_sessiontoken@AuthenticateResultMessage@@QAEPAV?$basic_string@DU?$char_traits@D@std@@V?$allocator@D@2@@std@@XZ 1003dd80 f i auth.pb.obj
 0001:0003ce50       ?mutable_ticket@AuthenticateValidateTicketMessage@@QAEPAV?$basic_string@DU?$char_traits@D@std@@V?$allocator@D@2@@std@@XZ 1003de50 f i auth.pb.obj
 0001:0003cf20       ?mutable_token@AuthenticateWithTokenMessage@@QAEPAV?$basic_string@DU?$char_traits@D@std@@V?$allocator@D@2@@std@@XZ 1003df20 f i auth.pb.obj
 0001:0003cff0       ?mutable_username@AuthenticateWithDetailsMessage@@QAEPAV?$basic_string@DU?$char_traits@D@std@@V?$allocator@D@2@@std@@XZ 1003dff0 f i auth.pb.obj
 0001:0003d0c0       ?npid@AuthenticateValidateTicketMessage@@QBE_KXZ 1003e0c0 f i auth.pb.obj
 0001:0003d0f0       ?password@AuthenticateWithDetailsMessage@@QBEABV?$basic_string@DU?$char_traits@D@std@@V?$allocator@D@2@@std@@XZ 1003e0f0 f i auth.pb.obj
 0001:0003d110       ?protobuf_AddDesc_auth_2eproto@@YAXXZ 1003e110 f   auth.pb.obj
 0001:0003d6c0       ?protobuf_ShutdownFile_auth_2eproto@@YAXXZ 1003e6c0 f   auth.pb.obj
 0001:0003d9f0       ?reason@AuthenticateKickUserMessage@@QBEHXZ 1003e9f0 f i auth.pb.obj
 0001:0003da10       ?set_configpath@AuthenticateRegisterServerMessage@@QAEXABV?$basic_string@DU?$char_traits@D@std@@V?$allocator@D@2@@std@@@Z 1003ea10 f i auth.pb.obj
 0001:0003dae0       ?set_groupid@AuthenticateUserGroupMessage@@QAEXH@Z 1003eae0 f i auth.pb.obj
 0001:0003db10       ?set_groupid@AuthenticateValidateTicketResultMessage@@QAEXH@Z 1003eb10 f i auth.pb.obj
 0001:0003db40       ?set_has_groupid@AuthenticateUserGroupMessage@@AAEXXZ 1003eb40 f i auth.pb.obj
 0001:0003db90       ?set_has_groupid@AuthenticateValidateTicketResultMessage@@AAEXXZ 1003eb90 f i auth.pb.obj
 0001:0003dbe0       ?set_has_licensekey@AuthenticateRegisterServerResultMessage@@AAEXXZ 1003ebe0 f i auth.pb.obj
 0001:0003dc30       ?set_has_npid@AuthenticateKickUserMessage@@AAEXXZ 1003ec30 f i auth.pb.obj
 0001:0003dc80       ?set_has_npid@AuthenticateResultMessage@@AAEXXZ 1003ec80 f i auth.pb.obj
 0001:0003dcd0       ?set_has_npid@AuthenticateValidateTicketResultMessage@@AAEXXZ 1003ecd0 f i auth.pb.obj
 0001:0003dd20       ?set_has_reason@AuthenticateKickUserMessage@@AAEXXZ 1003ed20 f i auth.pb.obj
 0001:0003dd70       ?set_has_reasonstring@AuthenticateKickUserMessage@@AAEXXZ 1003ed70 f i auth.pb.obj
 0001:0003ddc0       ?set_has_result@AuthenticateRegisterServerResultMessage@@AAEXXZ 1003edc0 f i auth.pb.obj
 0001:0003de10       ?set_has_result@AuthenticateResultMessage@@AAEXXZ 1003ee10 f i auth.pb.obj
 0001:0003de60       ?set_has_result@AuthenticateValidateTicketResultMessage@@AAEXXZ 1003ee60 f i auth.pb.obj
 0001:0003deb0       ?set_has_serverid@AuthenticateRegisterServerResultMessage@@AAEXXZ 1003eeb0 f i auth.pb.obj
 0001:0003df00       ?set_has_sessiontoken@AuthenticateResultMessage@@AAEXXZ 1003ef00 f i auth.pb.obj
 0001:0003df50       ?set_has_status@AuthenticateExternalStatusMessage@@AAEXXZ 1003ef50 f i auth.pb.obj
 0001:0003dfa0       ?set_licensekey@AuthenticateRegisterServerResultMessage@@QAEXABV?$basic_string@DU?$char_traits@D@std@@V?$allocator@D@2@@std@@@Z 1003efa0 f i auth.pb.obj
 0001:0003e070       ?set_licensekey@AuthenticateWithKeyMessage@@QAEXABV?$basic_string@DU?$char_traits@D@std@@V?$allocator@D@2@@std@@@Z 1003f070 f i auth.pb.obj
 0001:0003e140       ?set_npid@AuthenticateKickUserMessage@@QAEX_K@Z 1003f140 f i auth.pb.obj
 0001:0003e180       ?set_npid@AuthenticateResultMessage@@QAEX_K@Z 1003f180 f i auth.pb.obj
 0001:0003e1c0       ?set_npid@AuthenticateValidateTicketResultMessage@@QAEX_K@Z 1003f1c0 f i auth.pb.obj
 0001:0003e200       ?set_password@AuthenticateWithDetailsMessage@@QAEXABV?$basic_string@DU?$char_traits@D@std@@V?$allocator@D@2@@std@@@Z 1003f200 f i auth.pb.obj
 0001:0003e2d0       ?set_reason@AuthenticateKickUserMessage@@QAEXH@Z 1003f2d0 f i auth.pb.obj
 0001:0003e300       ?set_reasonstring@AuthenticateKickUserMessage@@QAEXABV?$basic_string@DU?$char_traits@D@std@@V?$allocator@D@2@@std@@@Z 1003f300 f i auth.pb.obj
 0001:0003e3d0       ?set_result@AuthenticateRegisterServerResultMessage@@QAEXH@Z 1003f3d0 f i auth.pb.obj
 0001:0003e400       ?set_result@AuthenticateResultMessage@@QAEXH@Z 1003f400 f i auth.pb.obj
 0001:0003e430       ?set_result@AuthenticateValidateTicketResultMessage@@QAEXH@Z 1003f430 f i auth.pb.obj
 0001:0003e460       ?set_serverid@AuthenticateRegisterServerResultMessage@@QAEXH@Z 1003f460 f i auth.pb.obj
 0001:0003e490       ?set_sessiontoken@AuthenticateResultMessage@@QAEXABV?$basic_string@DU?$char_traits@D@std@@V?$allocator@D@2@@std@@@Z 1003f490 f i auth.pb.obj
 0001:0003e560       ?set_status@AuthenticateExternalStatusMessage@@QAEXH@Z 1003f560 f i auth.pb.obj
 0001:0003e590       ?set_token@AuthenticateWithTokenMessage@@QAEXABV?$basic_string@DU?$char_traits@D@std@@V?$allocator@D@2@@std@@@Z 1003f590 f i auth.pb.obj
 0001:0003e660       ?set_username@AuthenticateWithDetailsMessage@@QAEXABV?$basic_string@DU?$char_traits@D@std@@V?$allocator@D@2@@std@@@Z 1003f660 f i auth.pb.obj
 0001:0003e730       ?ticket@AuthenticateValidateTicketMessage@@QBEABV?$basic_string@DU?$char_traits@D@std@@V?$allocator@D@2@@std@@XZ 1003f730 f i auth.pb.obj
 0001:0003e750       ?token@AuthenticateWithTokenMessage@@QBEABV?$basic_string@DU?$char_traits@D@std@@V?$allocator@D@2@@std@@XZ 1003f750 f i auth.pb.obj
 0001:0003e770       ?username@AuthenticateWithDetailsMessage@@QBEABV?$basic_string@DU?$char_traits@D@std@@V?$allocator@D@2@@std@@XZ 1003f770 f i auth.pb.obj
 0001:0003e790       ??$Add@VTypeHandler@?$RepeatedPtrField@VFriendDetails@@@protobuf@google@@@RepeatedPtrFieldBase@internal@protobuf@google@@IAEPAVFriendDetails@@XZ 1003f790 f i friends.pb.obj
 0001:0003e870       ??$Add@VTypeHandler@?$RepeatedPtrField@VProfileDataResult@@@protobuf@google@@@RepeatedPtrFieldBase@internal@protobuf@google@@IAEPAVProfileDataResult@@XZ 1003f870 f i friends.pb.obj
 0001:0003e950       ??$Clear@VTypeHandler@?$RepeatedPtrField@VFriendDetails@@@protobuf@google@@@RepeatedPtrFieldBase@internal@protobuf@google@@IAEXXZ 1003f950 f i friends.pb.obj
 0001:0003e9c0       ??$Clear@VTypeHandler@?$RepeatedPtrField@VFriendsPresence@@@protobuf@google@@@RepeatedPtrFieldBase@internal@protobuf@google@@IAEXXZ 1003f9c0 f i friends.pb.obj
 0001:0003ea30       ??$Clear@VTypeHandler@?$RepeatedPtrField@VProfileDataResult@@@protobuf@google@@@RepeatedPtrFieldBase@internal@protobuf@google@@IAEXXZ 1003fa30 f i friends.pb.obj
 0001:0003eaa0       ??$Destroy@VTypeHandler@?$RepeatedPtrField@VFriendDetails@@@protobuf@google@@@RepeatedPtrFieldBase@internal@protobuf@google@@IAEXXZ 1003faa0 f i friends.pb.obj
 0001:0003eb20       ??$Destroy@VTypeHandler@?$RepeatedPtrField@VFriendsPresence@@@protobuf@google@@@RepeatedPtrFieldBase@internal@protobuf@google@@IAEXXZ 1003fb20 f i friends.pb.obj
 0001:0003eba0       ??$Destroy@VTypeHandler@?$RepeatedPtrField@VProfileDataResult@@@protobuf@google@@@RepeatedPtrFieldBase@internal@protobuf@google@@IAEXXZ 1003fba0 f i friends.pb.obj
 0001:0003ec20       ??$MergeFrom@VTypeHandler@?$RepeatedPtrField@VFriendDetails@@@protobuf@google@@@RepeatedPtrFieldBase@internal@protobuf@google@@IAEXABV0123@@Z 1003fc20 f i friends.pb.obj
 0001:0003eca0       ??$MergeFrom@VTypeHandler@?$RepeatedPtrField@VFriendsPresence@@@protobuf@google@@@RepeatedPtrFieldBase@internal@protobuf@google@@IAEXABV0123@@Z 1003fca0 f i friends.pb.obj
 0001:0003ed20       ??$MergeFrom@VTypeHandler@?$RepeatedPtrField@VProfileDataResult@@@protobuf@google@@@RepeatedPtrFieldBase@internal@protobuf@google@@IAEXABV0123@@Z 1003fd20 f i friends.pb.obj
 0001:0003eda0       ??$MessageSizeNoVirtual@VFriendDetails@@@WireFormatLite@internal@protobuf@google@@SAHABVFriendDetails@@@Z 1003fda0 f i friends.pb.obj
 0001:0003edd0       ??$MessageSizeNoVirtual@VFriendsPresence@@@WireFormatLite@internal@protobuf@google@@SAHABVFriendsPresence@@@Z 1003fdd0 f i friends.pb.obj
 0001:0003ee00       ??$MessageSizeNoVirtual@VProfileDataResult@@@WireFormatLite@internal@protobuf@google@@SAHABVProfileDataResult@@@Z 1003fe00 f i friends.pb.obj
 0001:0003ee30       ??$ReadMessageNoVirtual@VFriendDetails@@@WireFormatLite@internal@protobuf@google@@SA_NPAVCodedInputStream@io@23@PAVFriendDetails@@@Z 1003fe30 f i friends.pb.obj
 0001:0003eee0       ??$ReadMessageNoVirtual@VFriendsPresence@@@WireFormatLite@internal@protobuf@google@@SA_NPAVCodedInputStream@io@23@PAVFriendsPresence@@@Z 1003fee0 f i friends.pb.obj
 0001:0003ef90       ??$ReadMessageNoVirtual@VProfileDataResult@@@WireFormatLite@internal@protobuf@google@@SA_NPAVCodedInputStream@io@23@PAVProfileDataResult@@@Z 1003ff90 f i friends.pb.obj
 0001:0003f040       ??$ReadPackedPrimitive@_K$05@WireFormatLite@internal@protobuf@google@@SA_NPAVCodedInputStream@io@23@PAV?$RepeatedField@_K@23@@Z 10040040 f i friends.pb.obj
 0001:0003f0e0       ??$ReadPackedPrimitiveNoInline@_K$05@WireFormatLite@internal@protobuf@google@@SA_NPAVCodedInputStream@io@23@PAV?$RepeatedField@_K@23@@Z 100400e0 f i friends.pb.obj
 0001:0003f110       ??$ReadPrimitiveFromArray@_K$05@WireFormatLite@internal@protobuf@google@@SAPBEPBEPA_K@Z 10040110 f i friends.pb.obj
 0001:0003f140       ??$ReadRepeatedFixedSizePrimitive@_K$05@WireFormatLite@internal@protobuf@google@@CA_NHIPAVCodedInputStream@io@23@PAV?$RepeatedField@_K@23@@Z 10040140 f i friends.pb.obj
 0001:0003f3c0       ??$ReadRepeatedPrimitive@_K$05@WireFormatLite@internal@protobuf@google@@SA_NHIPAVCodedInputStream@io@23@PAV?$RepeatedField@_K@23@@Z 100403c0 f i friends.pb.obj
 0001:0003f400       ??$down_cast@PBVFriendDetails@@$$CBVMessageLite@protobuf@google@@@internal@protobuf@google@@YAPBVFriendDetails@@PBVMessageLite@12@@Z 10040400 f i friends.pb.obj
 0001:0003f440       ??$down_cast@PBVFriendsGetProfileDataMessage@@$$CBVMessageLite@protobuf@google@@@internal@protobuf@google@@YAPBVFriendsGetProfileDataMessage@@PBVMessageLite@12@@Z 10040440 f i friends.pb.obj
 0001:0003f480       ??$down_cast@PBVFriendsGetProfileDataResultMessage@@$$CBVMessageLite@protobuf@google@@@internal@protobuf@google@@YAPBVFriendsGetProfileDataResultMessage@@PBVMessageLite@12@@Z 10040480 f i friends.pb.obj
 0001:0003f4c0       ??$down_cast@PBVFriendsGetUserAvatarMessage@@$$CBVMessageLite@protobuf@google@@@internal@protobuf@google@@YAPBVFriendsGetUserAvatarMessage@@PBVMessageLite@12@@Z 100404c0 f i friends.pb.obj
 0001:0003f500       ??$down_cast@PBVFriendsGetUserAvatarResultMessage@@$$CBVMessageLite@protobuf@google@@@internal@protobuf@google@@YAPBVFriendsGetUserAvatarResultMessage@@PBVMessageLite@12@@Z 10040500 f i friends.pb.obj
 0001:0003f540       ??$down_cast@PBVFriendsPresence@@$$CBVMessageLite@protobuf@google@@@internal@protobuf@google@@YAPBVFriendsPresence@@PBVMessageLite@12@@Z 10040540 f i friends.pb.obj
 0001:0003f580       ??$down_cast@PBVFriendsPresenceMessage@@$$CBVMessageLite@protobuf@google@@@internal@protobuf@google@@YAPBVFriendsPresenceMessage@@PBVMessageLite@12@@Z 10040580 f i friends.pb.obj
 0001:0003f5c0       ??$down_cast@PBVFriendsRosterMessage@@$$CBVMessageLite@protobuf@google@@@internal@protobuf@google@@YAPBVFriendsRosterMessage@@PBVMessageLite@12@@Z 100405c0 f i friends.pb.obj
 0001:0003f600       ??$down_cast@PBVFriendsSetPresenceMessage@@$$CBVMessageLite@protobuf@google@@@internal@protobuf@google@@YAPBVFriendsSetPresenceMessage@@PBVMessageLite@12@@Z 10040600 f i friends.pb.obj
 0001:0003f640       ??$down_cast@PBVFriendsSetSteamIDMessage@@$$CBVMessageLite@protobuf@google@@@internal@protobuf@google@@YAPBVFriendsSetSteamIDMessage@@PBVMessageLite@12@@Z 10040640 f i friends.pb.obj
 0001:0003f680       ??$down_cast@PBVProfileDataResult@@$$CBVMessageLite@protobuf@google@@@internal@protobuf@google@@YAPBVProfileDataResult@@PBVMessageLite@12@@Z 10040680 f i friends.pb.obj
 0001:0003f6c0       ??$implicit_cast@PBVMessageLite@protobuf@google@@PBVFriendDetails@@@internal@protobuf@google@@YAPBVMessageLite@12@ABQBVFriendDetails@@@Z 100406c0 f i friends.pb.obj
 0001:0003f6e0       ??$implicit_cast@PBVMessageLite@protobuf@google@@PBVFriendsGetProfileDataMessage@@@internal@protobuf@google@@YAPBVMessageLite@12@ABQBVFriendsGetProfileDataMessage@@@Z 100406e0 f i friends.pb.obj
 0001:0003f700       ??$implicit_cast@PBVMessageLite@protobuf@google@@PBVFriendsGetProfileDataResultMessage@@@internal@protobuf@google@@YAPBVMessageLite@12@ABQBVFriendsGetProfileDataResultMessage@@@Z 10040700 f i friends.pb.obj
 0001:0003f720       ??$implicit_cast@PBVMessageLite@protobuf@google@@PBVFriendsGetUserAvatarMessage@@@internal@protobuf@google@@YAPBVMessageLite@12@ABQBVFriendsGetUserAvatarMessage@@@Z 10040720 f i friends.pb.obj
 0001:0003f740       ??$implicit_cast@PBVMessageLite@protobuf@google@@PBVFriendsGetUserAvatarResultMessage@@@internal@protobuf@google@@YAPBVMessageLite@12@ABQBVFriendsGetUserAvatarResultMessage@@@Z 10040740 f i friends.pb.obj
 0001:0003f760       ??$implicit_cast@PBVMessageLite@protobuf@google@@PBVFriendsPresence@@@internal@protobuf@google@@YAPBVMessageLite@12@ABQBVFriendsPresence@@@Z 10040760 f i friends.pb.obj
 0001:0003f780       ??$implicit_cast@PBVMessageLite@protobuf@google@@PBVFriendsPresenceMessage@@@internal@protobuf@google@@YAPBVMessageLite@12@ABQBVFriendsPresenceMessage@@@Z 10040780 f i friends.pb.obj
 0001:0003f7a0       ??$implicit_cast@PBVMessageLite@protobuf@google@@PBVFriendsRosterMessage@@@internal@protobuf@google@@YAPBVMessageLite@12@ABQBVFriendsRosterMessage@@@Z 100407a0 f i friends.pb.obj
 0001:0003f7c0       ??$implicit_cast@PBVMessageLite@protobuf@google@@PBVFriendsSetPresenceMessage@@@internal@protobuf@google@@YAPBVMessageLite@12@ABQBVFriendsSetPresenceMessage@@@Z 100407c0 f i friends.pb.obj
 0001:0003f7e0       ??$implicit_cast@PBVMessageLite@protobuf@google@@PBVFriendsSetSteamIDMessage@@@internal@protobuf@google@@YAPBVMessageLite@12@ABQBVFriendsSetSteamIDMessage@@@Z 100407e0 f i friends.pb.obj
 0001:0003f800       ??$implicit_cast@PBVMessageLite@protobuf@google@@PBVProfileDataResult@@@internal@protobuf@google@@YAPBVMessageLite@12@ABQBVProfileDataResult@@@Z 10040800 f i friends.pb.obj
 0001:0003f820       ??$max@H@std@@YAABHABH0@Z  10040820 f i friends.pb.obj
 0001:0003f860       ??$min@H@std@@YAABHABH0@Z  10040860 f i friends.pb.obj
 0001:0003f8a0       ??0?$RepeatedField@_K@protobuf@google@@QAE@XZ 100408a0 f i friends.pb.obj
 0001:0003f8e0       ??0?$RepeatedPtrField@VFriendDetails@@@protobuf@google@@QAE@XZ 100408e0 f i friends.pb.obj
 0001:0003f910       ??0?$RepeatedPtrField@VFriendsPresence@@@protobuf@google@@QAE@XZ 10040910 f i friends.pb.obj
 0001:0003f940       ??0?$RepeatedPtrField@VProfileDataResult@@@protobuf@google@@QAE@XZ 10040940 f i friends.pb.obj
 0001:0003f970       ??0FriendDetails@@QAE@ABV0@@Z 10040970 f   friends.pb.obj
 0001:0003fa10       ??0FriendDetails@@QAE@XZ   10040a10 f   friends.pb.obj
 0001:0003fa90       ??0FriendsGetProfileDataMessage@@QAE@ABV0@@Z 10040a90 f   friends.pb.obj
 0001:0003fb40       ??0FriendsGetProfileDataMessage@@QAE@XZ 10040b40 f   friends.pb.obj
 0001:0003fbe0       ??0FriendsGetProfileDataResultMessage@@QAE@ABV0@@Z 10040be0 f   friends.pb.obj
 0001:0003fc90       ??0FriendsGetProfileDataResultMessage@@QAE@XZ 10040c90 f   friends.pb.obj
 0001:0003fd30       ??0FriendsGetUserAvatarMessage@@QAE@ABV0@@Z 10040d30 f   friends.pb.obj
 0001:0003fdd0       ??0FriendsGetUserAvatarMessage@@QAE@XZ 10040dd0 f   friends.pb.obj
 0001:0003fe50       ??0FriendsGetUserAvatarResultMessage@@QAE@ABV0@@Z 10040e50 f   friends.pb.obj
 0001:0003fef0       ??0FriendsGetUserAvatarResultMessage@@QAE@XZ 10040ef0 f   friends.pb.obj
 0001:0003ff70       ??0FriendsPresence@@QAE@ABV0@@Z 10040f70 f   friends.pb.obj
 0001:00040010       ??0FriendsPresence@@QAE@XZ 10041010 f   friends.pb.obj
 0001:00040090       ??0FriendsPresenceMessage@@QAE@ABV0@@Z 10041090 f   friends.pb.obj
 0001:00040140       ??0FriendsPresenceMessage@@QAE@XZ 10041140 f   friends.pb.obj
 0001:000401e0       ??0FriendsRosterMessage@@QAE@ABV0@@Z 100411e0 f   friends.pb.obj
 0001:00040290       ??0FriendsRosterMessage@@QAE@XZ 10041290 f   friends.pb.obj
 0001:00040330       ??0FriendsSetPresenceMessage@@QAE@ABV0@@Z 10041330 f   friends.pb.obj
 0001:000403e0       ??0FriendsSetPresenceMessage@@QAE@XZ 100413e0 f   friends.pb.obj
 0001:00040480       ??0FriendsSetSteamIDMessage@@QAE@ABV0@@Z 10041480 f   friends.pb.obj
 0001:00040520       ??0FriendsSetSteamIDMessage@@QAE@XZ 10041520 f   friends.pb.obj
 0001:000405a0       ??0ProfileDataResult@@QAE@ABV0@@Z 100415a0 f   friends.pb.obj
 0001:00040640       ??0ProfileDataResult@@QAE@XZ 10041640 f   friends.pb.obj
 0001:000406c0       ??0RepeatedPtrFieldBase@internal@protobuf@google@@IAE@XZ 100416c0 f i friends.pb.obj
 0001:00040710       ??0StaticDescriptorInitializer_friends_2eproto@@QAE@XZ 10041710 f i friends.pb.obj
 0001:00040740       ??1?$RepeatedField@_K@protobuf@google@@QAE@XZ 10041740 f i friends.pb.obj
 0001:00040770       ??1?$RepeatedPtrField@VFriendDetails@@@protobuf@google@@QAE@XZ 10041770 f i friends.pb.obj
 0001:000407a0       ??1?$RepeatedPtrField@VFriendsPresence@@@protobuf@google@@QAE@XZ 100417a0 f i friends.pb.obj
 0001:000407d0       ??1?$RepeatedPtrField@VProfileDataResult@@@protobuf@google@@QAE@XZ 100417d0 f i friends.pb.obj
 0001:00040800       ??1FriendDetails@@UAE@XZ   10041800 f   friends.pb.obj
 0001:00040880       ??1FriendsGetProfileDataMessage@@UAE@XZ 10041880 f   friends.pb.obj
 0001:00040910       ??1FriendsGetProfileDataResultMessage@@UAE@XZ 10041910 f   friends.pb.obj
 0001:000409a0       ??1FriendsGetUserAvatarMessage@@UAE@XZ 100419a0 f   friends.pb.obj
 0001:00040a20       ??1FriendsGetUserAvatarResultMessage@@UAE@XZ 10041a20 f   friends.pb.obj
 0001:00040aa0       ??1FriendsPresence@@UAE@XZ 10041aa0 f   friends.pb.obj
 0001:00040b20       ??1FriendsPresenceMessage@@UAE@XZ 10041b20 f   friends.pb.obj
 0001:00040bb0       ??1FriendsRosterMessage@@UAE@XZ 10041bb0 f   friends.pb.obj
 0001:00040c40       ??1FriendsSetPresenceMessage@@UAE@XZ 10041c40 f   friends.pb.obj
 0001:00040cd0       ??1FriendsSetSteamIDMessage@@UAE@XZ 10041cd0 f   friends.pb.obj
 0001:00040d50       ??1ProfileDataResult@@UAE@XZ 10041d50 f   friends.pb.obj
 0001:00040dd0       ??_GFriendDetails@@UAEPAXI@Z 10041dd0 f i friends.pb.obj
 0001:00040dd0       ??_EFriendDetails@@UAEPAXI@Z 10041dd0 f i friends.pb.obj
 0001:00040e20       ??_GFriendsGetProfileDataMessage@@UAEPAXI@Z 10041e20 f i friends.pb.obj
 0001:00040e20       ??_EFriendsGetProfileDataMessage@@UAEPAXI@Z 10041e20 f i friends.pb.obj
 0001:00040e70       ??_GFriendsGetProfileDataResultMessage@@UAEPAXI@Z 10041e70 f i friends.pb.obj
 0001:00040e70       ??_EFriendsGetProfileDataResultMessage@@UAEPAXI@Z 10041e70 f i friends.pb.obj
 0001:00040ec0       ??_GFriendsGetUserAvatarMessage@@UAEPAXI@Z 10041ec0 f i friends.pb.obj
 0001:00040ec0       ??_EFriendsGetUserAvatarMessage@@UAEPAXI@Z 10041ec0 f i friends.pb.obj
 0001:00040f10       ??_EFriendsGetUserAvatarResultMessage@@UAEPAXI@Z 10041f10 f i friends.pb.obj
 0001:00040f10       ??_GFriendsGetUserAvatarResultMessage@@UAEPAXI@Z 10041f10 f i friends.pb.obj
 0001:00040f60       ??_EFriendsPresence@@UAEPAXI@Z 10041f60 f i friends.pb.obj
 0001:00040f60       ??_GFriendsPresence@@UAEPAXI@Z 10041f60 f i friends.pb.obj
 0001:00040fb0       ??_EFriendsPresenceMessage@@UAEPAXI@Z 10041fb0 f i friends.pb.obj
 0001:00040fb0       ??_GFriendsPresenceMessage@@UAEPAXI@Z 10041fb0 f i friends.pb.obj
 0001:00041000       ??_EFriendsRosterMessage@@UAEPAXI@Z 10042000 f i friends.pb.obj
 0001:00041000       ??_GFriendsRosterMessage@@UAEPAXI@Z 10042000 f i friends.pb.obj
 0001:00041050       ??_EFriendsSetPresenceMessage@@UAEPAXI@Z 10042050 f i friends.pb.obj
 0001:00041050       ??_GFriendsSetPresenceMessage@@UAEPAXI@Z 10042050 f i friends.pb.obj
 0001:000410a0       ??_EFriendsSetSteamIDMessage@@UAEPAXI@Z 100420a0 f i friends.pb.obj
 0001:000410a0       ??_GFriendsSetSteamIDMessage@@UAEPAXI@Z 100420a0 f i friends.pb.obj
 0001:000410f0       ??_EProfileDataResult@@UAEPAXI@Z 100420f0 f i friends.pb.obj
 0001:000410f0       ??_GProfileDataResult@@UAEPAXI@Z 100420f0 f i friends.pb.obj
 0001:00041140       ?Add@?$RepeatedPtrField@VFriendDetails@@@protobuf@google@@QAEPAVFriendDetails@@XZ 10042140 f i friends.pb.obj
 0001:00041170       ?Add@?$RepeatedPtrField@VProfileDataResult@@@protobuf@google@@QAEPAVProfileDataResult@@XZ 10042170 f i friends.pb.obj
 0001:000411a0       ?AddAlreadyReserved@?$RepeatedField@_K@protobuf@google@@QAEXAB_K@Z 100421a0 f i friends.pb.obj
 0001:00041300       ?ByteSize@FriendDetails@@UBEHXZ 10042300 f   friends.pb.obj
 0001:000413a0       ?ByteSize@FriendsGetProfileDataMessage@@UBEHXZ 100423a0 f   friends.pb.obj
 0001:00041400       ?ByteSize@FriendsGetProfileDataResultMessage@@UBEHXZ 10042400 f   friends.pb.obj
 0001:00041490       ?ByteSize@FriendsGetUserAvatarMessage@@UBEHXZ 10042490 f   friends.pb.obj
 0001:00041510       ?ByteSize@FriendsGetUserAvatarResultMessage@@UBEHXZ 10042510 f   friends.pb.obj
 0001:00041600       ?ByteSize@FriendsPresence@@UBEHXZ 10042600 f   friends.pb.obj
 0001:000416c0       ?ByteSize@FriendsPresenceMessage@@UBEHXZ 100426c0 f   friends.pb.obj
 0001:000417e0       ?ByteSize@FriendsRosterMessage@@UBEHXZ 100427e0 f   friends.pb.obj
 0001:00041870       ?ByteSize@FriendsSetPresenceMessage@@UBEHXZ 10042870 f   friends.pb.obj
 0001:00041900       ?ByteSize@FriendsSetSteamIDMessage@@UBEHXZ 10042900 f   friends.pb.obj
 0001:00041970       ?ByteSize@ProfileDataResult@@UBEHXZ 10042970 f   friends.pb.obj
 0001:00041a10       ?Capacity@?$RepeatedField@_K@protobuf@google@@QBEHXZ 10042a10 f i friends.pb.obj
 0001:00041a30       ?CheckTypeAndMergeFrom@FriendDetails@@UAEXABVMessageLite@protobuf@google@@@Z 10042a30 f   friends.pb.obj
 0001:00041a70       ?CheckTypeAndMergeFrom@FriendsGetProfileDataMessage@@UAEXABVMessageLite@protobuf@google@@@Z 10042a70 f   friends.pb.obj
 0001:00041ab0       ?CheckTypeAndMergeFrom@FriendsGetProfileDataResultMessage@@UAEXABVMessageLite@protobuf@google@@@Z 10042ab0 f   friends.pb.obj
 0001:00041af0       ?CheckTypeAndMergeFrom@FriendsGetUserAvatarMessage@@UAEXABVMessageLite@protobuf@google@@@Z 10042af0 f   friends.pb.obj
 0001:00041b30       ?CheckTypeAndMergeFrom@FriendsGetUserAvatarResultMessage@@UAEXABVMessageLite@protobuf@google@@@Z 10042b30 f   friends.pb.obj
 0001:00041b70       ?CheckTypeAndMergeFrom@FriendsPresence@@UAEXABVMessageLite@protobuf@google@@@Z 10042b70 f   friends.pb.obj
 0001:00041bb0       ?CheckTypeAndMergeFrom@FriendsPresenceMessage@@UAEXABVMessageLite@protobuf@google@@@Z 10042bb0 f   friends.pb.obj
 0001:00041bf0       ?CheckTypeAndMergeFrom@FriendsRosterMessage@@UAEXABVMessageLite@protobuf@google@@@Z 10042bf0 f   friends.pb.obj
 0001:00041c30       ?CheckTypeAndMergeFrom@FriendsSetPresenceMessage@@UAEXABVMessageLite@protobuf@google@@@Z 10042c30 f   friends.pb.obj
 0001:00041c70       ?CheckTypeAndMergeFrom@FriendsSetSteamIDMessage@@UAEXABVMessageLite@protobuf@google@@@Z 10042c70 f   friends.pb.obj
 0001:00041cb0       ?CheckTypeAndMergeFrom@ProfileDataResult@@UAEXABVMessageLite@protobuf@google@@@Z 10042cb0 f   friends.pb.obj
 0001:00041cf0       ?Clear@?$GenericTypeHandler@VFriendDetails@@@internal@protobuf@google@@SAXPAVFriendDetails@@@Z 10042cf0 f i friends.pb.obj
 0001:00041d20       ?Clear@?$GenericTypeHandler@VFriendsPresence@@@internal@protobuf@google@@SAXPAVFriendsPresence@@@Z 10042d20 f i friends.pb.obj
 0001:00041d50       ?Clear@?$GenericTypeHandler@VProfileDataResult@@@internal@protobuf@google@@SAXPAVProfileDataResult@@@Z 10042d50 f i friends.pb.obj
 0001:00041d80       ?Clear@?$RepeatedField@_K@protobuf@google@@QAEXXZ 10042d80 f i friends.pb.obj
 0001:00041db0       ?Clear@?$RepeatedPtrField@VFriendDetails@@@protobuf@google@@QAEXXZ 10042db0 f i friends.pb.obj
 0001:00041de0       ?Clear@?$RepeatedPtrField@VFriendsPresence@@@protobuf@google@@QAEXXZ 10042de0 f i friends.pb.obj
 0001:00041e10       ?Clear@?$RepeatedPtrField@VProfileDataResult@@@protobuf@google@@QAEXXZ 10042e10 f i friends.pb.obj
 0001:00041e40       ?Clear@FriendDetails@@UAEXXZ 10042e40 f   friends.pb.obj
 0001:00041ee0       ?Clear@FriendsGetProfileDataMessage@@UAEXXZ 10042ee0 f   friends.pb.obj
 0001:00041f20       ?Clear@FriendsGetProfileDataResultMessage@@UAEXXZ 10042f20 f   friends.pb.obj
 0001:00041f60       ?Clear@FriendsGetUserAvatarMessage@@UAEXXZ 10042f60 f   friends.pb.obj
 0001:00041fc0       ?Clear@FriendsGetUserAvatarResultMessage@@UAEXXZ 10042fc0 f   friends.pb.obj
 0001:00042060       ?Clear@FriendsPresence@@UAEXXZ 10043060 f   friends.pb.obj
 0001:00042110       ?Clear@FriendsPresenceMessage@@UAEXXZ 10043110 f   friends.pb.obj
 0001:000421b0       ?Clear@FriendsRosterMessage@@UAEXXZ 100431b0 f   friends.pb.obj
 0001:000421f0       ?Clear@FriendsSetPresenceMessage@@UAEXXZ 100431f0 f   friends.pb.obj
 0001:00042230       ?Clear@FriendsSetSteamIDMessage@@UAEXXZ 10043230 f   friends.pb.obj
 0001:000422a0       ?Clear@ProfileDataResult@@UAEXXZ 100432a0 f   friends.pb.obj
 0001:00042340       ?ConsumedEntireMessage@CodedInputStream@io@protobuf@google@@QAE_NXZ 10043340 f i friends.pb.obj
 0001:00042360       ?CopyFrom@FriendDetails@@QAEXABV1@@Z 10043360 f   friends.pb.obj
 0001:000423b0       ?CopyFrom@FriendsGetProfileDataMessage@@QAEXABV1@@Z 100433b0 f   friends.pb.obj
 0001:00042400       ?CopyFrom@FriendsGetProfileDataResultMessage@@QAEXABV1@@Z 10043400 f   friends.pb.obj
 0001:00042450       ?CopyFrom@FriendsGetUserAvatarMessage@@QAEXABV1@@Z 10043450 f   friends.pb.obj
 0001:000424a0       ?CopyFrom@FriendsGetUserAvatarResultMessage@@QAEXABV1@@Z 100434a0 f   friends.pb.obj
 0001:000424f0       ?CopyFrom@FriendsPresence@@QAEXABV1@@Z 100434f0 f   friends.pb.obj
 0001:00042540       ?CopyFrom@FriendsPresenceMessage@@QAEXABV1@@Z 10043540 f   friends.pb.obj
 0001:00042590       ?CopyFrom@FriendsRosterMessage@@QAEXABV1@@Z 10043590 f   friends.pb.obj
 0001:000425e0       ?CopyFrom@FriendsSetPresenceMessage@@QAEXABV1@@Z 100435e0 f   friends.pb.obj
 0001:00042630       ?CopyFrom@FriendsSetSteamIDMessage@@QAEXABV1@@Z 10043630 f   friends.pb.obj
 0001:00042680       ?CopyFrom@ProfileDataResult@@QAEXABV1@@Z 10043680 f   friends.pb.obj
 0001:000426d0       ?DecrementRecursionDepth@CodedInputStream@io@protobuf@google@@QAEXXZ 100436d0 f i friends.pb.obj
 0001:00042710       ?Delete@?$GenericTypeHandler@VFriendDetails@@@internal@protobuf@google@@SAXPAVFriendDetails@@@Z 10043710 f i friends.pb.obj
 0001:00042760       ?Delete@?$GenericTypeHandler@VFriendsPresence@@@internal@protobuf@google@@SAXPAVFriendsPresence@@@Z 10043760 f i friends.pb.obj
 0001:000427b0       ?Delete@?$GenericTypeHandler@VProfileDataResult@@@internal@protobuf@google@@SAXPAVProfileDataResult@@@Z 100437b0 f i friends.pb.obj
 0001:00042800       ?ExpectTagFromArray@CodedInputStream@io@protobuf@google@@SAPBEPBEI@Z 10043800 f i friends.pb.obj
 0001:000428b0       ?Get@?$RepeatedField@_K@protobuf@google@@QBEAB_KH@Z 100438b0 f i friends.pb.obj
 0001:000429e0       ?GetCachedSize@FriendDetails@@UBEHXZ 100439e0 f i friends.pb.obj
 0001:00042a00       ?GetCachedSize@FriendsGetProfileDataMessage@@UBEHXZ 10043a00 f i friends.pb.obj
 0001:00042a20       ?GetCachedSize@FriendsGetProfileDataResultMessage@@UBEHXZ 10043a20 f i friends.pb.obj
 0001:00042a40       ?GetCachedSize@FriendsGetUserAvatarMessage@@UBEHXZ 10043a40 f i friends.pb.obj
 0001:00042a60       ?GetCachedSize@FriendsGetUserAvatarResultMessage@@UBEHXZ 10043a60 f i friends.pb.obj
 0001:00042a80       ?GetCachedSize@FriendsPresence@@UBEHXZ 10043a80 f i friends.pb.obj
 0001:00042aa0       ?GetCachedSize@FriendsPresenceMessage@@UBEHXZ 10043aa0 f i friends.pb.obj
 0001:00042ac0       ?GetCachedSize@FriendsRosterMessage@@UBEHXZ 10043ac0 f i friends.pb.obj
 0001:00042ae0       ?GetCachedSize@FriendsSetPresenceMessage@@UBEHXZ 10043ae0 f i friends.pb.obj
 0001:00042b00       ?GetCachedSize@FriendsSetSteamIDMessage@@UBEHXZ 10043b00 f i friends.pb.obj
 0001:00042b20       ?GetCachedSize@ProfileDataResult@@UBEHXZ 10043b20 f i friends.pb.obj
 0001:00042b40       ?GetDirectBufferPointerInline@CodedInputStream@io@protobuf@google@@QAEXPAPBXPAH@Z 10043b40 f i friends.pb.obj
 0001:00042b80       ?GetTypeName@FriendDetails@@UBE?AV?$basic_string@DU?$char_traits@D@std@@V?$allocator@D@2@@std@@XZ 10043b80 f   friends.pb.obj
 0001:00042bd0       ?GetTypeName@FriendsGetProfileDataMessage@@UBE?AV?$basic_string@DU?$char_traits@D@std@@V?$allocator@D@2@@std@@XZ 10043bd0 f   friends.pb.obj
 0001:00042c20       ?GetTypeName@FriendsGetProfileDataResultMessage@@UBE?AV?$basic_string@DU?$char_traits@D@std@@V?$allocator@D@2@@std@@XZ 10043c20 f   friends.pb.obj
 0001:00042c70       ?GetTypeName@FriendsGetUserAvatarMessage@@UBE?AV?$basic_string@DU?$char_traits@D@std@@V?$allocator@D@2@@std@@XZ 10043c70 f   friends.pb.obj
 0001:00042cc0       ?GetTypeName@FriendsGetUserAvatarResultMessage@@UBE?AV?$basic_string@DU?$char_traits@D@std@@V?$allocator@D@2@@std@@XZ 10043cc0 f   friends.pb.obj
 0001:00042d10       ?GetTypeName@FriendsPresence@@UBE?AV?$basic_string@DU?$char_traits@D@std@@V?$allocator@D@2@@std@@XZ 10043d10 f   friends.pb.obj
 0001:00042d60       ?GetTypeName@FriendsPresenceMessage@@UBE?AV?$basic_string@DU?$char_traits@D@std@@V?$allocator@D@2@@std@@XZ 10043d60 f   friends.pb.obj
 0001:00042db0       ?GetTypeName@FriendsRosterMessage@@UBE?AV?$basic_string@DU?$char_traits@D@std@@V?$allocator@D@2@@std@@XZ 10043db0 f   friends.pb.obj
 0001:00042e00       ?GetTypeName@FriendsSetPresenceMessage@@UBE?AV?$basic_string@DU?$char_traits@D@std@@V?$allocator@D@2@@std@@XZ 10043e00 f   friends.pb.obj
 0001:00042e50       ?GetTypeName@FriendsSetSteamIDMessage@@UBE?AV?$basic_string@DU?$char_traits@D@std@@V?$allocator@D@2@@std@@XZ 10043e50 f   friends.pb.obj
 0001:00042ea0       ?GetTypeName@ProfileDataResult@@UBE?AV?$basic_string@DU?$char_traits@D@std@@V?$allocator@D@2@@std@@XZ 10043ea0 f   friends.pb.obj
 0001:00042ef0       ?IncrementRecursionDepth@CodedInputStream@io@protobuf@google@@QAE_NXZ 10043ef0 f i friends.pb.obj
 0001:00042f50       ?InitAsDefaultInstance@FriendDetails@@AAEXXZ 10043f50 f   friends.pb.obj
 0001:00042f70       ?InitAsDefaultInstance@FriendsGetProfileDataMessage@@AAEXXZ 10043f70 f   friends.pb.obj
 0001:00042f90       ?InitAsDefaultInstance@FriendsGetProfileDataResultMessage@@AAEXXZ 10043f90 f   friends.pb.obj
 0001:00042fb0       ?InitAsDefaultInstance@FriendsGetUserAvatarMessage@@AAEXXZ 10043fb0 f   friends.pb.obj
 0001:00042fd0       ?InitAsDefaultInstance@FriendsGetUserAvatarResultMessage@@AAEXXZ 10043fd0 f   friends.pb.obj
 0001:00042ff0       ?InitAsDefaultInstance@FriendsPresence@@AAEXXZ 10043ff0 f   friends.pb.obj
 0001:00043010       ?InitAsDefaultInstance@FriendsPresenceMessage@@AAEXXZ 10044010 f   friends.pb.obj
 0001:00043030       ?InitAsDefaultInstance@FriendsRosterMessage@@AAEXXZ 10044030 f   friends.pb.obj
 0001:00043050       ?InitAsDefaultInstance@FriendsSetPresenceMessage@@AAEXXZ 10044050 f   friends.pb.obj
 0001:00043070       ?InitAsDefaultInstance@FriendsSetSteamIDMessage@@AAEXXZ 10044070 f   friends.pb.obj
 0001:00043090       ?InitAsDefaultInstance@ProfileDataResult@@AAEXXZ 10044090 f   friends.pb.obj
 0001:000430b0       ?IsInitialized@FriendDetails@@UBE_NXZ 100440b0 f   friends.pb.obj
 0001:000430d0       ?IsInitialized@FriendsGetProfileDataMessage@@UBE_NXZ 100440d0 f   friends.pb.obj
 0001:000430f0       ?IsInitialized@FriendsGetProfileDataResultMessage@@UBE_NXZ 100440f0 f   friends.pb.obj
 0001:00043110       ?IsInitialized@FriendsGetUserAvatarMessage@@UBE_NXZ 10044110 f   friends.pb.obj
 0001:00043150       ?IsInitialized@FriendsGetUserAvatarResultMessage@@UBE_NXZ 10044150 f   friends.pb.obj
 0001:00043190       ?IsInitialized@FriendsPresence@@UBE_NXZ 10044190 f   friends.pb.obj
 0001:000431d0       ?IsInitialized@FriendsPresenceMessage@@UBE_NXZ 100441d0 f   friends.pb.obj
 0001:00043270       ?IsInitialized@FriendsRosterMessage@@UBE_NXZ 10044270 f   friends.pb.obj
 0001:00043290       ?IsInitialized@FriendsSetPresenceMessage@@UBE_NXZ 10044290 f   friends.pb.obj
 0001:00043310       ?IsInitialized@FriendsSetSteamIDMessage@@UBE_NXZ 10044310 f   friends.pb.obj
 0001:00043350       ?IsInitialized@ProfileDataResult@@UBE_NXZ 10044350 f   friends.pb.obj
 0001:00043370       ?LengthDelimitedSize@WireFormatLite@internal@protobuf@google@@SAHH@Z 10044370 f i friends.pb.obj
 0001:000433a0       ?Merge@?$GenericTypeHandler@VFriendDetails@@@internal@protobuf@google@@SAXABVFriendDetails@@PAV5@@Z 100443a0 f i friends.pb.obj
 0001:000433d0       ?Merge@?$GenericTypeHandler@VFriendsPresence@@@internal@protobuf@google@@SAXABVFriendsPresence@@PAV5@@Z 100443d0 f i friends.pb.obj
 0001:00043400       ?Merge@?$GenericTypeHandler@VProfileDataResult@@@internal@protobuf@google@@SAXABVProfileDataResult@@PAV5@@Z 10044400 f i friends.pb.obj
 0001:00043430       ?MergeFrom@?$RepeatedField@_K@protobuf@google@@QAEXABV123@@Z 10044430 f i friends.pb.obj
 0001:000434c0       ?MergeFrom@?$RepeatedPtrField@VFriendDetails@@@protobuf@google@@QAEXABV123@@Z 100444c0 f i friends.pb.obj
 0001:000434f0       ?MergeFrom@?$RepeatedPtrField@VFriendsPresence@@@protobuf@google@@QAEXABV123@@Z 100444f0 f i friends.pb.obj
 0001:00043520       ?MergeFrom@?$RepeatedPtrField@VProfileDataResult@@@protobuf@google@@QAEXABV123@@Z 10044520 f i friends.pb.obj
 0001:00043550       ?MergeFrom@FriendDetails@@QAEXABV1@@Z 10044550 f   friends.pb.obj
 0001:000436d0       ?MergeFrom@FriendsGetProfileDataMessage@@QAEXABV1@@Z 100446d0 f   friends.pb.obj
 0001:000437f0       ?MergeFrom@FriendsGetProfileDataResultMessage@@QAEXABV1@@Z 100447f0 f   friends.pb.obj
 0001:00043910       ?MergeFrom@FriendsGetUserAvatarMessage@@QAEXABV1@@Z 10044910 f   friends.pb.obj
 0001:00043a60       ?MergeFrom@FriendsGetUserAvatarResultMessage@@QAEXABV1@@Z 10044a60 f   friends.pb.obj
 0001:00043c00       ?MergeFrom@FriendsPresence@@QAEXABV1@@Z 10044c00 f   friends.pb.obj
 0001:00043d80       ?MergeFrom@FriendsPresenceMessage@@QAEXABV1@@Z 10044d80 f   friends.pb.obj
 0001:00043f40       ?MergeFrom@FriendsRosterMessage@@QAEXABV1@@Z 10044f40 f   friends.pb.obj
 0001:00044060       ?MergeFrom@FriendsSetPresenceMessage@@QAEXABV1@@Z 10045060 f   friends.pb.obj
 0001:00044180       ?MergeFrom@FriendsSetSteamIDMessage@@QAEXABV1@@Z 10045180 f   friends.pb.obj
 0001:000442d0       ?MergeFrom@ProfileDataResult@@QAEXABV1@@Z 100452d0 f   friends.pb.obj
 0001:00044450       ?MergePartialFromCodedStream@FriendDetails@@UAE_NPAVCodedInputStream@io@protobuf@google@@@Z 10045450 f   friends.pb.obj
 0001:000445c0       ?MergePartialFromCodedStream@FriendsGetProfileDataMessage@@UAE_NPAVCodedInputStream@io@protobuf@google@@@Z 100455c0 f   friends.pb.obj
 0001:00044720       ?MergePartialFromCodedStream@FriendsGetProfileDataResultMessage@@UAE_NPAVCodedInputStream@io@protobuf@google@@@Z 10045720 f   friends.pb.obj
 0001:00044830       ?MergePartialFromCodedStream@FriendsGetUserAvatarMessage@@UAE_NPAVCodedInputStream@io@protobuf@google@@@Z 10045830 f   friends.pb.obj
 0001:00044930       ?MergePartialFromCodedStream@FriendsGetUserAvatarResultMessage@@UAE_NPAVCodedInputStream@io@protobuf@google@@@Z 10045930 f   friends.pb.obj
 0001:00044b20       ?MergePartialFromCodedStream@FriendsPresence@@UAE_NPAVCodedInputStream@io@protobuf@google@@@Z 10045b20 f   friends.pb.obj
 0001:00044c90       ?MergePartialFromCodedStream@FriendsPresenceMessage@@UAE_NPAVCodedInputStream@io@protobuf@google@@@Z 10045c90 f   friends.pb.obj
 0001:00044f30       ?MergePartialFromCodedStream@FriendsRosterMessage@@UAE_NPAVCodedInputStream@io@protobuf@google@@@Z 10045f30 f   friends.pb.obj
 0001:00045040       ?MergePartialFromCodedStream@FriendsSetPresenceMessage@@UAE_NPAVCodedInputStream@io@protobuf@google@@@Z 10046040 f   friends.pb.obj
 0001:00045150       ?MergePartialFromCodedStream@FriendsSetSteamIDMessage@@UAE_NPAVCodedInputStream@io@protobuf@google@@@Z 10046150 f   friends.pb.obj
 0001:00045250       ?MergePartialFromCodedStream@ProfileDataResult@@UAE_NPAVCodedInputStream@io@protobuf@google@@@Z 10046250 f   friends.pb.obj
 0001:000453c0       ?New@?$GenericTypeHandler@VFriendDetails@@@internal@protobuf@google@@SAPAVFriendDetails@@XZ 100463c0 f i friends.pb.obj
 0001:00045460       ?New@?$GenericTypeHandler@VProfileDataResult@@@internal@protobuf@google@@SAPAVProfileDataResult@@XZ 10046460 f i friends.pb.obj
 0001:00045500       ?New@FriendDetails@@UBEPAV1@XZ 10046500 f   friends.pb.obj
 0001:000455a0       ?New@FriendsGetProfileDataMessage@@UBEPAV1@XZ 100465a0 f   friends.pb.obj
 0001:00045640       ?New@FriendsGetProfileDataResultMessage@@UBEPAV1@XZ 10046640 f   friends.pb.obj
 0001:000456e0       ?New@FriendsGetUserAvatarMessage@@UBEPAV1@XZ 100466e0 f   friends.pb.obj
 0001:00045780       ?New@FriendsGetUserAvatarResultMessage@@UBEPAV1@XZ 10046780 f   friends.pb.obj
 0001:00045820       ?New@FriendsPresence@@UBEPAV1@XZ 10046820 f   friends.pb.obj
 0001:000458c0       ?New@FriendsPresenceMessage@@UBEPAV1@XZ 100468c0 f   friends.pb.obj
 0001:00045960       ?New@FriendsRosterMessage@@UBEPAV1@XZ 10046960 f   friends.pb.obj
 0001:00045a00       ?New@FriendsSetPresenceMessage@@UBEPAV1@XZ 10046a00 f   friends.pb.obj
 0001:00045aa0       ?New@FriendsSetSteamIDMessage@@UBEPAV1@XZ 10046aa0 f   friends.pb.obj
 0001:00045b40       ?New@ProfileDataResult@@UBEPAV1@XZ 10046b40 f   friends.pb.obj
 0001:00045be0       ?ReadLittleEndian64FromArray@CodedInputStream@io@protobuf@google@@SAPBEPBEPA_K@Z 10046be0 f i friends.pb.obj
 0001:00045c20       ?SerializeWithCachedSizes@FriendDetails@@UBEXPAVCodedOutputStream@io@protobuf@google@@@Z 10046c20 f   friends.pb.obj
 0001:00045ca0       ?SerializeWithCachedSizes@FriendsGetProfileDataMessage@@UBEXPAVCodedOutputStream@io@protobuf@google@@@Z 10046ca0 f   friends.pb.obj
 0001:00045d10       ?SerializeWithCachedSizes@FriendsGetProfileDataResultMessage@@UBEXPAVCodedOutputStream@io@protobuf@google@@@Z 10046d10 f   friends.pb.obj
 0001:00045d80       ?SerializeWithCachedSizes@FriendsGetUserAvatarMessage@@UBEXPAVCodedOutputStream@io@protobuf@google@@@Z 10046d80 f   friends.pb.obj
 0001:00045dd0       ?SerializeWithCachedSizes@FriendsGetUserAvatarResultMessage@@UBEXPAVCodedOutputStream@io@protobuf@google@@@Z 10046dd0 f   friends.pb.obj
 0001:00045e80       ?SerializeWithCachedSizes@FriendsPresence@@UBEXPAVCodedOutputStream@io@protobuf@google@@@Z 10046e80 f   friends.pb.obj
 0001:00045f00       ?SerializeWithCachedSizes@FriendsPresenceMessage@@UBEXPAVCodedOutputStream@io@protobuf@google@@@Z 10046f00 f   friends.pb.obj
 0001:00046000       ?SerializeWithCachedSizes@FriendsRosterMessage@@UBEXPAVCodedOutputStream@io@protobuf@google@@@Z 10047000 f   friends.pb.obj
 0001:00046070       ?SerializeWithCachedSizes@FriendsSetPresenceMessage@@UBEXPAVCodedOutputStream@io@protobuf@google@@@Z 10047070 f   friends.pb.obj
 0001:000460e0       ?SerializeWithCachedSizes@FriendsSetSteamIDMessage@@UBEXPAVCodedOutputStream@io@protobuf@google@@@Z 100470e0 f   friends.pb.obj
 0001:00046130       ?SerializeWithCachedSizes@ProfileDataResult@@UBEXPAVCodedOutputStream@io@protobuf@google@@@Z 10047130 f   friends.pb.obj
 0001:000461b0       ?SetCachedSize@FriendDetails@@ABEXH@Z 100471b0 f   friends.pb.obj
 0001:000461e0       ?SetCachedSize@FriendsGetProfileDataMessage@@ABEXH@Z 100471e0 f   friends.pb.obj
 0001:00046210       ?SetCachedSize@FriendsGetProfileDataResultMessage@@ABEXH@Z 10047210 f   friends.pb.obj
 0001:00046240       ?SetCachedSize@FriendsGetUserAvatarMessage@@ABEXH@Z 10047240 f   friends.pb.obj
 0001:00046270       ?SetCachedSize@FriendsGetUserAvatarResultMessage@@ABEXH@Z 10047270 f   friends.pb.obj
 0001:000462a0       ?SetCachedSize@FriendsPresence@@ABEXH@Z 100472a0 f   friends.pb.obj
 0001:000462d0       ?SetCachedSize@FriendsPresenceMessage@@ABEXH@Z 100472d0 f   friends.pb.obj
 0001:00046300       ?SetCachedSize@FriendsRosterMessage@@ABEXH@Z 10047300 f   friends.pb.obj
 0001:00046330       ?SetCachedSize@FriendsSetPresenceMessage@@ABEXH@Z 10047330 f   friends.pb.obj
 0001:00046360       ?SetCachedSize@FriendsSetSteamIDMessage@@ABEXH@Z 10047360 f   friends.pb.obj
 0001:00046390       ?SetCachedSize@ProfileDataResult@@ABEXH@Z 10047390 f   friends.pb.obj
 0001:000463c0       ?SharedCtor@FriendDetails@@AAEXXZ 100473c0 f   friends.pb.obj
 0001:00046420       ?SharedCtor@FriendsGetProfileDataMessage@@AAEXXZ 10047420 f   friends.pb.obj
 0001:00046460       ?SharedCtor@FriendsGetProfileDataResultMessage@@AAEXXZ 10047460 f   friends.pb.obj
 0001:000464a0       ?SharedCtor@FriendsGetUserAvatarMessage@@AAEXXZ 100474a0 f   friends.pb.obj
 0001:000464f0       ?SharedCtor@FriendsGetUserAvatarResultMessage@@AAEXXZ 100474f0 f   friends.pb.obj
 0001:00046560       ?SharedCtor@FriendsPresence@@AAEXXZ 10047560 f   friends.pb.obj
 0001:000465c0       ?SharedCtor@FriendsPresenceMessage@@AAEXXZ 100475c0 f   friends.pb.obj
 0001:00046640       ?SharedCtor@FriendsRosterMessage@@AAEXXZ 10047640 f   friends.pb.obj
 0001:00046680       ?SharedCtor@FriendsSetPresenceMessage@@AAEXXZ 10047680 f   friends.pb.obj
 0001:000466c0       ?SharedCtor@FriendsSetSteamIDMessage@@AAEXXZ 100476c0 f   friends.pb.obj
 0001:00046720       ?SharedCtor@ProfileDataResult@@AAEXXZ 10047720 f   friends.pb.obj
 0001:00046780       ?SharedDtor@FriendDetails@@AAEXXZ 10047780 f   friends.pb.obj
 0001:000467e0       ?SharedDtor@FriendsGetProfileDataMessage@@AAEXXZ 100477e0 f   friends.pb.obj
 0001:00046800       ?SharedDtor@FriendsGetProfileDataResultMessage@@AAEXXZ 10047800 f   friends.pb.obj
 0001:00046820       ?SharedDtor@FriendsGetUserAvatarMessage@@AAEXXZ 10047820 f   friends.pb.obj
 0001:00046840       ?SharedDtor@FriendsGetUserAvatarResultMessage@@AAEXXZ 10047840 f   friends.pb.obj
 0001:000468a0       ?SharedDtor@FriendsPresence@@AAEXXZ 100478a0 f   friends.pb.obj
 0001:00046950       ?SharedDtor@FriendsPresenceMessage@@AAEXXZ 10047950 f   friends.pb.obj
 0001:00046970       ?SharedDtor@FriendsRosterMessage@@AAEXXZ 10047970 f   friends.pb.obj
 0001:00046990       ?SharedDtor@FriendsSetPresenceMessage@@AAEXXZ 10047990 f   friends.pb.obj
 0001:000469b0       ?SharedDtor@FriendsSetSteamIDMessage@@AAEXXZ 100479b0 f   friends.pb.obj
 0001:000469d0       ?SharedDtor@ProfileDataResult@@AAEXXZ 100479d0 f   friends.pb.obj
 0001:00046a30       ?Swap@?$RepeatedField@_K@protobuf@google@@QAEXPAV123@@Z 10047a30 f i friends.pb.obj
 0001:00046ad0       ?Swap@?$RepeatedPtrField@VFriendDetails@@@protobuf@google@@QAEXPAV123@@Z 10047ad0 f i friends.pb.obj
 0001:00046b00       ?Swap@?$RepeatedPtrField@VFriendsPresence@@@protobuf@google@@QAEXPAV123@@Z 10047b00 f i friends.pb.obj
 0001:00046b30       ?Swap@?$RepeatedPtrField@VProfileDataResult@@@protobuf@google@@QAEXPAV123@@Z 10047b30 f i friends.pb.obj
 0001:00046b60       ?Swap@FriendDetails@@QAEXPAV1@@Z 10047b60 f   friends.pb.obj
 0001:00046c10       ?Swap@FriendsGetProfileDataMessage@@QAEXPAV1@@Z 10047c10 f   friends.pb.obj
 0001:00046ca0       ?Swap@FriendsGetProfileDataResultMessage@@QAEXPAV1@@Z 10047ca0 f   friends.pb.obj
 0001:00046d30       ?Swap@FriendsGetUserAvatarMessage@@QAEXPAV1@@Z 10047d30 f   friends.pb.obj
 0001:00046dc0       ?Swap@FriendsGetUserAvatarResultMessage@@QAEXPAV1@@Z 10047dc0 f   friends.pb.obj
 0001:00046e90       ?Swap@FriendsPresence@@QAEXPAV1@@Z 10047e90 f   friends.pb.obj
 0001:00046f40       ?Swap@FriendsPresenceMessage@@QAEXPAV1@@Z 10047f40 f   friends.pb.obj
 0001:00047020       ?Swap@FriendsRosterMessage@@QAEXPAV1@@Z 10048020 f   friends.pb.obj
 0001:000470b0       ?Swap@FriendsSetPresenceMessage@@QAEXPAV1@@Z 100480b0 f   friends.pb.obj
 0001:00047140       ?Swap@FriendsSetSteamIDMessage@@QAEXPAV1@@Z 10048140 f   friends.pb.obj
 0001:000471d0       ?Swap@ProfileDataResult@@QAEXPAV1@@Z 100481d0 f   friends.pb.obj
 0001:00047280       ?UInt32Size@WireFormatLite@internal@protobuf@google@@SAHI@Z 10048280 f i friends.pb.obj
 0001:000472b0       ?add_friends@FriendsRosterMessage@@QAEPAVFriendDetails@@XZ 100482b0 f i friends.pb.obj
 0001:000472e0       ?add_presence@FriendsPresenceMessage@@QAEPAVFriendsPresence@@XZ 100482e0 f i friends.pb.obj
 0001:00047310       ?add_results@FriendsGetProfileDataResultMessage@@QAEPAVProfileDataResult@@XZ 10048310 f i friends.pb.obj
 0001:00047340       ?currentserver@FriendsPresenceMessage@@QBE_KXZ 10048340 f i friends.pb.obj
 0001:00047370       ?default_instance@FriendDetails@@SAABV1@XZ 10048370 f   friends.pb.obj
 0001:000473a0       ?default_instance@FriendsGetProfileDataMessage@@SAABV1@XZ 100483a0 f   friends.pb.obj
 0001:000473d0       ?default_instance@FriendsGetProfileDataResultMessage@@SAABV1@XZ 100483d0 f   friends.pb.obj
 0001:00047400       ?default_instance@FriendsGetUserAvatarMessage@@SAABV1@XZ 10048400 f   friends.pb.obj
 0001:00047430       ?default_instance@FriendsGetUserAvatarResultMessage@@SAABV1@XZ 10048430 f   friends.pb.obj
 0001:00047460       ?default_instance@FriendsPresence@@SAABV1@XZ 10048460 f   friends.pb.obj
 0001:00047490       ?default_instance@FriendsPresenceMessage@@SAABV1@XZ 10048490 f   friends.pb.obj
 0001:000474c0       ?default_instance@FriendsRosterMessage@@SAABV1@XZ 100484c0 f   friends.pb.obj
 0001:000474f0       ?default_instance@FriendsSetPresenceMessage@@SAABV1@XZ 100484f0 f   friends.pb.obj
 0001:00047520       ?default_instance@FriendsSetSteamIDMessage@@SAABV1@XZ 10048520 f   friends.pb.obj
 0001:00047550       ?default_instance@ProfileDataResult@@SAABV1@XZ 10048550 f   friends.pb.obj
 0001:00047580       ?guid@FriendsGetUserAvatarMessage@@QBEHXZ 10048580 f i friends.pb.obj
 0001:000475a0       ?has_currentserver@FriendsPresenceMessage@@QBE_NXZ 100485a0 f i friends.pb.obj
 0001:000475f0       ?has_filedata@FriendsGetUserAvatarResultMessage@@QBE_NXZ 100485f0 f i friends.pb.obj
 0001:00047640       ?has_friend_@FriendsPresenceMessage@@QBE_NXZ 10048640 f i friends.pb.obj
 0001:00047690       ?has_guid@FriendsGetUserAvatarMessage@@QBE_NXZ 10048690 f i friends.pb.obj
 0001:000476e0       ?has_guid@FriendsGetUserAvatarResultMessage@@QBE_NXZ 100486e0 f i friends.pb.obj
 0001:00047730       ?has_key@FriendsPresence@@QBE_NXZ 10048730 f i friends.pb.obj
 0001:00047780       ?has_name@FriendDetails@@QBE_NXZ 10048780 f i friends.pb.obj
 0001:000477d0       ?has_npid@FriendDetails@@QBE_NXZ 100487d0 f i friends.pb.obj
 0001:00047820       ?has_npid@ProfileDataResult@@QBE_NXZ 10048820 f i friends.pb.obj
 0001:00047870       ?has_presencestate@FriendsPresenceMessage@@QBE_NXZ 10048870 f i friends.pb.obj
 0001:000478c0       ?has_profile@ProfileDataResult@@QBE_NXZ 100488c0 f i friends.pb.obj
 0001:00047910       ?has_result@FriendsGetUserAvatarResultMessage@@QBE_NXZ 10048910 f i friends.pb.obj
 0001:00047960       ?has_steamid@FriendsSetSteamIDMessage@@QBE_NXZ 10048960 f i friends.pb.obj
 0001:000479b0       ?has_value@FriendsPresence@@QBE_NXZ 100489b0 f i friends.pb.obj
 0001:00047a00       ?mutable_filedata@FriendsGetUserAvatarResultMessage@@QAEPAV?$basic_string@DU?$char_traits@D@std@@V?$allocator@D@2@@std@@XZ 10048a00 f i friends.pb.obj
 0001:00047ad0       ?mutable_key@FriendsPresence@@QAEPAV?$basic_string@DU?$char_traits@D@std@@V?$allocator@D@2@@std@@XZ 10048ad0 f i friends.pb.obj
 0001:00047ba0       ?mutable_name@FriendDetails@@QAEPAV?$basic_string@DU?$char_traits@D@std@@V?$allocator@D@2@@std@@XZ 10048ba0 f i friends.pb.obj
 0001:00047c70       ?mutable_npids@FriendsGetProfileDataMessage@@QAEPAV?$RepeatedField@_K@protobuf@google@@XZ 10048c70 f i friends.pb.obj
 0001:00047c90       ?mutable_profile@ProfileDataResult@@QAEPAV?$basic_string@DU?$char_traits@D@std@@V?$allocator@D@2@@std@@XZ 10048c90 f i friends.pb.obj
 0001:00047d60       ?mutable_value@FriendsPresence@@QAEPAV?$basic_string@DU?$char_traits@D@std@@V?$allocator@D@2@@std@@XZ 10048d60 f i friends.pb.obj
 0001:00047e30       ?npids@FriendsGetProfileDataMessage@@QBE_KH@Z 10048e30 f i friends.pb.obj
 0001:00047e70       ?npids_size@FriendsGetProfileDataMessage@@QBEHXZ 10048e70 f i friends.pb.obj
 0001:00047ea0       ?presence@FriendsSetPresenceMessage@@QBEABVFriendsPresence@@H@Z 10048ea0 f i friends.pb.obj
 0001:00047ed0       ?presence_size@FriendsSetPresenceMessage@@QBEHXZ 10048ed0 f i friends.pb.obj
 0001:00047f00       ?protobuf_AddDesc_friends_2eproto@@YAXXZ 10048f00 f   friends.pb.obj
 0001:000484b0       ?protobuf_ShutdownFile_friends_2eproto@@YAXXZ 100494b0 f   friends.pb.obj
 0001:000487e0       ?set_currentserver@FriendsPresenceMessage@@QAEX_K@Z 100497e0 f i friends.pb.obj
 0001:00048820       ?set_filedata@FriendsGetUserAvatarResultMessage@@QAEXABV?$basic_string@DU?$char_traits@D@std@@V?$allocator@D@2@@std@@@Z 10049820 f i friends.pb.obj
 0001:000488f0       ?set_friend_@FriendsPresenceMessage@@QAEX_K@Z 100498f0 f i friends.pb.obj
 0001:00048930       ?set_guid@FriendsGetUserAvatarResultMessage@@QAEXH@Z 10049930 f i friends.pb.obj
 0001:00048960       ?set_has_currentserver@FriendsPresenceMessage@@AAEXXZ 10049960 f i friends.pb.obj
 0001:000489b0       ?set_has_filedata@FriendsGetUserAvatarResultMessage@@AAEXXZ 100499b0 f i friends.pb.obj
 0001:00048a00       ?set_has_friend_@FriendsPresenceMessage@@AAEXXZ 10049a00 f i friends.pb.obj
 0001:00048a50       ?set_has_guid@FriendsGetUserAvatarResultMessage@@AAEXXZ 10049a50 f i friends.pb.obj
 0001:00048aa0       ?set_has_name@FriendDetails@@AAEXXZ 10049aa0 f i friends.pb.obj
 0001:00048af0       ?set_has_npid@FriendDetails@@AAEXXZ 10049af0 f i friends.pb.obj
 0001:00048b40       ?set_has_npid@ProfileDataResult@@AAEXXZ 10049b40 f i friends.pb.obj
 0001:00048b90       ?set_has_presencestate@FriendsPresenceMessage@@AAEXXZ 10049b90 f i friends.pb.obj
 0001:00048be0       ?set_has_profile@ProfileDataResult@@AAEXXZ 10049be0 f i friends.pb.obj
 0001:00048c30       ?set_has_result@FriendsGetUserAvatarResultMessage@@AAEXXZ 10049c30 f i friends.pb.obj
 0001:00048c80       ?set_name@FriendDetails@@QAEXABV?$basic_string@DU?$char_traits@D@std@@V?$allocator@D@2@@std@@@Z 10049c80 f i friends.pb.obj
 0001:00048d50       ?set_npid@FriendDetails@@QAEX_K@Z 10049d50 f i friends.pb.obj
 0001:00048d90       ?set_npid@ProfileDataResult@@QAEX_K@Z 10049d90 f i friends.pb.obj
 0001:00048dd0       ?set_presencestate@FriendsPresenceMessage@@QAEXH@Z 10049dd0 f i friends.pb.obj
 0001:00048e00       ?set_profile@ProfileDataResult@@QAEXABV?$basic_string@DU?$char_traits@D@std@@V?$allocator@D@2@@std@@@Z 10049e00 f i friends.pb.obj
 0001:00048ed0       ?set_result@FriendsGetUserAvatarResultMessage@@QAEXH@Z 10049ed0 f i friends.pb.obj
 0001:00048f00       ?size@?$RepeatedField@_K@protobuf@google@@QBEHXZ 10049f00 f i friends.pb.obj
 0001:00048f20       ?steamid@FriendsSetSteamIDMessage@@QBE_KXZ 10049f20 f i friends.pb.obj
 0001:00048f50       ??$down_cast@PBVCloseAppMessage@@$$CBVMessageLite@protobuf@google@@@internal@protobuf@google@@YAPBVCloseAppMessage@@PBVMessageLite@12@@Z 10049f50 f i hello.pb.obj
 0001:00048f90       ??$down_cast@PBVHelloMessage@@$$CBVMessageLite@protobuf@google@@@internal@protobuf@google@@YAPBVHelloMessage@@PBVMessageLite@12@@Z 10049f90 f i hello.pb.obj
 0001:00048fd0       ??$down_cast@PBVMessagingSendDataMessage@@$$CBVMessageLite@protobuf@google@@@internal@protobuf@google@@YAPBVMessagingSendDataMessage@@PBVMessageLite@12@@Z 10049fd0 f i hello.pb.obj
 0001:00049010       ??$implicit_cast@PBVMessageLite@protobuf@google@@PBVCloseAppMessage@@@internal@protobuf@google@@YAPBVMessageLite@12@ABQBVCloseAppMessage@@@Z 1004a010 f i hello.pb.obj
 0001:00049030       ??$implicit_cast@PBVMessageLite@protobuf@google@@PBVHelloMessage@@@internal@protobuf@google@@YAPBVMessageLite@12@ABQBVHelloMessage@@@Z 1004a030 f i hello.pb.obj
 0001:00049050       ??$implicit_cast@PBVMessageLite@protobuf@google@@PBVMessagingSendDataMessage@@@internal@protobuf@google@@YAPBVMessageLite@12@ABQBVMessagingSendDataMessage@@@Z 1004a050 f i hello.pb.obj
 0001:00049070       ??0CloseAppMessage@@QAE@ABV0@@Z 1004a070 f   hello.pb.obj
 0001:00049110       ??0CloseAppMessage@@QAE@XZ 1004a110 f   hello.pb.obj
 0001:00049190       ??0HelloMessage@@QAE@ABV0@@Z 1004a190 f   hello.pb.obj
 0001:00049230       ??0HelloMessage@@QAE@XZ    1004a230 f   hello.pb.obj
 0001:000492b0       ??0MessagingSendDataMessage@@QAE@ABV0@@Z 1004a2b0 f   hello.pb.obj
 0001:00049350       ??0MessagingSendDataMessage@@QAE@XZ 1004a350 f   hello.pb.obj
 0001:000493d0       ??0StaticDescriptorInitializer_hello_2eproto@@QAE@XZ 1004a3d0 f i hello.pb.obj
 0001:00049400       ??1CloseAppMessage@@UAE@XZ 1004a400 f   hello.pb.obj
 0001:00049480       ??1HelloMessage@@UAE@XZ    1004a480 f   hello.pb.obj
 0001:00049500       ??1MessagingSendDataMessage@@UAE@XZ 1004a500 f   hello.pb.obj
 0001:00049580       ??_GCloseAppMessage@@UAEPAXI@Z 1004a580 f i hello.pb.obj
 0001:00049580       ??_ECloseAppMessage@@UAEPAXI@Z 1004a580 f i hello.pb.obj
 0001:000495d0       ??_GHelloMessage@@UAEPAXI@Z 1004a5d0 f i hello.pb.obj
 0001:000495d0       ??_EHelloMessage@@UAEPAXI@Z 1004a5d0 f i hello.pb.obj
 0001:00049620       ??_GMessagingSendDataMessage@@UAEPAXI@Z 1004a620 f i hello.pb.obj
 0001:00049620       ??_EMessagingSendDataMessage@@UAEPAXI@Z 1004a620 f i hello.pb.obj
 0001:00049670       ?ByteSize@CloseAppMessage@@UBEHXZ 1004a670 f   hello.pb.obj
 0001:000496f0       ?ByteSize@HelloMessage@@UBEHXZ 1004a6f0 f   hello.pb.obj
 0001:00049820       ?ByteSize@MessagingSendDataMessage@@UBEHXZ 1004a820 f   hello.pb.obj
 0001:000498c0       ?CheckTypeAndMergeFrom@CloseAppMessage@@UAEXABVMessageLite@protobuf@google@@@Z 1004a8c0 f   hello.pb.obj
 0001:00049900       ?CheckTypeAndMergeFrom@HelloMessage@@UAEXABVMessageLite@protobuf@google@@@Z 1004a900 f   hello.pb.obj
 0001:00049940       ?CheckTypeAndMergeFrom@MessagingSendDataMessage@@UAEXABVMessageLite@protobuf@google@@@Z 1004a940 f   hello.pb.obj
 0001:00049980       ?Clear@CloseAppMessage@@UAEXXZ 1004a980 f   hello.pb.obj
 0001:00049a00       ?Clear@HelloMessage@@UAEXXZ 1004aa00 f   hello.pb.obj
 0001:00049ad0       ?Clear@MessagingSendDataMessage@@UAEXXZ 1004aad0 f   hello.pb.obj
 0001:00049b70       ?CopyFrom@CloseAppMessage@@QAEXABV1@@Z 1004ab70 f   hello.pb.obj
 0001:00049bc0       ?CopyFrom@HelloMessage@@QAEXABV1@@Z 1004abc0 f   hello.pb.obj
 0001:00049c10       ?CopyFrom@MessagingSendDataMessage@@QAEXABV1@@Z 1004ac10 f   hello.pb.obj
 0001:00049c60       ?GetCachedSize@CloseAppMessage@@UBEHXZ 1004ac60 f i hello.pb.obj
 0001:00049c80       ?GetCachedSize@HelloMessage@@UBEHXZ 1004ac80 f i hello.pb.obj
 0001:00049ca0       ?GetCachedSize@MessagingSendDataMessage@@UBEHXZ 1004aca0 f i hello.pb.obj
 0001:00049cc0       ?GetTypeName@CloseAppMessage@@UBE?AV?$basic_string@DU?$char_traits@D@std@@V?$allocator@D@2@@std@@XZ 1004acc0 f   hello.pb.obj
 0001:00049d10       ?GetTypeName@HelloMessage@@UBE?AV?$basic_string@DU?$char_traits@D@std@@V?$allocator@D@2@@std@@XZ 1004ad10 f   hello.pb.obj
 0001:00049d60       ?GetTypeName@MessagingSendDataMessage@@UBE?AV?$basic_string@DU?$char_traits@D@std@@V?$allocator@D@2@@std@@XZ 1004ad60 f   hello.pb.obj
 0001:00049db0       ?InitAsDefaultInstance@CloseAppMessage@@AAEXXZ 1004adb0 f   hello.pb.obj
 0001:00049dd0       ?InitAsDefaultInstance@HelloMessage@@AAEXXZ 1004add0 f   hello.pb.obj
 0001:00049df0       ?InitAsDefaultInstance@MessagingSendDataMessage@@AAEXXZ 1004adf0 f   hello.pb.obj
 0001:00049e10       ?IsInitialized@CloseAppMessage@@UBE_NXZ 1004ae10 f   hello.pb.obj
 0001:00049e50       ?IsInitialized@HelloMessage@@UBE_NXZ 1004ae50 f   hello.pb.obj
 0001:00049e90       ?IsInitialized@MessagingSendDataMessage@@UBE_NXZ 1004ae90 f   hello.pb.obj
 0001:00049ed0       ?MergeFrom@CloseAppMessage@@QAEXABV1@@Z 1004aed0 f   hello.pb.obj
 0001:0004a020       ?MergeFrom@HelloMessage@@QAEXABV1@@Z 1004b020 f   hello.pb.obj
 0001:0004a1f0       ?MergeFrom@MessagingSendDataMessage@@QAEXABV1@@Z 1004b1f0 f   hello.pb.obj
 0001:0004a370       ?MergePartialFromCodedStream@CloseAppMessage@@UAE_NPAVCodedInputStream@io@protobuf@google@@@Z 1004b370 f   hello.pb.obj
 0001:0004a470       ?MergePartialFromCodedStream@HelloMessage@@UAE_NPAVCodedInputStream@io@protobuf@google@@@Z 1004b470 f   hello.pb.obj
 0001:0004a6f0       ?MergePartialFromCodedStream@MessagingSendDataMessage@@UAE_NPAVCodedInputStream@io@protobuf@google@@@Z 1004b6f0 f   hello.pb.obj
 0001:0004a860       ?New@CloseAppMessage@@UBEPAV1@XZ 1004b860 f   hello.pb.obj
 0001:0004a900       ?New@HelloMessage@@UBEPAV1@XZ 1004b900 f   hello.pb.obj
 0001:0004a9a0       ?New@MessagingSendDataMessage@@UBEPAV1@XZ 1004b9a0 f   hello.pb.obj
 0001:0004aa40       ?SerializeWithCachedSizes@CloseAppMessage@@UBEXPAVCodedOutputStream@io@protobuf@google@@@Z 1004ba40 f   hello.pb.obj
 0001:0004aa90       ?SerializeWithCachedSizes@HelloMessage@@UBEXPAVCodedOutputStream@io@protobuf@google@@@Z 1004ba90 f   hello.pb.obj
 0001:0004ab70       ?SerializeWithCachedSizes@MessagingSendDataMessage@@UBEXPAVCodedOutputStream@io@protobuf@google@@@Z 1004bb70 f   hello.pb.obj
 0001:0004abf0       ?SetCachedSize@CloseAppMessage@@ABEXH@Z 1004bbf0 f   hello.pb.obj
 0001:0004ac20       ?SetCachedSize@HelloMessage@@ABEXH@Z 1004bc20 f   hello.pb.obj
 0001:0004ac50       ?SetCachedSize@MessagingSendDataMessage@@ABEXH@Z 1004bc50 f   hello.pb.obj
 0001:0004ac80       ?SharedCtor@CloseAppMessage@@AAEXXZ 1004bc80 f   hello.pb.obj
 0001:0004acd0       ?SharedCtor@HelloMessage@@AAEXXZ 1004bcd0 f   hello.pb.obj
 0001:0004ad40       ?SharedCtor@MessagingSendDataMessage@@AAEXXZ 1004bd40 f   hello.pb.obj
 0001:0004ada0       ?SharedDtor@CloseAppMessage@@AAEXXZ 1004bda0 f   hello.pb.obj
 0001:0004ae00       ?SharedDtor@HelloMessage@@AAEXXZ 1004be00 f   hello.pb.obj
 0001:0004aeb0       ?SharedDtor@MessagingSendDataMessage@@AAEXXZ 1004beb0 f   hello.pb.obj
 0001:0004af10       ?Swap@CloseAppMessage@@QAEXPAV1@@Z 1004bf10 f   hello.pb.obj
 0001:0004afa0       ?Swap@HelloMessage@@QAEXPAV1@@Z 1004bfa0 f   hello.pb.obj
 0001:0004b090       ?Swap@MessagingSendDataMessage@@QAEXPAV1@@Z 1004c090 f   hello.pb.obj
 0001:0004b140       ?default_instance@CloseAppMessage@@SAABV1@XZ 1004c140 f   hello.pb.obj
 0001:0004b170       ?default_instance@HelloMessage@@SAABV1@XZ 1004c170 f   hello.pb.obj
 0001:0004b1a0       ?default_instance@MessagingSendDataMessage@@SAABV1@XZ 1004c1a0 f   hello.pb.obj
 0001:0004b1d0       ?has_data@MessagingSendDataMessage@@QBE_NXZ 1004c1d0 f i hello.pb.obj
 0001:0004b220       ?has_name@HelloMessage@@QBE_NXZ 1004c220 f i hello.pb.obj
 0001:0004b270       ?has_npid@MessagingSendDataMessage@@QBE_NXZ 1004c270 f i hello.pb.obj
 0001:0004b2c0       ?has_number2@HelloMessage@@QBE_NXZ 1004c2c0 f i hello.pb.obj
 0001:0004b310       ?has_number@HelloMessage@@QBE_NXZ 1004c310 f i hello.pb.obj
 0001:0004b360       ?has_reason@CloseAppMessage@@QBE_NXZ 1004c360 f i hello.pb.obj
 0001:0004b3b0       ?has_stuff@HelloMessage@@QBE_NXZ 1004c3b0 f i hello.pb.obj
 0001:0004b400       ?mutable_data@MessagingSendDataMessage@@QAEPAV?$basic_string@DU?$char_traits@D@std@@V?$allocator@D@2@@std@@XZ 1004c400 f i hello.pb.obj
 0001:0004b4d0       ?mutable_name@HelloMessage@@QAEPAV?$basic_string@DU?$char_traits@D@std@@V?$allocator@D@2@@std@@XZ 1004c4d0 f i hello.pb.obj
 0001:0004b5a0       ?mutable_reason@CloseAppMessage@@QAEPAV?$basic_string@DU?$char_traits@D@std@@V?$allocator@D@2@@std@@XZ 1004c5a0 f i hello.pb.obj
 0001:0004b670       ?mutable_stuff@HelloMessage@@QAEPAV?$basic_string@DU?$char_traits@D@std@@V?$allocator@D@2@@std@@XZ 1004c670 f i hello.pb.obj
 0001:0004b740       ?name@HelloMessage@@QBEABV?$basic_string@DU?$char_traits@D@std@@V?$allocator@D@2@@std@@XZ 1004c740 f i hello.pb.obj
 0001:0004b760       ?number2@HelloMessage@@QBEHXZ 1004c760 f i hello.pb.obj
 0001:0004b780       ?number@HelloMessage@@QBEHXZ 1004c780 f i hello.pb.obj
 0001:0004b7a0       ?protobuf_AddDesc_hello_2eproto@@YAXXZ 1004c7a0 f   hello.pb.obj
 0001:0004b960       ?protobuf_ShutdownFile_hello_2eproto@@YAXXZ 1004c960 f   hello.pb.obj
 0001:0004ba20       ?reason@CloseAppMessage@@QBEABV?$basic_string@DU?$char_traits@D@std@@V?$allocator@D@2@@std@@XZ 1004ca20 f i hello.pb.obj
 0001:0004ba40       ?set_data@MessagingSendDataMessage@@QAEXABV?$basic_string@DU?$char_traits@D@std@@V?$allocator@D@2@@std@@@Z 1004ca40 f i hello.pb.obj
 0001:0004bb10       ?set_has_name@HelloMessage@@AAEXXZ 1004cb10 f i hello.pb.obj
 0001:0004bb60       ?set_has_number2@HelloMessage@@AAEXXZ 1004cb60 f i hello.pb.obj
 0001:0004bbb0       ?set_has_number@HelloMessage@@AAEXXZ 1004cbb0 f i hello.pb.obj
 0001:0004bc00       ?set_has_reason@CloseAppMessage@@AAEXXZ 1004cc00 f i hello.pb.obj
 0001:0004bc50       ?set_has_stuff@HelloMessage@@AAEXXZ 1004cc50 f i hello.pb.obj
 0001:0004bca0       ?set_name@HelloMessage@@QAEXABV?$basic_string@DU?$char_traits@D@std@@V?$allocator@D@2@@std@@@Z 1004cca0 f i hello.pb.obj
 0001:0004bd70       ?set_number2@HelloMessage@@QAEXH@Z 1004cd70 f i hello.pb.obj
 0001:0004bda0       ?set_number@HelloMessage@@QAEXH@Z 1004cda0 f i hello.pb.obj
 0001:0004bdd0       ?set_reason@CloseAppMessage@@QAEXABV?$basic_string@DU?$char_traits@D@std@@V?$allocator@D@2@@std@@@Z 1004cdd0 f i hello.pb.obj
 0001:0004bea0       ?set_stuff@HelloMessage@@QAEXABV?$basic_string@DU?$char_traits@D@std@@V?$allocator@D@2@@std@@@Z 1004cea0 f i hello.pb.obj
 0001:0004bf70       ?stuff@HelloMessage@@QBEABV?$basic_string@DU?$char_traits@D@std@@V?$allocator@D@2@@std@@XZ 1004cf70 f i hello.pb.obj
 0001:0004bf90       ??$Add@VTypeHandler@?$RepeatedPtrField@VSessionInfo@@@protobuf@google@@@RepeatedPtrFieldBase@internal@protobuf@google@@IAEPAVSessionInfo@@XZ 1004cf90 f i servers.pb.obj
 0001:0004c070       ??$Clear@VTypeHandler@?$RepeatedPtrField@VSessionInfo@@@protobuf@google@@@RepeatedPtrFieldBase@internal@protobuf@google@@IAEXXZ 1004d070 f i servers.pb.obj
 0001:0004c0e0       ??$Destroy@VTypeHandler@?$RepeatedPtrField@VSessionInfo@@@protobuf@google@@@RepeatedPtrFieldBase@internal@protobuf@google@@IAEXXZ 1004d0e0 f i servers.pb.obj
 0001:0004c160       ??$MergeFrom@VTypeHandler@?$RepeatedPtrField@VSessionInfo@@@protobuf@google@@@RepeatedPtrFieldBase@internal@protobuf@google@@IAEXABV0123@@Z 1004d160 f i servers.pb.obj
 0001:0004c1e0       ??$MessageSizeNoVirtual@VSessionInfo@@@WireFormatLite@internal@protobuf@google@@SAHABVSessionInfo@@@Z 1004d1e0 f i servers.pb.obj
 0001:0004c210       ??$ReadMessageNoVirtual@VSessionInfo@@@WireFormatLite@internal@protobuf@google@@SA_NPAVCodedInputStream@io@23@PAVSessionInfo@@@Z 1004d210 f i servers.pb.obj
 0001:0004c2c0       ??$ReadPrimitive@I$0N@@WireFormatLite@internal@protobuf@google@@SA_NPAVCodedInputStream@io@23@PAI@Z 1004d2c0 f i servers.pb.obj
 0001:0004c2f0       ??$_Move@AAPAVSessionInfo@@@std@@YA$$QAPAVSessionInfo@@AAPAV1@@Z 1004d2f0 f i servers.pb.obj
 0001:0004c310       ??$down_cast@PBVServersCreateSessionMessage@@$$CBVMessageLite@protobuf@google@@@internal@protobuf@google@@YAPBVServersCreateSessionMessage@@PBVMessageLite@12@@Z 1004d310 f i servers.pb.obj
 0001:0004c350       ??$down_cast@PBVServersCreateSessionResultMessage@@$$CBVMessageLite@protobuf@google@@@internal@protobuf@google@@YAPBVServersCreateSessionResultMessage@@PBVMessageLite@12@@Z 1004d350 f i servers.pb.obj
 0001:0004c390       ??$down_cast@PBVServersDeleteSessionMessage@@$$CBVMessageLite@protobuf@google@@@internal@protobuf@google@@YAPBVServersDeleteSessionMessage@@PBVMessageLite@12@@Z 1004d390 f i servers.pb.obj
 0001:0004c3d0       ??$down_cast@PBVServersDeleteSessionResultMessage@@$$CBVMessageLite@protobuf@google@@@internal@protobuf@google@@YAPBVServersDeleteSessionResultMessage@@PBVMessageLite@12@@Z 1004d3d0 f i servers.pb.obj
 0001:0004c410       ??$down_cast@PBVServersGetSessionsMessage@@$$CBVMessageLite@protobuf@google@@@internal@protobuf@google@@YAPBVServersGetSessionsMessage@@PBVMessageLite@12@@Z 1004d410 f i servers.pb.obj
 0001:0004c450       ??$down_cast@PBVServersGetSessionsResultMessage@@$$CBVMessageLite@protobuf@google@@@internal@protobuf@google@@YAPBVServersGetSessionsResultMessage@@PBVMessageLite@12@@Z 1004d450 f i servers.pb.obj
 0001:0004c490       ??$down_cast@PBVServersUpdateSessionMessage@@$$CBVMessageLite@protobuf@google@@@internal@protobuf@google@@YAPBVServersUpdateSessionMessage@@PBVMessageLite@12@@Z 1004d490 f i servers.pb.obj
 0001:0004c4d0       ??$down_cast@PBVServersUpdateSessionResultMessage@@$$CBVMessageLite@protobuf@google@@@internal@protobuf@google@@YAPBVServersUpdateSessionResultMessage@@PBVMessageLite@12@@Z 1004d4d0 f i servers.pb.obj
 0001:0004c510       ??$down_cast@PBVSessionInfo@@$$CBVMessageLite@protobuf@google@@@internal@protobuf@google@@YAPBVSessionInfo@@PBVMessageLite@12@@Z 1004d510 f i servers.pb.obj
 0001:0004c550       ??$implicit_cast@PBVMessageLite@protobuf@google@@PBVServersCreateSessionMessage@@@internal@protobuf@google@@YAPBVMessageLite@12@ABQBVServersCreateSessionMessage@@@Z 1004d550 f i servers.pb.obj
 0001:0004c570       ??$implicit_cast@PBVMessageLite@protobuf@google@@PBVServersCreateSessionResultMessage@@@internal@protobuf@google@@YAPBVMessageLite@12@ABQBVServersCreateSessionResultMessage@@@Z 1004d570 f i servers.pb.obj
 0001:0004c590       ??$implicit_cast@PBVMessageLite@protobuf@google@@PBVServersDeleteSessionMessage@@@internal@protobuf@google@@YAPBVMessageLite@12@ABQBVServersDeleteSessionMessage@@@Z 1004d590 f i servers.pb.obj
 0001:0004c5b0       ??$implicit_cast@PBVMessageLite@protobuf@google@@PBVServersDeleteSessionResultMessage@@@internal@protobuf@google@@YAPBVMessageLite@12@ABQBVServersDeleteSessionResultMessage@@@Z 1004d5b0 f i servers.pb.obj
 0001:0004c5d0       ??$implicit_cast@PBVMessageLite@protobuf@google@@PBVServersGetSessionsMessage@@@internal@protobuf@google@@YAPBVMessageLite@12@ABQBVServersGetSessionsMessage@@@Z 1004d5d0 f i servers.pb.obj
 0001:0004c5f0       ??$implicit_cast@PBVMessageLite@protobuf@google@@PBVServersGetSessionsResultMessage@@@internal@protobuf@google@@YAPBVMessageLite@12@ABQBVServersGetSessionsResultMessage@@@Z 1004d5f0 f i servers.pb.obj
 0001:0004c610       ??$implicit_cast@PBVMessageLite@protobuf@google@@PBVServersUpdateSessionMessage@@@internal@protobuf@google@@YAPBVMessageLite@12@ABQBVServersUpdateSessionMessage@@@Z 1004d610 f i servers.pb.obj
 0001:0004c630       ??$implicit_cast@PBVMessageLite@protobuf@google@@PBVServersUpdateSessionResultMessage@@@internal@protobuf@google@@YAPBVMessageLite@12@ABQBVServersUpdateSessionResultMessage@@@Z 1004d630 f i servers.pb.obj
 0001:0004c650       ??$implicit_cast@PBVMessageLite@protobuf@google@@PBVSessionInfo@@@internal@protobuf@google@@YAPBVMessageLite@12@ABQBVSessionInfo@@@Z 1004d650 f i servers.pb.obj
 0001:0004c670       ??$swap@PAVSessionInfo@@@std@@YAXAAPAVSessionInfo@@0@Z 1004d670 f i servers.pb.obj
 0001:0004c6d0       ??0?$RepeatedPtrField@VSessionInfo@@@protobuf@google@@QAE@XZ 1004d6d0 f i servers.pb.obj
 0001:0004c700       ??0ServersCreateSessionMessage@@QAE@ABV0@@Z 1004d700 f   servers.pb.obj
 0001:0004c7a0       ??0ServersCreateSessionMessage@@QAE@XZ 1004d7a0 f   servers.pb.obj
 0001:0004c820       ??0ServersCreateSessionResultMessage@@QAE@ABV0@@Z 1004d820 f   servers.pb.obj
 0001:0004c8c0       ??0ServersCreateSessionResultMessage@@QAE@XZ 1004d8c0 f   servers.pb.obj
 0001:0004c940       ??0ServersDeleteSessionMessage@@QAE@ABV0@@Z 1004d940 f   servers.pb.obj
 0001:0004c9e0       ??0ServersDeleteSessionMessage@@QAE@XZ 1004d9e0 f   servers.pb.obj
 0001:0004ca60       ??0ServersDeleteSessionResultMessage@@QAE@ABV0@@Z 1004da60 f   servers.pb.obj
 0001:0004cb00       ??0ServersDeleteSessionResultMessage@@QAE@XZ 1004db00 f   servers.pb.obj
 0001:0004cb80       ??0ServersGetSessionsMessage@@QAE@ABV0@@Z 1004db80 f   servers.pb.obj
 0001:0004cc20       ??0ServersGetSessionsMessage@@QAE@XZ 1004dc20 f   servers.pb.obj
 0001:0004cca0       ??0ServersGetSessionsResultMessage@@QAE@ABV0@@Z 1004dca0 f   servers.pb.obj
 0001:0004cd50       ??0ServersGetSessionsResultMessage@@QAE@XZ 1004dd50 f   servers.pb.obj
 0001:0004cdf0       ??0ServersUpdateSessionMessage@@QAE@ABV0@@Z 1004ddf0 f   servers.pb.obj
 0001:0004ce90       ??0ServersUpdateSessionMessage@@QAE@XZ 1004de90 f   servers.pb.obj
 0001:0004cf10       ??0ServersUpdateSessionResultMessage@@QAE@ABV0@@Z 1004df10 f   servers.pb.obj
 0001:0004cfb0       ??0ServersUpdateSessionResultMessage@@QAE@XZ 1004dfb0 f   servers.pb.obj
 0001:0004d030       ??0SessionInfo@@QAE@ABV0@@Z 1004e030 f   servers.pb.obj
 0001:0004d0d0       ??0SessionInfo@@QAE@XZ     1004e0d0 f   servers.pb.obj
 0001:0004d150       ??0StaticDescriptorInitializer_servers_2eproto@@QAE@XZ 1004e150 f i servers.pb.obj
 0001:0004d180       ??1?$RepeatedPtrField@VSessionInfo@@@protobuf@google@@QAE@XZ 1004e180 f i servers.pb.obj
 0001:0004d1b0       ??1ServersCreateSessionMessage@@UAE@XZ 1004e1b0 f   servers.pb.obj
 0001:0004d230       ??1ServersCreateSessionResultMessage@@UAE@XZ 1004e230 f   servers.pb.obj
 0001:0004d2b0       ??1ServersDeleteSessionMessage@@UAE@XZ 1004e2b0 f   servers.pb.obj
 0001:0004d330       ??1ServersDeleteSessionResultMessage@@UAE@XZ 1004e330 f   servers.pb.obj
 0001:0004d3b0       ??1ServersGetSessionsMessage@@UAE@XZ 1004e3b0 f   servers.pb.obj
 0001:0004d430       ??1ServersGetSessionsResultMessage@@UAE@XZ 1004e430 f   servers.pb.obj
 0001:0004d4c0       ??1ServersUpdateSessionMessage@@UAE@XZ 1004e4c0 f   servers.pb.obj
 0001:0004d540       ??1ServersUpdateSessionResultMessage@@UAE@XZ 1004e540 f   servers.pb.obj
 0001:0004d5c0       ??1SessionInfo@@UAE@XZ     1004e5c0 f   servers.pb.obj
 0001:0004d640       ??_GServersCreateSessionMessage@@UAEPAXI@Z 1004e640 f i servers.pb.obj
 0001:0004d640       ??_EServersCreateSessionMessage@@UAEPAXI@Z 1004e640 f i servers.pb.obj
 0001:0004d690       ??_GServersCreateSessionResultMessage@@UAEPAXI@Z 1004e690 f i servers.pb.obj
 0001:0004d690       ??_EServersCreateSessionResultMessage@@UAEPAXI@Z 1004e690 f i servers.pb.obj
 0001:0004d6e0       ??_EServersDeleteSessionMessage@@UAEPAXI@Z 1004e6e0 f i servers.pb.obj
 0001:0004d6e0       ??_GServersDeleteSessionMessage@@UAEPAXI@Z 1004e6e0 f i servers.pb.obj
 0001:0004d730       ??_GServersDeleteSessionResultMessage@@UAEPAXI@Z 1004e730 f i servers.pb.obj
 0001:0004d730       ??_EServersDeleteSessionResultMessage@@UAEPAXI@Z 1004e730 f i servers.pb.obj
 0001:0004d780       ??_EServersGetSessionsMessage@@UAEPAXI@Z 1004e780 f i servers.pb.obj
 0001:0004d780       ??_GServersGetSessionsMessage@@UAEPAXI@Z 1004e780 f i servers.pb.obj
 0001:0004d7d0       ??_GServersGetSessionsResultMessage@@UAEPAXI@Z 1004e7d0 f i servers.pb.obj
 0001:0004d7d0       ??_EServersGetSessionsResultMessage@@UAEPAXI@Z 1004e7d0 f i servers.pb.obj
 0001:0004d820       ??_EServersUpdateSessionMessage@@UAEPAXI@Z 1004e820 f i servers.pb.obj
 0001:0004d820       ??_GServersUpdateSessionMessage@@UAEPAXI@Z 1004e820 f i servers.pb.obj
 0001:0004d870       ??_GServersUpdateSessionResultMessage@@UAEPAXI@Z 1004e870 f i servers.pb.obj
 0001:0004d870       ??_EServersUpdateSessionResultMessage@@UAEPAXI@Z 1004e870 f i servers.pb.obj
 0001:0004d8c0       ??_GSessionInfo@@UAEPAXI@Z 1004e8c0 f i servers.pb.obj
 0001:0004d8c0       ??_ESessionInfo@@UAEPAXI@Z 1004e8c0 f i servers.pb.obj
 0001:0004d910       ?Add@?$RepeatedPtrField@VSessionInfo@@@protobuf@google@@QAEPAVSessionInfo@@XZ 1004e910 f i servers.pb.obj
 0001:0004d940       ?ByteSize@ServersCreateSessionMessage@@UBEHXZ 1004e940 f   servers.pb.obj
 0001:0004d9c0       ?ByteSize@ServersCreateSessionResultMessage@@UBEHXZ 1004e9c0 f   servers.pb.obj
 0001:0004da60       ?ByteSize@ServersDeleteSessionMessage@@UBEHXZ 1004ea60 f   servers.pb.obj
 0001:0004dad0       ?ByteSize@ServersDeleteSessionResultMessage@@UBEHXZ 1004ead0 f   servers.pb.obj
 0001:0004db50       ?ByteSize@ServersGetSessionsMessage@@UBEHXZ 1004eb50 f   servers.pb.obj
 0001:0004dbd0       ?ByteSize@ServersGetSessionsResultMessage@@UBEHXZ 1004ebd0 f   servers.pb.obj
 0001:0004dc60       ?ByteSize@ServersUpdateSessionMessage@@UBEHXZ 1004ec60 f   servers.pb.obj
 0001:0004ddb0       ?ByteSize@ServersUpdateSessionResultMessage@@UBEHXZ 1004edb0 f   servers.pb.obj
 0001:0004de30       ?ByteSize@SessionInfo@@UBEHXZ 1004ee30 f   servers.pb.obj
 0001:0004e010       ?CheckTypeAndMergeFrom@ServersCreateSessionMessage@@UAEXABVMessageLite@protobuf@google@@@Z 1004f010 f   servers.pb.obj
 0001:0004e050       ?CheckTypeAndMergeFrom@ServersCreateSessionResultMessage@@UAEXABVMessageLite@protobuf@google@@@Z 1004f050 f   servers.pb.obj
 0001:0004e090       ?CheckTypeAndMergeFrom@ServersDeleteSessionMessage@@UAEXABVMessageLite@protobuf@google@@@Z 1004f090 f   servers.pb.obj
 0001:0004e0d0       ?CheckTypeAndMergeFrom@ServersDeleteSessionResultMessage@@UAEXABVMessageLite@protobuf@google@@@Z 1004f0d0 f   servers.pb.obj
 0001:0004e110       ?CheckTypeAndMergeFrom@ServersGetSessionsMessage@@UAEXABVMessageLite@protobuf@google@@@Z 1004f110 f   servers.pb.obj
 0001:0004e150       ?CheckTypeAndMergeFrom@ServersGetSessionsResultMessage@@UAEXABVMessageLite@protobuf@google@@@Z 1004f150 f   servers.pb.obj
 0001:0004e190       ?CheckTypeAndMergeFrom@ServersUpdateSessionMessage@@UAEXABVMessageLite@protobuf@google@@@Z 1004f190 f   servers.pb.obj
 0001:0004e1d0       ?CheckTypeAndMergeFrom@ServersUpdateSessionResultMessage@@UAEXABVMessageLite@protobuf@google@@@Z 1004f1d0 f   servers.pb.obj
 0001:0004e210       ?CheckTypeAndMergeFrom@SessionInfo@@UAEXABVMessageLite@protobuf@google@@@Z 1004f210 f   servers.pb.obj
 0001:0004e250       ?Clear@?$GenericTypeHandler@VSessionInfo@@@internal@protobuf@google@@SAXPAVSessionInfo@@@Z 1004f250 f i servers.pb.obj
 0001:0004e280       ?Clear@?$RepeatedPtrField@VSessionInfo@@@protobuf@google@@QAEXXZ 1004f280 f i servers.pb.obj
 0001:0004e2b0       ?Clear@ServersCreateSessionMessage@@UAEXXZ 1004f2b0 f   servers.pb.obj
 0001:0004e330       ?Clear@ServersCreateSessionResultMessage@@UAEXXZ 1004f330 f   servers.pb.obj
 0001:0004e3a0       ?Clear@ServersDeleteSessionMessage@@UAEXXZ 1004f3a0 f   servers.pb.obj
 0001:0004e410       ?Clear@ServersDeleteSessionResultMessage@@UAEXXZ 1004f410 f   servers.pb.obj
 0001:0004e470       ?Clear@ServersGetSessionsMessage@@UAEXXZ 1004f470 f   servers.pb.obj
 0001:0004e4f0       ?Clear@ServersGetSessionsResultMessage@@UAEXXZ 1004f4f0 f   servers.pb.obj
 0001:0004e530       ?Clear@ServersUpdateSessionMessage@@UAEXXZ 1004f530 f   servers.pb.obj
 0001:0004e610       ?Clear@ServersUpdateSessionResultMessage@@UAEXXZ 1004f610 f   servers.pb.obj
 0001:0004e670       ?Clear@SessionInfo@@UAEXXZ 1004f670 f   servers.pb.obj
 0001:0004e780       ?CopyFrom@ServersCreateSessionMessage@@QAEXABV1@@Z 1004f780 f   servers.pb.obj
 0001:0004e7d0       ?CopyFrom@ServersCreateSessionResultMessage@@QAEXABV1@@Z 1004f7d0 f   servers.pb.obj
 0001:0004e820       ?CopyFrom@ServersDeleteSessionMessage@@QAEXABV1@@Z 1004f820 f   servers.pb.obj
 0001:0004e870       ?CopyFrom@ServersDeleteSessionResultMessage@@QAEXABV1@@Z 1004f870 f   servers.pb.obj
 0001:0004e8c0       ?CopyFrom@ServersGetSessionsMessage@@QAEXABV1@@Z 1004f8c0 f   servers.pb.obj
 0001:0004e910       ?CopyFrom@ServersGetSessionsResultMessage@@QAEXABV1@@Z 1004f910 f   servers.pb.obj
 0001:0004e960       ?CopyFrom@ServersUpdateSessionMessage@@QAEXABV1@@Z 1004f960 f   servers.pb.obj
 0001:0004e9b0       ?CopyFrom@ServersUpdateSessionResultMessage@@QAEXABV1@@Z 1004f9b0 f   servers.pb.obj
 0001:0004ea00       ?CopyFrom@SessionInfo@@QAEXABV1@@Z 1004fa00 f   servers.pb.obj
 0001:0004ea50       ?Delete@?$GenericTypeHandler@VSessionInfo@@@internal@protobuf@google@@SAXPAVSessionInfo@@@Z 1004fa50 f i servers.pb.obj
 0001:0004eaa0       ?GetCachedSize@ServersCreateSessionMessage@@UBEHXZ 1004faa0 f i servers.pb.obj
 0001:0004eac0       ?GetCachedSize@ServersCreateSessionResultMessage@@UBEHXZ 1004fac0 f i servers.pb.obj
 0001:0004eae0       ?GetCachedSize@ServersDeleteSessionMessage@@UBEHXZ 1004fae0 f i servers.pb.obj
 0001:0004eb00       ?GetCachedSize@ServersDeleteSessionResultMessage@@UBEHXZ 1004fb00 f i servers.pb.obj
 0001:0004eb20       ?GetCachedSize@ServersGetSessionsMessage@@UBEHXZ 1004fb20 f i servers.pb.obj
 0001:0004eb40       ?GetCachedSize@ServersGetSessionsResultMessage@@UBEHXZ 1004fb40 f i servers.pb.obj
 0001:0004eb60       ?GetCachedSize@ServersUpdateSessionMessage@@UBEHXZ 1004fb60 f i servers.pb.obj
 0001:0004eb80       ?GetCachedSize@ServersUpdateSessionResultMessage@@UBEHXZ 1004fb80 f i servers.pb.obj
 0001:0004eba0       ?GetCachedSize@SessionInfo@@UBEHXZ 1004fba0 f i servers.pb.obj
 0001:0004ebc0       ?GetTypeName@ServersCreateSessionMessage@@UBE?AV?$basic_string@DU?$char_traits@D@std@@V?$allocator@D@2@@std@@XZ 1004fbc0 f   servers.pb.obj
 0001:0004ec10       ?GetTypeName@ServersCreateSessionResultMessage@@UBE?AV?$basic_string@DU?$char_traits@D@std@@V?$allocator@D@2@@std@@XZ 1004fc10 f   servers.pb.obj
 0001:0004ec60       ?GetTypeName@ServersDeleteSessionMessage@@UBE?AV?$basic_string@DU?$char_traits@D@std@@V?$allocator@D@2@@std@@XZ 1004fc60 f   servers.pb.obj
 0001:0004ecb0       ?GetTypeName@ServersDeleteSessionResultMessage@@UBE?AV?$basic_string@DU?$char_traits@D@std@@V?$allocator@D@2@@std@@XZ 1004fcb0 f   servers.pb.obj
 0001:0004ed00       ?GetTypeName@ServersGetSessionsMessage@@UBE?AV?$basic_string@DU?$char_traits@D@std@@V?$allocator@D@2@@std@@XZ 1004fd00 f   servers.pb.obj
 0001:0004ed50       ?GetTypeName@ServersGetSessionsResultMessage@@UBE?AV?$basic_string@DU?$char_traits@D@std@@V?$allocator@D@2@@std@@XZ 1004fd50 f   servers.pb.obj
 0001:0004eda0       ?GetTypeName@ServersUpdateSessionMessage@@UBE?AV?$basic_string@DU?$char_traits@D@std@@V?$allocator@D@2@@std@@XZ 1004fda0 f   servers.pb.obj
 0001:0004edf0       ?GetTypeName@ServersUpdateSessionResultMessage@@UBE?AV?$basic_string@DU?$char_traits@D@std@@V?$allocator@D@2@@std@@XZ 1004fdf0 f   servers.pb.obj
 0001:0004ee40       ?GetTypeName@SessionInfo@@UBE?AV?$basic_string@DU?$char_traits@D@std@@V?$allocator@D@2@@std@@XZ 1004fe40 f   servers.pb.obj
 0001:0004ee90       ?InitAsDefaultInstance@ServersCreateSessionMessage@@AAEXXZ 1004fe90 f   servers.pb.obj
 0001:0004eec0       ?InitAsDefaultInstance@ServersCreateSessionResultMessage@@AAEXXZ 1004fec0 f   servers.pb.obj
 0001:0004eee0       ?InitAsDefaultInstance@ServersDeleteSessionMessage@@AAEXXZ 1004fee0 f   servers.pb.obj
 0001:0004ef00       ?InitAsDefaultInstance@ServersDeleteSessionResultMessage@@AAEXXZ 1004ff00 f   servers.pb.obj
 0001:0004ef20       ?InitAsDefaultInstance@ServersGetSessionsMessage@@AAEXXZ 1004ff20 f   servers.pb.obj
 0001:0004ef40       ?InitAsDefaultInstance@ServersGetSessionsResultMessage@@AAEXXZ 1004ff40 f   servers.pb.obj
 0001:0004ef60       ?InitAsDefaultInstance@ServersUpdateSessionMessage@@AAEXXZ 1004ff60 f   servers.pb.obj
 0001:0004ef80       ?InitAsDefaultInstance@ServersUpdateSessionResultMessage@@AAEXXZ 1004ff80 f   servers.pb.obj
 0001:0004efa0       ?InitAsDefaultInstance@SessionInfo@@AAEXXZ 1004ffa0 f   servers.pb.obj
 0001:0004efc0       ?IsInitialized@ServersCreateSessionMessage@@UBE_NXZ 1004ffc0 f   servers.pb.obj
 0001:0004efe0       ?IsInitialized@ServersCreateSessionResultMessage@@UBE_NXZ 1004ffe0 f   servers.pb.obj
 0001:0004f000       ?IsInitialized@ServersDeleteSessionMessage@@UBE_NXZ 10050000 f   servers.pb.obj
 0001:0004f020       ?IsInitialized@ServersDeleteSessionResultMessage@@UBE_NXZ 10050020 f   servers.pb.obj
 0001:0004f040       ?IsInitialized@ServersGetSessionsMessage@@UBE_NXZ 10050040 f   servers.pb.obj
 0001:0004f060       ?IsInitialized@ServersGetSessionsResultMessage@@UBE_NXZ 10050060 f   servers.pb.obj
 0001:0004f080       ?IsInitialized@ServersUpdateSessionMessage@@UBE_NXZ 10050080 f   servers.pb.obj
 0001:0004f0a0       ?IsInitialized@ServersUpdateSessionResultMessage@@UBE_NXZ 100500a0 f   servers.pb.obj
 0001:0004f0c0       ?IsInitialized@SessionInfo@@UBE_NXZ 100500c0 f   servers.pb.obj
 0001:0004f0e0       ?Merge@?$GenericTypeHandler@VSessionInfo@@@internal@protobuf@google@@SAXABVSessionInfo@@PAV5@@Z 100500e0 f i servers.pb.obj
 0001:0004f110       ?MergeFrom@?$RepeatedPtrField@VSessionInfo@@@protobuf@google@@QAEXABV123@@Z 10050110 f i servers.pb.obj
 0001:0004f140       ?MergeFrom@ServersCreateSessionMessage@@QAEXABV1@@Z 10050140 f   servers.pb.obj
 0001:0004f2a0       ?MergeFrom@ServersCreateSessionResultMessage@@QAEXABV1@@Z 100502a0 f   servers.pb.obj
 0001:0004f420       ?MergeFrom@ServersDeleteSessionMessage@@QAEXABV1@@Z 10050420 f   servers.pb.obj
 0001:0004f570       ?MergeFrom@ServersDeleteSessionResultMessage@@QAEXABV1@@Z 10050570 f   servers.pb.obj
 0001:0004f6c0       ?MergeFrom@ServersGetSessionsMessage@@QAEXABV1@@Z 100506c0 f   servers.pb.obj
 0001:0004f810       ?MergeFrom@ServersGetSessionsResultMessage@@QAEXABV1@@Z 10050810 f   servers.pb.obj
 0001:0004f930       ?MergeFrom@ServersUpdateSessionMessage@@QAEXABV1@@Z 10050930 f   servers.pb.obj
 0001:0004fb20       ?MergeFrom@ServersUpdateSessionResultMessage@@QAEXABV1@@Z 10050b20 f   servers.pb.obj
 0001:0004fc70       ?MergeFrom@SessionInfo@@QAEXABV1@@Z 10050c70 f   servers.pb.obj
 0001:0004fee0       ?MergePartialFromCodedStream@ServersCreateSessionMessage@@UAE_NPAVCodedInputStream@io@protobuf@google@@@Z 10050ee0 f   servers.pb.obj
 0001:0004ffe0       ?MergePartialFromCodedStream@ServersCreateSessionResultMessage@@UAE_NPAVCodedInputStream@io@protobuf@google@@@Z 10050fe0 f   servers.pb.obj
 0001:00050160       ?MergePartialFromCodedStream@ServersDeleteSessionMessage@@UAE_NPAVCodedInputStream@io@protobuf@google@@@Z 10051160 f   servers.pb.obj
 0001:00050260       ?MergePartialFromCodedStream@ServersDeleteSessionResultMessage@@UAE_NPAVCodedInputStream@io@protobuf@google@@@Z 10051260 f   servers.pb.obj
 0001:00050360       ?MergePartialFromCodedStream@ServersGetSessionsMessage@@UAE_NPAVCodedInputStream@io@protobuf@google@@@Z 10051360 f   servers.pb.obj
 0001:00050460       ?MergePartialFromCodedStream@ServersGetSessionsResultMessage@@UAE_NPAVCodedInputStream@io@protobuf@google@@@Z 10051460 f   servers.pb.obj
 0001:00050570       ?MergePartialFromCodedStream@ServersUpdateSessionMessage@@UAE_NPAVCodedInputStream@io@protobuf@google@@@Z 10051570 f   servers.pb.obj
 0001:00050870       ?MergePartialFromCodedStream@ServersUpdateSessionResultMessage@@UAE_NPAVCodedInputStream@io@protobuf@google@@@Z 10051870 f   servers.pb.obj
 0001:00050970       ?MergePartialFromCodedStream@SessionInfo@@UAE_NPAVCodedInputStream@io@protobuf@google@@@Z 10051970 f   servers.pb.obj
 0001:00050de0       ?New@?$GenericTypeHandler@VSessionInfo@@@internal@protobuf@google@@SAPAVSessionInfo@@XZ 10051de0 f i servers.pb.obj
 0001:00050e80       ?New@ServersCreateSessionMessage@@UBEPAV1@XZ 10051e80 f   servers.pb.obj
 0001:00050f20       ?New@ServersCreateSessionResultMessage@@UBEPAV1@XZ 10051f20 f   servers.pb.obj
 0001:00050fc0       ?New@ServersDeleteSessionMessage@@UBEPAV1@XZ 10051fc0 f   servers.pb.obj
 0001:00051060       ?New@ServersDeleteSessionResultMessage@@UBEPAV1@XZ 10052060 f   servers.pb.obj
 0001:00051100       ?New@ServersGetSessionsMessage@@UBEPAV1@XZ 10052100 f   servers.pb.obj
 0001:000511a0       ?New@ServersGetSessionsResultMessage@@UBEPAV1@XZ 100521a0 f   servers.pb.obj
 0001:00051240       ?New@ServersUpdateSessionMessage@@UBEPAV1@XZ 10052240 f   servers.pb.obj
 0001:000512e0       ?New@ServersUpdateSessionResultMessage@@UBEPAV1@XZ 100522e0 f   servers.pb.obj
 0001:00051380       ?New@SessionInfo@@UBEPAV1@XZ 10052380 f   servers.pb.obj
 0001:00051420       ?SerializeWithCachedSizes@ServersCreateSessionMessage@@UBEXPAVCodedOutputStream@io@protobuf@google@@@Z 10052420 f   servers.pb.obj
 0001:00051470       ?SerializeWithCachedSizes@ServersCreateSessionResultMessage@@UBEXPAVCodedOutputStream@io@protobuf@google@@@Z 10052470 f   servers.pb.obj
 0001:000514f0       ?SerializeWithCachedSizes@ServersDeleteSessionMessage@@UBEXPAVCodedOutputStream@io@protobuf@google@@@Z 100524f0 f   servers.pb.obj
 0001:00051540       ?SerializeWithCachedSizes@ServersDeleteSessionResultMessage@@UBEXPAVCodedOutputStream@io@protobuf@google@@@Z 10052540 f   servers.pb.obj
 0001:00051590       ?SerializeWithCachedSizes@ServersGetSessionsMessage@@UBEXPAVCodedOutputStream@io@protobuf@google@@@Z 10052590 f   servers.pb.obj
 0001:000515e0       ?SerializeWithCachedSizes@ServersGetSessionsResultMessage@@UBEXPAVCodedOutputStream@io@protobuf@google@@@Z 100525e0 f   servers.pb.obj
 0001:00051650       ?SerializeWithCachedSizes@ServersUpdateSessionMessage@@UBEXPAVCodedOutputStream@io@protobuf@google@@@Z 10052650 f   servers.pb.obj
 0001:00051760       ?SerializeWithCachedSizes@ServersUpdateSessionResultMessage@@UBEXPAVCodedOutputStream@io@protobuf@google@@@Z 10052760 f   servers.pb.obj
 0001:000517b0       ?SerializeWithCachedSizes@SessionInfo@@UBEXPAVCodedOutputStream@io@protobuf@google@@@Z 100527b0 f   servers.pb.obj
 0001:00051950       ?SetCachedSize@ServersCreateSessionMessage@@ABEXH@Z 10052950 f   servers.pb.obj
 0001:00051980       ?SetCachedSize@ServersCreateSessionResultMessage@@ABEXH@Z 10052980 f   servers.pb.obj
 0001:000519b0       ?SetCachedSize@ServersDeleteSessionMessage@@ABEXH@Z 100529b0 f   servers.pb.obj
 0001:000519e0       ?SetCachedSize@ServersDeleteSessionResultMessage@@ABEXH@Z 100529e0 f   servers.pb.obj
 0001:00051a10       ?SetCachedSize@ServersGetSessionsMessage@@ABEXH@Z 10052a10 f   servers.pb.obj
 0001:00051a40       ?SetCachedSize@ServersGetSessionsResultMessage@@ABEXH@Z 10052a40 f   servers.pb.obj
 0001:00051a70       ?SetCachedSize@ServersUpdateSessionMessage@@ABEXH@Z 10052a70 f   servers.pb.obj
 0001:00051aa0       ?SetCachedSize@ServersUpdateSessionResultMessage@@ABEXH@Z 10052aa0 f   servers.pb.obj
 0001:00051ad0       ?SetCachedSize@SessionInfo@@ABEXH@Z 10052ad0 f   servers.pb.obj
 0001:00051b00       ?SharedCtor@ServersCreateSessionMessage@@AAEXXZ 10052b00 f   servers.pb.obj
 0001:00051b50       ?SharedCtor@ServersCreateSessionResultMessage@@AAEXXZ 10052b50 f   servers.pb.obj
 0001:00051bb0       ?SharedCtor@ServersDeleteSessionMessage@@AAEXXZ 10052bb0 f   servers.pb.obj
 0001:00051c10       ?SharedCtor@ServersDeleteSessionResultMessage@@AAEXXZ 10052c10 f   servers.pb.obj
 0001:00051c60       ?SharedCtor@ServersGetSessionsMessage@@AAEXXZ 10052c60 f   servers.pb.obj
 0001:00051cb0       ?SharedCtor@ServersGetSessionsResultMessage@@AAEXXZ 10052cb0 f   servers.pb.obj
 0001:00051cf0       ?SharedCtor@ServersUpdateSessionMessage@@AAEXXZ 10052cf0 f   servers.pb.obj
 0001:00051d80       ?SharedCtor@ServersUpdateSessionResultMessage@@AAEXXZ 10052d80 f   servers.pb.obj
 0001:00051dd0       ?SharedCtor@SessionInfo@@AAEXXZ 10052dd0 f   servers.pb.obj
 0001:00051e80       ?SharedDtor@ServersCreateSessionMessage@@AAEXXZ 10052e80 f   servers.pb.obj
 0001:00051ee0       ?SharedDtor@ServersCreateSessionResultMessage@@AAEXXZ 10052ee0 f   servers.pb.obj
 0001:00051f00       ?SharedDtor@ServersDeleteSessionMessage@@AAEXXZ 10052f00 f   servers.pb.obj
 0001:00051f20       ?SharedDtor@ServersDeleteSessionResultMessage@@AAEXXZ 10052f20 f   servers.pb.obj
 0001:00051f40       ?SharedDtor@ServersGetSessionsMessage@@AAEXXZ 10052f40 f   servers.pb.obj
 0001:00051fa0       ?SharedDtor@ServersGetSessionsResultMessage@@AAEXXZ 10052fa0 f   servers.pb.obj
 0001:00051fc0       ?SharedDtor@ServersUpdateSessionMessage@@AAEXXZ 10052fc0 f   servers.pb.obj
 0001:00052070       ?SharedDtor@ServersUpdateSessionResultMessage@@AAEXXZ 10053070 f   servers.pb.obj
 0001:00052090       ?SharedDtor@SessionInfo@@AAEXXZ 10053090 f   servers.pb.obj
 0001:00052140       ?Swap@?$RepeatedPtrField@VSessionInfo@@@protobuf@google@@QAEXPAV123@@Z 10053140 f i servers.pb.obj
 0001:00052170       ?Swap@ServersCreateSessionMessage@@QAEXPAV1@@Z 10053170 f   servers.pb.obj
 0001:00052200       ?Swap@ServersCreateSessionResultMessage@@QAEXPAV1@@Z 10053200 f   servers.pb.obj
 0001:000522b0       ?Swap@ServersDeleteSessionMessage@@QAEXPAV1@@Z 100532b0 f   servers.pb.obj
 0001:00052340       ?Swap@ServersDeleteSessionResultMessage@@QAEXPAV1@@Z 10053340 f   servers.pb.obj
 0001:000523d0       ?Swap@ServersGetSessionsMessage@@QAEXPAV1@@Z 100533d0 f   servers.pb.obj
 0001:00052460       ?Swap@ServersGetSessionsResultMessage@@QAEXPAV1@@Z 10053460 f   servers.pb.obj
 0001:000524f0       ?Swap@ServersUpdateSessionMessage@@QAEXPAV1@@Z 100534f0 f   servers.pb.obj
 0001:000525f0       ?Swap@ServersUpdateSessionResultMessage@@QAEXPAV1@@Z 100535f0 f   servers.pb.obj
 0001:00052680       ?Swap@SessionInfo@@QAEXPAV1@@Z 10053680 f   servers.pb.obj
 0001:000527e0       ?add_servers@ServersGetSessionsResultMessage@@QAEPAVSessionInfo@@XZ 100537e0 f i servers.pb.obj
 0001:00052810       ?default_instance@ServersCreateSessionMessage@@SAABV1@XZ 10053810 f   servers.pb.obj
 0001:00052840       ?default_instance@ServersCreateSessionResultMessage@@SAABV1@XZ 10053840 f   servers.pb.obj
 0001:00052870       ?default_instance@ServersDeleteSessionMessage@@SAABV1@XZ 10053870 f   servers.pb.obj
 0001:000528a0       ?default_instance@ServersDeleteSessionResultMessage@@SAABV1@XZ 100538a0 f   servers.pb.obj
 0001:000528d0       ?default_instance@ServersGetSessionsMessage@@SAABV1@XZ 100538d0 f   servers.pb.obj
 0001:00052900       ?default_instance@ServersGetSessionsResultMessage@@SAABV1@XZ 10053900 f   servers.pb.obj
 0001:00052930       ?default_instance@ServersUpdateSessionMessage@@SAABV1@XZ 10053930 f   servers.pb.obj
 0001:00052960       ?default_instance@ServersUpdateSessionResultMessage@@SAABV1@XZ 10053960 f   servers.pb.obj
 0001:00052990       ?default_instance@SessionInfo@@SAABV1@XZ 10053990 f   servers.pb.obj
 0001:000529c0       ?has_address@SessionInfo@@QBE_NXZ 100539c0 f i servers.pb.obj
 0001:00052a10       ?has_hostname@ServersUpdateSessionMessage@@QBE_NXZ 10053a10 f i servers.pb.obj
 0001:00052a60       ?has_hostname@SessionInfo@@QBE_NXZ 10053a60 f i servers.pb.obj
 0001:00052ab0       ?has_info@ServersCreateSessionMessage@@QBE_NXZ 10053ab0 f i servers.pb.obj
 0001:00052b00       ?has_mapname@ServersUpdateSessionMessage@@QBE_NXZ 10053b00 f i servers.pb.obj
 0001:00052b50       ?has_mapname@SessionInfo@@QBE_NXZ 10053b50 f i servers.pb.obj
 0001:00052ba0       ?has_maxplayers@ServersUpdateSessionMessage@@QBE_NXZ 10053ba0 f i servers.pb.obj
 0001:00052bf0       ?has_maxplayers@SessionInfo@@QBE_NXZ 10053bf0 f i servers.pb.obj
 0001:00052c40       ?has_npid@SessionInfo@@QBE_NXZ 10053c40 f i servers.pb.obj
 0001:00052c90       ?has_players@ServersUpdateSessionMessage@@QBE_NXZ 10053c90 f i servers.pb.obj
 0001:00052ce0       ?has_players@SessionInfo@@QBE_NXZ 10053ce0 f i servers.pb.obj
 0001:00052d30       ?has_port@SessionInfo@@QBE_NXZ 10053d30 f i servers.pb.obj
 0001:00052d80       ?has_result@ServersCreateSessionResultMessage@@QBE_NXZ 10053d80 f i servers.pb.obj
 0001:00052dd0       ?has_result@ServersDeleteSessionResultMessage@@QBE_NXZ 10053dd0 f i servers.pb.obj
 0001:00052e20       ?has_result@ServersUpdateSessionResultMessage@@QBE_NXZ 10053e20 f i servers.pb.obj
 0001:00052e70       ?has_sessionid@ServersCreateSessionResultMessage@@QBE_NXZ 10053e70 f i servers.pb.obj
 0001:00052ec0       ?has_sessionid@ServersDeleteSessionMessage@@QBE_NXZ 10053ec0 f i servers.pb.obj
 0001:00052f10       ?has_sessionid@ServersUpdateSessionMessage@@QBE_NXZ 10053f10 f i servers.pb.obj
 0001:00052f60       ?has_tags@ServersGetSessionsMessage@@QBE_NXZ 10053f60 f i servers.pb.obj
 0001:00052fb0       ?has_version@SessionInfo@@QBE_NXZ 10053fb0 f i servers.pb.obj
 0001:00053000       ?hostname@ServersUpdateSessionMessage@@QBEABV?$basic_string@DU?$char_traits@D@std@@V?$allocator@D@2@@std@@XZ 10054000 f i servers.pb.obj
 0001:00053020       ?info@ServersCreateSessionMessage@@QBEABVSessionInfo@@XZ 10054020 f i servers.pb.obj
 0001:00053070       ?mapname@ServersUpdateSessionMessage@@QBEABV?$basic_string@DU?$char_traits@D@std@@V?$allocator@D@2@@std@@XZ 10054070 f i servers.pb.obj
 0001:00053090       ?maxplayers@ServersUpdateSessionMessage@@QBEHXZ 10054090 f i servers.pb.obj
 0001:000530b0       ?mutable_hostname@ServersUpdateSessionMessage@@QAEPAV?$basic_string@DU?$char_traits@D@std@@V?$allocator@D@2@@std@@XZ 100540b0 f i servers.pb.obj
 0001:00053180       ?mutable_hostname@SessionInfo@@QAEPAV?$basic_string@DU?$char_traits@D@std@@V?$allocator@D@2@@std@@XZ 10054180 f i servers.pb.obj
 0001:00053250       ?mutable_mapname@ServersUpdateSessionMessage@@QAEPAV?$basic_string@DU?$char_traits@D@std@@V?$allocator@D@2@@std@@XZ 10054250 f i servers.pb.obj
 0001:00053320       ?mutable_mapname@SessionInfo@@QAEPAV?$basic_string@DU?$char_traits@D@std@@V?$allocator@D@2@@std@@XZ 10054320 f i servers.pb.obj
 0001:000533f0       ?mutable_tags@ServersGetSessionsMessage@@QAEPAV?$basic_string@DU?$char_traits@D@std@@V?$allocator@D@2@@std@@XZ 100543f0 f i servers.pb.obj
 0001:000534c0       ?players@ServersUpdateSessionMessage@@QBEHXZ 100544c0 f i servers.pb.obj
 0001:000534e0       ?protobuf_AddDesc_servers_2eproto@@YAXXZ 100544e0 f   servers.pb.obj
 0001:00053990       ?protobuf_ShutdownFile_servers_2eproto@@YAXXZ 10054990 f   servers.pb.obj
 0001:00053c10       ?result@ServersDeleteSessionResultMessage@@QBEHXZ 10054c10 f i servers.pb.obj
 0001:00053c30       ?sessionid@ServersDeleteSessionMessage@@QBE_KXZ 10054c30 f i servers.pb.obj
 0001:00053c60       ?sessionid@ServersUpdateSessionMessage@@QBE_KXZ 10054c60 f i servers.pb.obj
 0001:00053c90       ?set_address@SessionInfo@@QAEXI@Z 10054c90 f i servers.pb.obj
 0001:00053cc0       ?set_has_address@SessionInfo@@AAEXXZ 10054cc0 f i servers.pb.obj
 0001:00053d10       ?set_has_npid@SessionInfo@@AAEXXZ 10054d10 f i servers.pb.obj
 0001:00053d60       ?set_has_port@SessionInfo@@AAEXXZ 10054d60 f i servers.pb.obj
 0001:00053db0       ?set_has_result@ServersCreateSessionResultMessage@@AAEXXZ 10054db0 f i servers.pb.obj
 0001:00053e00       ?set_has_result@ServersDeleteSessionResultMessage@@AAEXXZ 10054e00 f i servers.pb.obj
 0001:00053e50       ?set_has_result@ServersUpdateSessionResultMessage@@AAEXXZ 10054e50 f i servers.pb.obj
 0001:00053ea0       ?set_has_sessionid@ServersCreateSessionResultMessage@@AAEXXZ 10054ea0 f i servers.pb.obj
 0001:00053ef0       ?set_hostname@ServersUpdateSessionMessage@@QAEXABV?$basic_string@DU?$char_traits@D@std@@V?$allocator@D@2@@std@@@Z 10054ef0 f i servers.pb.obj
 0001:00053fc0       ?set_hostname@SessionInfo@@QAEXABV?$basic_string@DU?$char_traits@D@std@@V?$allocator@D@2@@std@@@Z 10054fc0 f i servers.pb.obj
 0001:00054090       ?set_mapname@ServersUpdateSessionMessage@@QAEXABV?$basic_string@DU?$char_traits@D@std@@V?$allocator@D@2@@std@@@Z 10055090 f i servers.pb.obj
 0001:00054160       ?set_mapname@SessionInfo@@QAEXABV?$basic_string@DU?$char_traits@D@std@@V?$allocator@D@2@@std@@@Z 10055160 f i servers.pb.obj
 0001:00054230       ?set_npid@SessionInfo@@QAEX_K@Z 10055230 f i servers.pb.obj
 0001:00054270       ?set_port@SessionInfo@@QAEXH@Z 10055270 f i servers.pb.obj
 0001:000542a0       ?set_result@ServersCreateSessionResultMessage@@QAEXH@Z 100552a0 f i servers.pb.obj
 0001:000542d0       ?set_result@ServersDeleteSessionResultMessage@@QAEXH@Z 100552d0 f i servers.pb.obj
 0001:00054300       ?set_result@ServersUpdateSessionResultMessage@@QAEXH@Z 10055300 f i servers.pb.obj
 0001:00054330       ?set_sessionid@ServersCreateSessionResultMessage@@QAEX_K@Z 10055330 f i servers.pb.obj
 0001:00054370       ?set_tags@ServersGetSessionsMessage@@QAEXABV?$basic_string@DU?$char_traits@D@std@@V?$allocator@D@2@@std@@@Z 10055370 f i servers.pb.obj
 0001:00054440       ?tags@ServersGetSessionsMessage@@QBEABV?$basic_string@DU?$char_traits@D@std@@V?$allocator@D@2@@std@@XZ 10055440 f i servers.pb.obj
 0001:00054460       ??$down_cast@PBVStorageGetPublisherFileMessage@@$$CBVMessageLite@protobuf@google@@@internal@protobuf@google@@YAPBVStorageGetPublisherFileMessage@@PBVMessageLite@12@@Z 10055460 f i storage.pb.obj
 0001:000544a0       ??$down_cast@PBVStorageGetUserFileMessage@@$$CBVMessageLite@protobuf@google@@@internal@protobuf@google@@YAPBVStorageGetUserFileMessage@@PBVMessageLite@12@@Z 100554a0 f i storage.pb.obj
 0001:000544e0       ??$down_cast@PBVStoragePublisherFileMessage@@$$CBVMessageLite@protobuf@google@@@internal@protobuf@google@@YAPBVStoragePublisherFileMessage@@PBVMessageLite@12@@Z 100554e0 f i storage.pb.obj
 0001:00054520       ??$down_cast@PBVStorageSendRandomStringMessage@@$$CBVMessageLite@protobuf@google@@@internal@protobuf@google@@YAPBVStorageSendRandomStringMessage@@PBVMessageLite@12@@Z 10055520 f i storage.pb.obj
 0001:00054560       ??$down_cast@PBVStorageUserFileMessage@@$$CBVMessageLite@protobuf@google@@@internal@protobuf@google@@YAPBVStorageUserFileMessage@@PBVMessageLite@12@@Z 10055560 f i storage.pb.obj
 0001:000545a0       ??$down_cast@PBVStorageWriteUserFileMessage@@$$CBVMessageLite@protobuf@google@@@internal@protobuf@google@@YAPBVStorageWriteUserFileMessage@@PBVMessageLite@12@@Z 100555a0 f i storage.pb.obj
 0001:000545e0       ??$down_cast@PBVStorageWriteUserFileResultMessage@@$$CBVMessageLite@protobuf@google@@@internal@protobuf@google@@YAPBVStorageWriteUserFileResultMessage@@PBVMessageLite@12@@Z 100555e0 f i storage.pb.obj
 0001:00054620       ??$implicit_cast@PBVMessageLite@protobuf@google@@PBVStorageGetPublisherFileMessage@@@internal@protobuf@google@@YAPBVMessageLite@12@ABQBVStorageGetPublisherFileMessage@@@Z 10055620 f i storage.pb.obj
 0001:00054640       ??$implicit_cast@PBVMessageLite@protobuf@google@@PBVStorageGetUserFileMessage@@@internal@protobuf@google@@YAPBVMessageLite@12@ABQBVStorageGetUserFileMessage@@@Z 10055640 f i storage.pb.obj
 0001:00054660       ??$implicit_cast@PBVMessageLite@protobuf@google@@PBVStoragePublisherFileMessage@@@internal@protobuf@google@@YAPBVMessageLite@12@ABQBVStoragePublisherFileMessage@@@Z 10055660 f i storage.pb.obj
 0001:00054680       ??$implicit_cast@PBVMessageLite@protobuf@google@@PBVStorageSendRandomStringMessage@@@internal@protobuf@google@@YAPBVMessageLite@12@ABQBVStorageSendRandomStringMessage@@@Z 10055680 f i storage.pb.obj
 0001:000546a0       ??$implicit_cast@PBVMessageLite@protobuf@google@@PBVStorageUserFileMessage@@@internal@protobuf@google@@YAPBVMessageLite@12@ABQBVStorageUserFileMessage@@@Z 100556a0 f i storage.pb.obj
 0001:000546c0       ??$implicit_cast@PBVMessageLite@protobuf@google@@PBVStorageWriteUserFileMessage@@@internal@protobuf@google@@YAPBVMessageLite@12@ABQBVStorageWriteUserFileMessage@@@Z 100556c0 f i storage.pb.obj
 0001:000546e0       ??$implicit_cast@PBVMessageLite@protobuf@google@@PBVStorageWriteUserFileResultMessage@@@internal@protobuf@google@@YAPBVMessageLite@12@ABQBVStorageWriteUserFileResultMessage@@@Z 100556e0 f i storage.pb.obj
 0001:00054700       ??0StaticDescriptorInitializer_storage_2eproto@@QAE@XZ 10055700 f i storage.pb.obj
 0001:00054730       ??0StorageGetPublisherFileMessage@@QAE@ABV0@@Z 10055730 f   storage.pb.obj
 0001:000547d0       ??0StorageGetPublisherFileMessage@@QAE@XZ 100557d0 f   storage.pb.obj
 0001:00054850       ??0StorageGetUserFileMessage@@QAE@ABV0@@Z 10055850 f   storage.pb.obj
 0001:000548f0       ??0StorageGetUserFileMessage@@QAE@XZ 100558f0 f   storage.pb.obj
 0001:00054970       ??0StoragePublisherFileMessage@@QAE@ABV0@@Z 10055970 f   storage.pb.obj
 0001:00054a10       ??0StoragePublisherFileMessage@@QAE@XZ 10055a10 f   storage.pb.obj
 0001:00054a90       ??0StorageSendRandomStringMessage@@QAE@ABV0@@Z 10055a90 f   storage.pb.obj
 0001:00054b30       ??0StorageSendRandomStringMessage@@QAE@XZ 10055b30 f   storage.pb.obj
 0001:00054bb0       ??0StorageUserFileMessage@@QAE@ABV0@@Z 10055bb0 f   storage.pb.obj
 0001:00054c50       ??0StorageUserFileMessage@@QAE@XZ 10055c50 f   storage.pb.obj
 0001:00054cd0       ??0StorageWriteUserFileMessage@@QAE@ABV0@@Z 10055cd0 f   storage.pb.obj
 0001:00054d70       ??0StorageWriteUserFileMessage@@QAE@XZ 10055d70 f   storage.pb.obj
 0001:00054df0       ??0StorageWriteUserFileResultMessage@@QAE@ABV0@@Z 10055df0 f   storage.pb.obj
 0001:00054e90       ??0StorageWriteUserFileResultMessage@@QAE@XZ 10055e90 f   storage.pb.obj
 0001:00054f10       ??1StorageGetPublisherFileMessage@@UAE@XZ 10055f10 f   storage.pb.obj
 0001:00054f90       ??1StorageGetUserFileMessage@@UAE@XZ 10055f90 f   storage.pb.obj
 0001:00055010       ??1StoragePublisherFileMessage@@UAE@XZ 10056010 f   storage.pb.obj
 0001:00055090       ??1StorageSendRandomStringMessage@@UAE@XZ 10056090 f   storage.pb.obj
 0001:00055110       ??1StorageUserFileMessage@@UAE@XZ 10056110 f   storage.pb.obj
 0001:00055190       ??1StorageWriteUserFileMessage@@UAE@XZ 10056190 f   storage.pb.obj
 0001:00055210       ??1StorageWriteUserFileResultMessage@@UAE@XZ 10056210 f   storage.pb.obj
 0001:00055290       ??_EStorageGetPublisherFileMessage@@UAEPAXI@Z 10056290 f i storage.pb.obj
 0001:00055290       ??_GStorageGetPublisherFileMessage@@UAEPAXI@Z 10056290 f i storage.pb.obj
 0001:000552e0       ??_EStorageGetUserFileMessage@@UAEPAXI@Z 100562e0 f i storage.pb.obj
 0001:000552e0       ??_GStorageGetUserFileMessage@@UAEPAXI@Z 100562e0 f i storage.pb.obj
 0001:00055330       ??_EStoragePublisherFileMessage@@UAEPAXI@Z 10056330 f i storage.pb.obj
 0001:00055330       ??_GStoragePublisherFileMessage@@UAEPAXI@Z 10056330 f i storage.pb.obj
 0001:00055380       ??_GStorageSendRandomStringMessage@@UAEPAXI@Z 10056380 f i storage.pb.obj
 0001:00055380       ??_EStorageSendRandomStringMessage@@UAEPAXI@Z 10056380 f i storage.pb.obj
 0001:000553d0       ??_GStorageUserFileMessage@@UAEPAXI@Z 100563d0 f i storage.pb.obj
 0001:000553d0       ??_EStorageUserFileMessage@@UAEPAXI@Z 100563d0 f i storage.pb.obj
 0001:00055420       ??_EStorageWriteUserFileMessage@@UAEPAXI@Z 10056420 f i storage.pb.obj
 0001:00055420       ??_GStorageWriteUserFileMessage@@UAEPAXI@Z 10056420 f i storage.pb.obj
 0001:00055470       ??_EStorageWriteUserFileResultMessage@@UAEPAXI@Z 10056470 f i storage.pb.obj
 0001:00055470       ??_GStorageWriteUserFileResultMessage@@UAEPAXI@Z 10056470 f i storage.pb.obj
 0001:000554c0       ?ByteSize@StorageGetPublisherFileMessage@@UBEHXZ 100564c0 f   storage.pb.obj
 0001:00055540       ?ByteSize@StorageGetUserFileMessage@@UBEHXZ 10056540 f   storage.pb.obj
 0001:000555e0       ?ByteSize@StoragePublisherFileMessage@@UBEHXZ 100565e0 f   storage.pb.obj
 0001:000556d0       ?ByteSize@StorageSendRandomStringMessage@@UBEHXZ 100566d0 f   storage.pb.obj
 0001:00055750       ?ByteSize@StorageUserFileMessage@@UBEHXZ 10056750 f   storage.pb.obj
 0001:00055860       ?ByteSize@StorageWriteUserFileMessage@@UBEHXZ 10056860 f   storage.pb.obj
 0001:00055940       ?ByteSize@StorageWriteUserFileResultMessage@@UBEHXZ 10056940 f   storage.pb.obj
 0001:00055a20       ?CheckTypeAndMergeFrom@StorageGetPublisherFileMessage@@UAEXABVMessageLite@protobuf@google@@@Z 10056a20 f   storage.pb.obj
 0001:00055a60       ?CheckTypeAndMergeFrom@StorageGetUserFileMessage@@UAEXABVMessageLite@protobuf@google@@@Z 10056a60 f   storage.pb.obj
 0001:00055aa0       ?CheckTypeAndMergeFrom@StoragePublisherFileMessage@@UAEXABVMessageLite@protobuf@google@@@Z 10056aa0 f   storage.pb.obj
 0001:00055ae0       ?CheckTypeAndMergeFrom@StorageSendRandomStringMessage@@UAEXABVMessageLite@protobuf@google@@@Z 10056ae0 f   storage.pb.obj
 0001:00055b20       ?CheckTypeAndMergeFrom@StorageUserFileMessage@@UAEXABVMessageLite@protobuf@google@@@Z 10056b20 f   storage.pb.obj
 0001:00055b60       ?CheckTypeAndMergeFrom@StorageWriteUserFileMessage@@UAEXABVMessageLite@protobuf@google@@@Z 10056b60 f   storage.pb.obj
 0001:00055ba0       ?CheckTypeAndMergeFrom@StorageWriteUserFileResultMessage@@UAEXABVMessageLite@protobuf@google@@@Z 10056ba0 f   storage.pb.obj
 0001:00055be0       ?Clear@StorageGetPublisherFileMessage@@UAEXXZ 10056be0 f   storage.pb.obj
 0001:00055c60       ?Clear@StorageGetUserFileMessage@@UAEXXZ 10056c60 f   storage.pb.obj
 0001:00055d00       ?Clear@StoragePublisherFileMessage@@UAEXXZ 10056d00 f   storage.pb.obj
 0001:00055dc0       ?Clear@StorageSendRandomStringMessage@@UAEXXZ 10056dc0 f   storage.pb.obj
 0001:00055e40       ?Clear@StorageUserFileMessage@@UAEXXZ 10056e40 f   storage.pb.obj
 0001:00055f10       ?Clear@StorageWriteUserFileMessage@@UAEXXZ 10056f10 f   storage.pb.obj
 0001:00055fd0       ?Clear@StorageWriteUserFileResultMessage@@UAEXXZ 10056fd0 f   storage.pb.obj
 0001:00056070       ?CopyFrom@StorageGetPublisherFileMessage@@QAEXABV1@@Z 10057070 f   storage.pb.obj
 0001:000560c0       ?CopyFrom@StorageGetUserFileMessage@@QAEXABV1@@Z 100570c0 f   storage.pb.obj
 0001:00056110       ?CopyFrom@StoragePublisherFileMessage@@QAEXABV1@@Z 10057110 f   storage.pb.obj
 0001:00056160       ?CopyFrom@StorageSendRandomStringMessage@@QAEXABV1@@Z 10057160 f   storage.pb.obj
 0001:000561b0       ?CopyFrom@StorageUserFileMessage@@QAEXABV1@@Z 100571b0 f   storage.pb.obj
 0001:00056200       ?CopyFrom@StorageWriteUserFileMessage@@QAEXABV1@@Z 10057200 f   storage.pb.obj
 0001:00056250       ?CopyFrom@StorageWriteUserFileResultMessage@@QAEXABV1@@Z 10057250 f   storage.pb.obj
 0001:000562a0       ?GetCachedSize@StorageGetPublisherFileMessage@@UBEHXZ 100572a0 f i storage.pb.obj
 0001:000562c0       ?GetCachedSize@StorageGetUserFileMessage@@UBEHXZ 100572c0 f i storage.pb.obj
 0001:000562e0       ?GetCachedSize@StoragePublisherFileMessage@@UBEHXZ 100572e0 f i storage.pb.obj
 0001:00056300       ?GetCachedSize@StorageSendRandomStringMessage@@UBEHXZ 10057300 f i storage.pb.obj
 0001:00056320       ?GetCachedSize@StorageUserFileMessage@@UBEHXZ 10057320 f i storage.pb.obj
 0001:00056340       ?GetCachedSize@StorageWriteUserFileMessage@@UBEHXZ 10057340 f i storage.pb.obj
 0001:00056360       ?GetCachedSize@StorageWriteUserFileResultMessage@@UBEHXZ 10057360 f i storage.pb.obj
 0001:00056380       ?GetTypeName@StorageGetPublisherFileMessage@@UBE?AV?$basic_string@DU?$char_traits@D@std@@V?$allocator@D@2@@std@@XZ 10057380 f   storage.pb.obj
 0001:000563d0       ?GetTypeName@StorageGetUserFileMessage@@UBE?AV?$basic_string@DU?$char_traits@D@std@@V?$allocator@D@2@@std@@XZ 100573d0 f   storage.pb.obj
 0001:00056420       ?GetTypeName@StoragePublisherFileMessage@@UBE?AV?$basic_string@DU?$char_traits@D@std@@V?$allocator@D@2@@std@@XZ 10057420 f   storage.pb.obj
 0001:00056470       ?GetTypeName@StorageSendRandomStringMessage@@UBE?AV?$basic_string@DU?$char_traits@D@std@@V?$allocator@D@2@@std@@XZ 10057470 f   storage.pb.obj
 0001:000564c0       ?GetTypeName@StorageUserFileMessage@@UBE?AV?$basic_string@DU?$char_traits@D@std@@V?$allocator@D@2@@std@@XZ 100574c0 f   storage.pb.obj
 0001:00056510       ?GetTypeName@StorageWriteUserFileMessage@@UBE?AV?$basic_string@DU?$char_traits@D@std@@V?$allocator@D@2@@std@@XZ 10057510 f   storage.pb.obj
 0001:00056560       ?GetTypeName@StorageWriteUserFileResultMessage@@UBE?AV?$basic_string@DU?$char_traits@D@std@@V?$allocator@D@2@@std@@XZ 10057560 f   storage.pb.obj
 0001:000565b0       ?InitAsDefaultInstance@StorageGetPublisherFileMessage@@AAEXXZ 100575b0 f   storage.pb.obj
 0001:000565d0       ?InitAsDefaultInstance@StorageGetUserFileMessage@@AAEXXZ 100575d0 f   storage.pb.obj
 0001:000565f0       ?InitAsDefaultInstance@StoragePublisherFileMessage@@AAEXXZ 100575f0 f   storage.pb.obj
 0001:00056610       ?InitAsDefaultInstance@StorageSendRandomStringMessage@@AAEXXZ 10057610 f   storage.pb.obj
 0001:00056630       ?InitAsDefaultInstance@StorageUserFileMessage@@AAEXXZ 10057630 f   storage.pb.obj
 0001:00056650       ?InitAsDefaultInstance@StorageWriteUserFileMessage@@AAEXXZ 10057650 f   storage.pb.obj
 0001:00056670       ?InitAsDefaultInstance@StorageWriteUserFileResultMessage@@AAEXXZ 10057670 f   storage.pb.obj
 0001:00056690       ?IsInitialized@StorageGetPublisherFileMessage@@UBE_NXZ 10057690 f   storage.pb.obj
 0001:000566d0       ?IsInitialized@StorageGetUserFileMessage@@UBE_NXZ 100576d0 f   storage.pb.obj
 0001:00056710       ?IsInitialized@StoragePublisherFileMessage@@UBE_NXZ 10057710 f   storage.pb.obj
 0001:00056750       ?IsInitialized@StorageSendRandomStringMessage@@UBE_NXZ 10057750 f   storage.pb.obj
 0001:00056790       ?IsInitialized@StorageUserFileMessage@@UBE_NXZ 10057790 f   storage.pb.obj
 0001:000567d0       ?IsInitialized@StorageWriteUserFileMessage@@UBE_NXZ 100577d0 f   storage.pb.obj
 0001:00056810       ?IsInitialized@StorageWriteUserFileResultMessage@@UBE_NXZ 10057810 f   storage.pb.obj
 0001:00056850       ?MergeFrom@StorageGetPublisherFileMessage@@QAEXABV1@@Z 10057850 f   storage.pb.obj
 0001:000569a0       ?MergeFrom@StorageGetUserFileMessage@@QAEXABV1@@Z 100579a0 f   storage.pb.obj
 0001:00056b20       ?MergeFrom@StoragePublisherFileMessage@@QAEXABV1@@Z 10057b20 f   storage.pb.obj
 0001:00056cc0       ?MergeFrom@StorageSendRandomStringMessage@@QAEXABV1@@Z 10057cc0 f   storage.pb.obj
 0001:00056e10       ?MergeFrom@StorageUserFileMessage@@QAEXABV1@@Z 10057e10 f   storage.pb.obj
 0001:00056fe0       ?MergeFrom@StorageWriteUserFileMessage@@QAEXABV1@@Z 10057fe0 f   storage.pb.obj
 0001:00057180       ?MergeFrom@StorageWriteUserFileResultMessage@@QAEXABV1@@Z 10058180 f   storage.pb.obj
 0001:00057320       ?MergePartialFromCodedStream@StorageGetPublisherFileMessage@@UAE_NPAVCodedInputStream@io@protobuf@google@@@Z 10058320 f   storage.pb.obj
 0001:00057420       ?MergePartialFromCodedStream@StorageGetUserFileMessage@@UAE_NPAVCodedInputStream@io@protobuf@google@@@Z 10058420 f   storage.pb.obj
 0001:00057590       ?MergePartialFromCodedStream@StoragePublisherFileMessage@@UAE_NPAVCodedInputStream@io@protobuf@google@@@Z 10058590 f   storage.pb.obj
 0001:00057780       ?MergePartialFromCodedStream@StorageSendRandomStringMessage@@UAE_NPAVCodedInputStream@io@protobuf@google@@@Z 10058780 f   storage.pb.obj
 0001:00057880       ?MergePartialFromCodedStream@StorageUserFileMessage@@UAE_NPAVCodedInputStream@io@protobuf@google@@@Z 10058880 f   storage.pb.obj
 0001:00057b00       ?MergePartialFromCodedStream@StorageWriteUserFileMessage@@UAE_NPAVCodedInputStream@io@protobuf@google@@@Z 10058b00 f   storage.pb.obj
 0001:00057cf0       ?MergePartialFromCodedStream@StorageWriteUserFileResultMessage@@UAE_NPAVCodedInputStream@io@protobuf@google@@@Z 10058cf0 f   storage.pb.obj
 0001:00057ef0       ?New@StorageGetPublisherFileMessage@@UBEPAV1@XZ 10058ef0 f   storage.pb.obj
 0001:00057f90       ?New@StorageGetUserFileMessage@@UBEPAV1@XZ 10058f90 f   storage.pb.obj
 0001:00058030       ?New@StoragePublisherFileMessage@@UBEPAV1@XZ 10059030 f   storage.pb.obj
 0001:000580d0       ?New@StorageSendRandomStringMessage@@UBEPAV1@XZ 100590d0 f   storage.pb.obj
 0001:00058170       ?New@StorageUserFileMessage@@UBEPAV1@XZ 10059170 f   storage.pb.obj
 0001:00058210       ?New@StorageWriteUserFileMessage@@UBEPAV1@XZ 10059210 f   storage.pb.obj
 0001:000582b0       ?New@StorageWriteUserFileResultMessage@@UBEPAV1@XZ 100592b0 f   storage.pb.obj
 0001:00058350       ?SerializeWithCachedSizes@StorageGetPublisherFileMessage@@UBEXPAVCodedOutputStream@io@protobuf@google@@@Z 10059350 f   storage.pb.obj
 0001:000583a0       ?SerializeWithCachedSizes@StorageGetUserFileMessage@@UBEXPAVCodedOutputStream@io@protobuf@google@@@Z 100593a0 f   storage.pb.obj
 0001:00058420       ?SerializeWithCachedSizes@StoragePublisherFileMessage@@UBEXPAVCodedOutputStream@io@protobuf@google@@@Z 10059420 f   storage.pb.obj
 0001:000584d0       ?SerializeWithCachedSizes@StorageSendRandomStringMessage@@UBEXPAVCodedOutputStream@io@protobuf@google@@@Z 100594d0 f   storage.pb.obj
 0001:00058520       ?SerializeWithCachedSizes@StorageUserFileMessage@@UBEXPAVCodedOutputStream@io@protobuf@google@@@Z 10059520 f   storage.pb.obj
 0001:00058600       ?SerializeWithCachedSizes@StorageWriteUserFileMessage@@UBEXPAVCodedOutputStream@io@protobuf@google@@@Z 10059600 f   storage.pb.obj
 0001:000586b0       ?SerializeWithCachedSizes@StorageWriteUserFileResultMessage@@UBEXPAVCodedOutputStream@io@protobuf@google@@@Z 100596b0 f   storage.pb.obj
 0001:00058760       ?SetCachedSize@StorageGetPublisherFileMessage@@ABEXH@Z 10059760 f   storage.pb.obj
 0001:00058790       ?SetCachedSize@StorageGetUserFileMessage@@ABEXH@Z 10059790 f   storage.pb.obj
 0001:000587c0       ?SetCachedSize@StoragePublisherFileMessage@@ABEXH@Z 100597c0 f   storage.pb.obj
 0001:000587f0       ?SetCachedSize@StorageSendRandomStringMessage@@ABEXH@Z 100597f0 f   storage.pb.obj
 0001:00058820       ?SetCachedSize@StorageUserFileMessage@@ABEXH@Z 10059820 f   storage.pb.obj
 0001:00058850       ?SetCachedSize@StorageWriteUserFileMessage@@ABEXH@Z 10059850 f   storage.pb.obj
 0001:00058880       ?SetCachedSize@StorageWriteUserFileResultMessage@@ABEXH@Z 10059880 f   storage.pb.obj
 0001:000588b0       ?SharedCtor@StorageGetPublisherFileMessage@@AAEXXZ 100598b0 f   storage.pb.obj
 0001:00058900       ?SharedCtor@StorageGetUserFileMessage@@AAEXXZ 10059900 f   storage.pb.obj
 0001:00058960       ?SharedCtor@StoragePublisherFileMessage@@AAEXXZ 10059960 f   storage.pb.obj
 0001:000589d0       ?SharedCtor@StorageSendRandomStringMessage@@AAEXXZ 100599d0 f   storage.pb.obj
 0001:00058a20       ?SharedCtor@StorageUserFileMessage@@AAEXXZ 10059a20 f   storage.pb.obj
 0001:00058aa0       ?SharedCtor@StorageWriteUserFileMessage@@AAEXXZ 10059aa0 f   storage.pb.obj
 0001:00058b10       ?SharedCtor@StorageWriteUserFileResultMessage@@AAEXXZ 10059b10 f   storage.pb.obj
 0001:00058b80       ?SharedDtor@StorageGetPublisherFileMessage@@AAEXXZ 10059b80 f   storage.pb.obj
 0001:00058be0       ?SharedDtor@StorageGetUserFileMessage@@AAEXXZ 10059be0 f   storage.pb.obj
 0001:00058c40       ?SharedDtor@StoragePublisherFileMessage@@AAEXXZ 10059c40 f   storage.pb.obj
 0001:00058cf0       ?SharedDtor@StorageSendRandomStringMessage@@AAEXXZ 10059cf0 f   storage.pb.obj
 0001:00058d50       ?SharedDtor@StorageUserFileMessage@@AAEXXZ 10059d50 f   storage.pb.obj
 0001:00058e00       ?SharedDtor@StorageWriteUserFileMessage@@AAEXXZ 10059e00 f   storage.pb.obj
 0001:00058eb0       ?SharedDtor@StorageWriteUserFileResultMessage@@AAEXXZ 10059eb0 f   storage.pb.obj
 0001:00058f10       ?Swap@StorageGetPublisherFileMessage@@QAEXPAV1@@Z 10059f10 f   storage.pb.obj
 0001:00058fa0       ?Swap@StorageGetUserFileMessage@@QAEXPAV1@@Z 10059fa0 f   storage.pb.obj
 0001:00059050       ?Swap@StoragePublisherFileMessage@@QAEXPAV1@@Z 1005a050 f   storage.pb.obj
 0001:00059120       ?Swap@StorageSendRandomStringMessage@@QAEXPAV1@@Z 1005a120 f   storage.pb.obj
 0001:000591b0       ?Swap@StorageUserFileMessage@@QAEXPAV1@@Z 1005a1b0 f   storage.pb.obj
 0001:000592a0       ?Swap@StorageWriteUserFileMessage@@QAEXPAV1@@Z 1005a2a0 f   storage.pb.obj
 0001:00059370       ?Swap@StorageWriteUserFileResultMessage@@QAEXPAV1@@Z 1005a370 f   storage.pb.obj
 0001:00059440       ?default_instance@StorageGetPublisherFileMessage@@SAABV1@XZ 1005a440 f   storage.pb.obj
 0001:00059470       ?default_instance@StorageGetUserFileMessage@@SAABV1@XZ 1005a470 f   storage.pb.obj
 0001:000594a0       ?default_instance@StoragePublisherFileMessage@@SAABV1@XZ 1005a4a0 f   storage.pb.obj
 0001:000594d0       ?default_instance@StorageSendRandomStringMessage@@SAABV1@XZ 1005a4d0 f   storage.pb.obj
 0001:00059500       ?default_instance@StorageUserFileMessage@@SAABV1@XZ 1005a500 f   storage.pb.obj
 0001:00059530       ?default_instance@StorageWriteUserFileMessage@@SAABV1@XZ 1005a530 f   storage.pb.obj
 0001:00059560       ?default_instance@StorageWriteUserFileResultMessage@@SAABV1@XZ 1005a560 f   storage.pb.obj
 0001:00059590       ?filedata@StorageWriteUserFileMessage@@QBEABV?$basic_string@DU?$char_traits@D@std@@V?$allocator@D@2@@std@@XZ 1005a590 f i storage.pb.obj
 0001:000595b0       ?filename@StorageGetPublisherFileMessage@@QBEABV?$basic_string@DU?$char_traits@D@std@@V?$allocator@D@2@@std@@XZ 1005a5b0 f i storage.pb.obj
 0001:000595d0       ?filename@StorageGetUserFileMessage@@QBEABV?$basic_string@DU?$char_traits@D@std@@V?$allocator@D@2@@std@@XZ 1005a5d0 f i storage.pb.obj
 0001:000595f0       ?filename@StorageWriteUserFileMessage@@QBEABV?$basic_string@DU?$char_traits@D@std@@V?$allocator@D@2@@std@@XZ 1005a5f0 f i storage.pb.obj
 0001:00059610       ?filename@StorageWriteUserFileResultMessage@@QBEABV?$basic_string@DU?$char_traits@D@std@@V?$allocator@D@2@@std@@XZ 1005a610 f i storage.pb.obj
 0001:00059630       ?has_filedata@StoragePublisherFileMessage@@QBE_NXZ 1005a630 f i storage.pb.obj
 0001:00059680       ?has_filedata@StorageUserFileMessage@@QBE_NXZ 1005a680 f i storage.pb.obj
 0001:000596d0       ?has_filedata@StorageWriteUserFileMessage@@QBE_NXZ 1005a6d0 f i storage.pb.obj
 0001:00059720       ?has_filename@StorageGetPublisherFileMessage@@QBE_NXZ 1005a720 f i storage.pb.obj
 0001:00059770       ?has_filename@StorageGetUserFileMessage@@QBE_NXZ 1005a770 f i storage.pb.obj
 0001:000597c0       ?has_filename@StoragePublisherFileMessage@@QBE_NXZ 1005a7c0 f i storage.pb.obj
 0001:00059810       ?has_filename@StorageUserFileMessage@@QBE_NXZ 1005a810 f i storage.pb.obj
 0001:00059860       ?has_filename@StorageWriteUserFileMessage@@QBE_NXZ 1005a860 f i storage.pb.obj
 0001:000598b0       ?has_filename@StorageWriteUserFileResultMessage@@QBE_NXZ 1005a8b0 f i storage.pb.obj
 0001:00059900       ?has_npid@StorageGetUserFileMessage@@QBE_NXZ 1005a900 f i storage.pb.obj
 0001:00059950       ?has_npid@StorageUserFileMessage@@QBE_NXZ 1005a950 f i storage.pb.obj
 0001:000599a0       ?has_npid@StorageWriteUserFileMessage@@QBE_NXZ 1005a9a0 f i storage.pb.obj
 0001:000599f0       ?has_npid@StorageWriteUserFileResultMessage@@QBE_NXZ 1005a9f0 f i storage.pb.obj
 0001:00059a40       ?has_randomstring@StorageSendRandomStringMessage@@QBE_NXZ 1005aa40 f i storage.pb.obj
 0001:00059a90       ?has_result@StoragePublisherFileMessage@@QBE_NXZ 1005aa90 f i storage.pb.obj
 0001:00059ae0       ?has_result@StorageUserFileMessage@@QBE_NXZ 1005aae0 f i storage.pb.obj
 0001:00059b30       ?has_result@StorageWriteUserFileResultMessage@@QBE_NXZ 1005ab30 f i storage.pb.obj
 0001:00059b80       ?mutable_filedata@StoragePublisherFileMessage@@QAEPAV?$basic_string@DU?$char_traits@D@std@@V?$allocator@D@2@@std@@XZ 1005ab80 f i storage.pb.obj
 0001:00059c50       ?mutable_filedata@StorageUserFileMessage@@QAEPAV?$basic_string@DU?$char_traits@D@std@@V?$allocator@D@2@@std@@XZ 1005ac50 f i storage.pb.obj
 0001:00059d20       ?mutable_filedata@StorageWriteUserFileMessage@@QAEPAV?$basic_string@DU?$char_traits@D@std@@V?$allocator@D@2@@std@@XZ 1005ad20 f i storage.pb.obj
 0001:00059df0       ?mutable_filename@StorageGetPublisherFileMessage@@QAEPAV?$basic_string@DU?$char_traits@D@std@@V?$allocator@D@2@@std@@XZ 1005adf0 f i storage.pb.obj
 0001:00059ec0       ?mutable_filename@StorageGetUserFileMessage@@QAEPAV?$basic_string@DU?$char_traits@D@std@@V?$allocator@D@2@@std@@XZ 1005aec0 f i storage.pb.obj
 0001:00059f90       ?mutable_filename@StoragePublisherFileMessage@@QAEPAV?$basic_string@DU?$char_traits@D@std@@V?$allocator@D@2@@std@@XZ 1005af90 f i storage.pb.obj
 0001:0005a060       ?mutable_filename@StorageUserFileMessage@@QAEPAV?$basic_string@DU?$char_traits@D@std@@V?$allocator@D@2@@std@@XZ 1005b060 f i storage.pb.obj
 0001:0005a130       ?mutable_filename@StorageWriteUserFileMessage@@QAEPAV?$basic_string@DU?$char_traits@D@std@@V?$allocator@D@2@@std@@XZ 1005b130 f i storage.pb.obj
 0001:0005a200       ?mutable_filename@StorageWriteUserFileResultMessage@@QAEPAV?$basic_string@DU?$char_traits@D@std@@V?$allocator@D@2@@std@@XZ 1005b200 f i storage.pb.obj
 0001:0005a2d0       ?mutable_randomstring@StorageSendRandomStringMessage@@QAEPAV?$basic_string@DU?$char_traits@D@std@@V?$allocator@D@2@@std@@XZ 1005b2d0 f i storage.pb.obj
 0001:0005a3a0       ?npid@StorageGetUserFileMessage@@QBE_KXZ 1005b3a0 f i storage.pb.obj
 0001:0005a3d0       ?npid@StorageUserFileMessage@@QBE_KXZ 1005b3d0 f i storage.pb.obj
 0001:0005a400       ?npid@StorageWriteUserFileMessage@@QBE_KXZ 1005b400 f i storage.pb.obj
 0001:0005a430       ?npid@StorageWriteUserFileResultMessage@@QBE_KXZ 1005b430 f i storage.pb.obj
 0001:0005a460       ?protobuf_AddDesc_storage_2eproto@@YAXXZ 1005b460 f   storage.pb.obj
 0001:0005a800       ?protobuf_ShutdownFile_storage_2eproto@@YAXXZ 1005b800 f   storage.pb.obj
 0001:0005a9b0       ?randomstring@StorageSendRandomStringMessage@@QBEABV?$basic_string@DU?$char_traits@D@std@@V?$allocator@D@2@@std@@XZ 1005b9b0 f i storage.pb.obj
 0001:0005a9d0       ?set_filedata@StoragePublisherFileMessage@@QAEXABV?$basic_string@DU?$char_traits@D@std@@V?$allocator@D@2@@std@@@Z 1005b9d0 f i storage.pb.obj
 0001:0005aaa0       ?set_filedata@StorageUserFileMessage@@QAEXABV?$basic_string@DU?$char_traits@D@std@@V?$allocator@D@2@@std@@@Z 1005baa0 f i storage.pb.obj
 0001:0005ab70       ?set_filename@StorageGetPublisherFileMessage@@QAEXABV?$basic_string@DU?$char_traits@D@std@@V?$allocator@D@2@@std@@@Z 1005bb70 f i storage.pb.obj
 0001:0005ac40       ?set_filename@StorageGetUserFileMessage@@QAEXABV?$basic_string@DU?$char_traits@D@std@@V?$allocator@D@2@@std@@@Z 1005bc40 f i storage.pb.obj
 0001:0005ad10       ?set_filename@StoragePublisherFileMessage@@QAEXABV?$basic_string@DU?$char_traits@D@std@@V?$allocator@D@2@@std@@@Z 1005bd10 f i storage.pb.obj
 0001:0005ade0       ?set_filename@StorageUserFileMessage@@QAEXABV?$basic_string@DU?$char_traits@D@std@@V?$allocator@D@2@@std@@@Z 1005bde0 f i storage.pb.obj
 0001:0005aeb0       ?set_filename@StorageWriteUserFileMessage@@QAEXABV?$basic_string@DU?$char_traits@D@std@@V?$allocator@D@2@@std@@@Z 1005beb0 f i storage.pb.obj
 0001:0005af80       ?set_filename@StorageWriteUserFileResultMessage@@QAEXABV?$basic_string@DU?$char_traits@D@std@@V?$allocator@D@2@@std@@@Z 1005bf80 f i storage.pb.obj
 0001:0005b050       ?set_has_filedata@StoragePublisherFileMessage@@AAEXXZ 1005c050 f i storage.pb.obj
 0001:0005b0a0       ?set_has_filedata@StorageUserFileMessage@@AAEXXZ 1005c0a0 f i storage.pb.obj
 0001:0005b0f0       ?set_has_filename@StoragePublisherFileMessage@@AAEXXZ 1005c0f0 f i storage.pb.obj
 0001:0005b140       ?set_has_filename@StorageUserFileMessage@@AAEXXZ 1005c140 f i storage.pb.obj
 0001:0005b190       ?set_has_filename@StorageWriteUserFileResultMessage@@AAEXXZ 1005c190 f i storage.pb.obj
 0001:0005b1e0       ?set_has_npid@StorageUserFileMessage@@AAEXXZ 1005c1e0 f i storage.pb.obj
 0001:0005b230       ?set_has_npid@StorageWriteUserFileResultMessage@@AAEXXZ 1005c230 f i storage.pb.obj
 0001:0005b280       ?set_has_result@StoragePublisherFileMessage@@AAEXXZ 1005c280 f i storage.pb.obj
 0001:0005b2d0       ?set_has_result@StorageUserFileMessage@@AAEXXZ 1005c2d0 f i storage.pb.obj
 0001:0005b320       ?set_has_result@StorageWriteUserFileResultMessage@@AAEXXZ 1005c320 f i storage.pb.obj
 0001:0005b370       ?set_npid@StorageUserFileMessage@@QAEX_K@Z 1005c370 f i storage.pb.obj
 0001:0005b3b0       ?set_npid@StorageWriteUserFileResultMessage@@QAEX_K@Z 1005c3b0 f i storage.pb.obj
 0001:0005b3f0       ?set_randomstring@StorageSendRandomStringMessage@@QAEXABV?$basic_string@DU?$char_traits@D@std@@V?$allocator@D@2@@std@@@Z 1005c3f0 f i storage.pb.obj
 0001:0005b4c0       ?set_result@StoragePublisherFileMessage@@QAEXH@Z 1005c4c0 f i storage.pb.obj
 0001:0005b4f0       ?set_result@StorageUserFileMessage@@QAEXH@Z 1005c4f0 f i storage.pb.obj
 0001:0005b520       ?set_result@StorageWriteUserFileResultMessage@@QAEXH@Z 1005c520 f i storage.pb.obj
 0001:0005b550       _closesocket@4             1005c550 f   ws2_32:WS2_32.dll
 0001:0005b556       _connect@12                1005c556 f   ws2_32:WS2_32.dll
 0001:0005b55c       _ioctlsocket@12            1005c55c f   ws2_32:WS2_32.dll
 0001:0005b562       _htons@4                   1005c562 f   ws2_32:WS2_32.dll
 0001:0005b568       _recv@16                   1005c568 f   ws2_32:WS2_32.dll
 0001:0005b56e       _send@16                   1005c56e f   ws2_32:WS2_32.dll
 0001:0005b574       _setsockopt@20             1005c574 f   ws2_32:WS2_32.dll
 0001:0005b57a       _socket@12                 1005c57a f   ws2_32:WS2_32.dll
 0001:0005b580       _gethostbyname@4           1005c580 f   ws2_32:WS2_32.dll
 0001:0005b586       _WSAStartup@8              1005c586 f   ws2_32:WS2_32.dll
 0001:0005b58c       _WSACleanup@0              1005c58c f   ws2_32:WS2_32.dll
 0001:0005b592       _WSAGetLastError@0         1005c592 f   ws2_32:WS2_32.dll
 0001:0005b598       _WSACloseEvent@4           1005c598 f   ws2_32:WS2_32.dll
 0001:0005b5a0       ??0?$_String_const_iterator@V?$_String_val@U?$_Simple_types@D@std@@@std@@@std@@QAE@PBDPBU_Container_base0@1@@Z 1005c5a0 f i libprotobuf-lite:message_lite.obj
 0001:0005b5b0       ??0?$_String_iterator@V?$_String_val@U?$_Simple_types@D@std@@@std@@@std@@QAE@PADPBU_Container_base0@1@@Z 1005c5b0 f i libprotobuf-lite:message_lite.obj
 0001:0005b5c0       ??0CodedInputStream@io@protobuf@google@@QAE@PAVZeroCopyInputStream@123@@Z 1005c5c0 f i libprotobuf-lite:message_lite.obj
 0001:0005b640       ??0CodedInputStream@io@protobuf@google@@QAE@PBEH@Z 1005c640 f i libprotobuf-lite:message_lite.obj
 0001:0005b6b0       ??1MessageLite@protobuf@google@@UAE@XZ 1005c6b0 f   libprotobuf-lite:message_lite.obj
 0001:0005b6c0       ??D?$_String_const_iterator@V?$_String_val@U?$_Simple_types@D@std@@@std@@@std@@QBEABDXZ 1005c6c0 f i libprotobuf-lite:message_lite.obj
 0001:0005b6d0       ??D?$_String_iterator@V?$_String_val@U?$_Simple_types@D@std@@@std@@@std@@QBEAADXZ 1005c6d0 f i libprotobuf-lite:message_lite.obj
 0001:0005b6e0       ??Y?$basic_string@DU?$char_traits@D@std@@V?$allocator@D@2@@std@@QAEAAV01@ABV01@@Z 1005c6e0 f i libprotobuf-lite:message_lite.obj
 0001:0005b700       ??Y?$basic_string@DU?$char_traits@D@std@@V?$allocator@D@2@@std@@QAEAAV01@PBD@Z 1005c700 f i libprotobuf-lite:message_lite.obj
 0001:0005b740       ?Advance@CodedOutputStream@io@protobuf@google@@AAEXH@Z 1005c740 f i libprotobuf-lite:message_lite.obj
 0001:0005b750       ?AppendPartialToString@MessageLite@protobuf@google@@QBE_NPAV?$basic_string@DU?$char_traits@D@std@@V?$allocator@D@2@@std@@@Z 1005c750 f   libprotobuf-lite:message_lite.obj
 0001:0005b7e0       ?AppendToString@MessageLite@protobuf@google@@QBE_NPAV?$basic_string@DU?$char_traits@D@std@@V?$allocator@D@2@@std@@@Z 1005c7e0 f   libprotobuf-lite:message_lite.obj
 0001:0005b800       ?ByteCount@CodedOutputStream@io@protobuf@google@@QBEHXZ 1005c800 f i libprotobuf-lite:message_lite.obj
 0001:0005b810       ?ByteSizeConsistencyError@?A0x7cac84ef@protobuf@google@@YAXHHH@Z 1005c810 f   libprotobuf-lite:message_lite.obj
 0001:0005b960       ?GetDirectBufferForNBytesAndAdvance@CodedOutputStream@io@protobuf@google@@QAEPAEH@Z 1005c960 f i libprotobuf-lite:message_lite.obj
 0001:0005b990       ?HadError@CodedOutputStream@io@protobuf@google@@QBE_NXZ 1005c990 f i libprotobuf-lite:message_lite.obj
 0001:0005b9a0       ?InitializationErrorMessage@?A0x7cac84ef@protobuf@google@@YA?AV?$basic_string@DU?$char_traits@D@std@@V?$allocator@D@2@@std@@PBDABVMessageLite@23@@Z 1005c9a0 f   libprotobuf-lite:message_lite.obj
 0001:0005bad0       ?InitializationErrorString@MessageLite@protobuf@google@@UBE?AV?$basic_string@DU?$char_traits@D@std@@V?$allocator@D@2@@std@@XZ 1005cad0 f   libprotobuf-lite:message_lite.obj
 0001:0005bb10       ?InlineMergeFromCodedStream@?A0x7cac84ef@protobuf@google@@YA_NPAVCodedInputStream@io@23@PAVMessageLite@23@@Z 1005cb10 f i libprotobuf-lite:message_lite.obj
 0001:0005bbe0       ?InlineParseFromArray@?A0x7cac84ef@protobuf@google@@YA_NPBXHPAVMessageLite@23@@Z 1005cbe0 f i libprotobuf-lite:message_lite.obj
 0001:0005bcc0       ?InlineParseFromCodedStream@?A0x7cac84ef@protobuf@google@@YA_NPAVCodedInputStream@io@23@PAVMessageLite@23@@Z 1005ccc0 f i libprotobuf-lite:message_lite.obj
 0001:0005bce0       ?InlineParsePartialFromArray@?A0x7cac84ef@protobuf@google@@YA_NPBXHPAVMessageLite@23@@Z 1005cce0 f i libprotobuf-lite:message_lite.obj
 0001:0005bdc0       ?InlineParsePartialFromCodedStream@?A0x7cac84ef@protobuf@google@@YA_NPAVCodedInputStream@io@23@PAVMessageLite@23@@Z 1005cdc0 f i libprotobuf-lite:message_lite.obj
 0001:0005bde0       ?MergeFromCodedStream@MessageLite@protobuf@google@@QAE_NPAVCodedInputStream@io@23@@Z 1005cde0 f   libprotobuf-lite:message_lite.obj
 0001:0005be00       ?ParseFromArray@MessageLite@protobuf@google@@QAE_NPBXH@Z 1005ce00 f   libprotobuf-lite:message_lite.obj
 0001:0005be20       ?ParseFromBoundedZeroCopyStream@MessageLite@protobuf@google@@QAE_NPAVZeroCopyInputStream@io@23@H@Z 1005ce20 f   libprotobuf-lite:message_lite.obj
 0001:0005bec0       ?ParseFromCodedStream@MessageLite@protobuf@google@@QAE_NPAVCodedInputStream@io@23@@Z 1005cec0 f   libprotobuf-lite:message_lite.obj
 0001:0005bee0       ?ParseFromString@MessageLite@protobuf@google@@QAE_NABV?$basic_string@DU?$char_traits@D@std@@V?$allocator@D@2@@std@@@Z 1005cee0 f   libprotobuf-lite:message_lite.obj
 0001:0005bf00       ?ParseFromZeroCopyStream@MessageLite@protobuf@google@@QAE_NPAVZeroCopyInputStream@io@23@@Z 1005cf00 f   libprotobuf-lite:message_lite.obj
 0001:0005bf90       ?ParsePartialFromArray@MessageLite@protobuf@google@@QAE_NPBXH@Z 1005cf90 f   libprotobuf-lite:message_lite.obj
 0001:0005bfb0       ?ParsePartialFromBoundedZeroCopyStream@MessageLite@protobuf@google@@QAE_NPAVZeroCopyInputStream@io@23@H@Z 1005cfb0 f   libprotobuf-lite:message_lite.obj
 0001:0005c050       ?ParsePartialFromCodedStream@MessageLite@protobuf@google@@QAE_NPAVCodedInputStream@io@23@@Z 1005d050 f   libprotobuf-lite:message_lite.obj
 0001:0005c070       ?ParsePartialFromString@MessageLite@protobuf@google@@QAE_NABV?$basic_string@DU?$char_traits@D@std@@V?$allocator@D@2@@std@@@Z 1005d070 f   libprotobuf-lite:message_lite.obj
 0001:0005c090       ?ParsePartialFromZeroCopyStream@MessageLite@protobuf@google@@QAE_NPAVZeroCopyInputStream@io@23@@Z 1005d090 f   libprotobuf-lite:message_lite.obj
 0001:0005c120       ?STLStringResizeUninitialized@protobuf@google@@YAXPAV?$basic_string@DU?$char_traits@D@std@@V?$allocator@D@2@@std@@I@Z 1005d120 f i libprotobuf-lite:message_lite.obj
 0001:0005c150       ?SerializeAsString@MessageLite@protobuf@google@@QBE?AV?$basic_string@DU?$char_traits@D@std@@V?$allocator@D@2@@std@@XZ 1005d150 f   libprotobuf-lite:message_lite.obj
 0001:0005c1e0       ?SerializePartialAsString@MessageLite@protobuf@google@@QBE?AV?$basic_string@DU?$char_traits@D@std@@V?$allocator@D@2@@std@@XZ 1005d1e0 f   libprotobuf-lite:message_lite.obj
 0001:0005c270       ?SerializePartialToArray@MessageLite@protobuf@google@@QBE_NPAXH@Z 1005d270 f   libprotobuf-lite:message_lite.obj
 0001:0005c2c0       ?SerializePartialToCodedStream@MessageLite@protobuf@google@@QBE_NPAVCodedOutputStream@io@23@@Z 1005d2c0 f   libprotobuf-lite:message_lite.obj
 0001:0005c340       ?SerializePartialToString@MessageLite@protobuf@google@@QBE_NPAV?$basic_string@DU?$char_traits@D@std@@V?$allocator@D@2@@std@@@Z 1005d340 f   libprotobuf-lite:message_lite.obj
 0001:0005c370       ?SerializePartialToZeroCopyStream@MessageLite@protobuf@google@@QBE_NPAVZeroCopyOutputStream@io@23@@Z 1005d370 f   libprotobuf-lite:message_lite.obj
 0001:0005c3e0       ?SerializeToArray@MessageLite@protobuf@google@@QBE_NPAXH@Z 1005d3e0 f   libprotobuf-lite:message_lite.obj
 0001:0005c440       ?SerializeToCodedStream@MessageLite@protobuf@google@@QBE_NPAVCodedOutputStream@io@23@@Z 1005d440 f   libprotobuf-lite:message_lite.obj
 0001:0005c460       ?SerializeToString@MessageLite@protobuf@google@@QBE_NPAV?$basic_string@DU?$char_traits@D@std@@V?$allocator@D@2@@std@@@Z 1005d460 f   libprotobuf-lite:message_lite.obj
 0001:0005c4b0       ?SerializeToZeroCopyStream@MessageLite@protobuf@google@@QBE_NPAVZeroCopyOutputStream@io@23@@Z 1005d4b0 f   libprotobuf-lite:message_lite.obj
 0001:0005c530       ?SerializeWithCachedSizesToArray@MessageLite@protobuf@google@@UBEPAEPAE@Z 1005d530 f   libprotobuf-lite:message_lite.obj
 0001:0005c630       ?_Chassign@?$basic_string@DU?$char_traits@D@std@@V?$allocator@D@2@@std@@QAEXIID@Z 1005d630 f i libprotobuf-lite:message_lite.obj
 0001:0005c680       ?append@?$basic_string@DU?$char_traits@D@std@@V?$allocator@D@2@@std@@QAEAAV12@ABV12@@Z 1005d680 f i libprotobuf-lite:message_lite.obj
 0001:0005c6a0       ?append@?$basic_string@DU?$char_traits@D@std@@V?$allocator@D@2@@std@@QAEAAV12@ABV12@II@Z 1005d6a0 f i libprotobuf-lite:message_lite.obj
 0001:0005c7a0       ?append@?$basic_string@DU?$char_traits@D@std@@V?$allocator@D@2@@std@@QAEAAV12@ID@Z 1005d7a0 f i libprotobuf-lite:message_lite.obj
 0001:0005c850       ?append@?$basic_string@DU?$char_traits@D@std@@V?$allocator@D@2@@std@@QAEAAV12@PBD@Z 1005d850 f i libprotobuf-lite:message_lite.obj
 0001:0005c890       ?append@?$basic_string@DU?$char_traits@D@std@@V?$allocator@D@2@@std@@QAEAAV12@PBDI@Z 1005d890 f i libprotobuf-lite:message_lite.obj
 0001:0005c9c0       ?assign@?$char_traits@D@std@@SAPADPADID@Z 1005d9c0 f i libprotobuf-lite:message_lite.obj
 0001:0005c9e0       ?begin@?$basic_string@DU?$char_traits@D@std@@V?$allocator@D@2@@std@@QAE?AV?$_String_iterator@V?$_String_val@U?$_Simple_types@D@std@@@std@@@2@XZ 1005d9e0 f i libprotobuf-lite:message_lite.obj
 0001:0005ca00       ?data@?$basic_string@DU?$char_traits@D@std@@V?$allocator@D@2@@std@@QBEPBDXZ 1005da00 f i libprotobuf-lite:message_lite.obj
 0001:0005ca10       ?empty@?$basic_string@DU?$char_traits@D@std@@V?$allocator@D@2@@std@@QBE_NXZ 1005da10 f i libprotobuf-lite:message_lite.obj
 0001:0005ca20       ?resize@?$basic_string@DU?$char_traits@D@std@@V?$allocator@D@2@@std@@QAEXI@Z 1005da20 f i libprotobuf-lite:message_lite.obj
 0001:0005ca50       ?resize@?$basic_string@DU?$char_traits@D@std@@V?$allocator@D@2@@std@@QAEXID@Z 1005da50 f i libprotobuf-lite:message_lite.obj
 0001:0005ca80       ?string_as_array@protobuf@google@@YAPADPAV?$basic_string@DU?$char_traits@D@std@@V?$allocator@D@2@@std@@@Z 1005da80 f i libprotobuf-lite:message_lite.obj
 0001:0005caa0       ?Infinity@internal@protobuf@google@@YANXZ 1005daa0 f   libprotobuf-lite:generated_message_util.obj
 0001:0005cab0       ?NaN@internal@protobuf@google@@YANXZ 1005dab0 f   libprotobuf-lite:generated_message_util.obj
 0001:0005cac0       ?infinity@?$numeric_limits@N@std@@SANXZ 1005dac0 f i libprotobuf-lite:generated_message_util.obj
 0001:0005cad0       ?quiet_NaN@?$numeric_limits@N@std@@SANXZ 1005dad0 f i libprotobuf-lite:generated_message_util.obj
 0001:0005cae0       ?DefaultLogHandler@internal@protobuf@google@@YAXW4LogLevel@23@PBDHABV?$basic_string@DU?$char_traits@D@std@@V?$allocator@D@2@@std@@@Z 1005dae0 f   libprotobuf-lite:common.obj
 0001:0005cb30       ??$_Allocate@P6AXXZ@std@@YAPAP6AXXZIPAP6AXXZ@Z 1005db30 f i libprotobuf-lite:common.obj
 0001:0005cb60       ??$_Destroy_range@U?$_Wrap_alloc@V?$allocator@P6AXXZ@std@@@std@@@std@@YAXPAP6AXXZ0AAU?$_Wrap_alloc@V?$allocator@P6AXXZ@std@@@0@@Z 1005db60 f i libprotobuf-lite:common.obj
 0001:0005cb70       ??$_Destroy_range@U?$_Wrap_alloc@V?$allocator@P6AXXZ@std@@@std@@@std@@YAXPAP6AXXZ0AAU?$_Wrap_alloc@V?$allocator@P6AXXZ@std@@@0@U_Scalar_ptr_iterator_tag@0@@Z 1005db70 f i libprotobuf-lite:common.obj
 0001:0005cb80       ??$_Ptr_cat@P6AXXZP6AXXZ@std@@YA?AU_Scalar_ptr_iterator_tag@0@PAP6AXXZ0@Z 1005db80 f i libprotobuf-lite:common.obj
 0001:0005cb90       ??$_Umove@PAP6AXXZ@?$vector@P6AXXZV?$allocator@P6AXXZ@std@@@std@@IAEPAP6AXXZPAP6AXXZ00@Z 1005db90 f i libprotobuf-lite:common.obj
 0001:0005cbc0       ??$_Uninit_move@P6AXXZP6AXXZP6AXXZ@std@@YAPAP6AXXZPAP6AXXZ00AAU?$_Wrap_alloc@V?$allocator@P6AXXZ@std@@@0@0U_Scalar_ptr_iterator_tag@0@@Z 1005dbc0 f i libprotobuf-lite:common.obj
 0001:0005cbf0       ??$_Uninitialized_move@PAP6AXXZPAP6AXXZU?$_Wrap_alloc@V?$allocator@P6AXXZ@std@@@std@@@std@@YAPAP6AXXZPAP6AXXZ00AAU?$_Wrap_alloc@V?$allocator@P6AXXZ@std@@@0@@Z 1005dbf0 f i libprotobuf-lite:common.obj
 0001:0005cc20       ??$_Val_type@PAP6AXXZ@std@@YAPAP6AXXZPAP6AXXZ@Z 1005dc20 f i libprotobuf-lite:common.obj
 0001:0005cc30       ??$addressof@Q6AXXZ@std@@YAPBQ6AXXZABQ6AXXZ@Z 1005dc30 f i libprotobuf-lite:common.obj
 0001:0005cc40       ??$construct@P6AXXZAAP6AXXZ@?$_Wrap_alloc@V?$allocator@P6AXXZ@std@@@std@@QAEXPAP6AXXZAAP6AXXZ@Z 1005dc40 f i libprotobuf-lite:common.obj
 0001:0005cc60       ??$construct@P6AXXZAAP6AXXZ@?$allocator@P6AXXZ@std@@QAEXPAP6AXXZAAP6AXXZ@Z 1005dc60 f i libprotobuf-lite:common.obj
 0001:0005cc80       ??$construct@P6AXXZAAP6AXXZ@?$allocator_traits@V?$allocator@P6AXXZ@std@@@std@@SAXAAV?$allocator@P6AXXZ@1@PAP6AXXZAAP6AXXZ@Z 1005dc80 f i libprotobuf-lite:common.obj
 0001:0005cca0       ??$construct@P6AXXZABQ6AXXZ@?$_Wrap_alloc@V?$allocator@P6AXXZ@std@@@std@@QAEXPAP6AXXZABQ6AXXZ@Z 1005dca0 f i libprotobuf-lite:common.obj
 0001:0005ccc0       ??$construct@P6AXXZABQ6AXXZ@?$allocator_traits@V?$allocator@P6AXXZ@std@@@std@@SAXAAV?$allocator@P6AXXZ@1@PAP6AXXZABQ6AXXZ@Z 1005dcc0 f i libprotobuf-lite:common.obj
 0001:0005cce0       ??$forward@AAP6AXXZ@std@@YAAAP6AXXZAAP6AXXZ@Z 1005dce0 f i libprotobuf-lite:common.obj
 0001:0005ccf0       ??$forward@ABQ6AXXZ@std@@YAABQ6AXXZABQ6AXXZ@Z 1005dcf0 f i libprotobuf-lite:common.obj
 0001:0005cd00       ??0?$_Vector_alloc@$0A@U?$_Vec_base_types@P6AXXZV?$allocator@P6AXXZ@std@@@std@@@std@@QAE@ABV?$allocator@P6AXXZ@1@@Z 1005dd00 f i libprotobuf-lite:common.obj
 0001:0005cd20       ??0?$_Vector_val@U?$_Simple_types@P6AXXZ@std@@@std@@QAE@XZ 1005dd20 f i libprotobuf-lite:common.obj
 0001:0005cd40       ??0?$_Wrap_alloc@V?$allocator@P6AXXZ@std@@@std@@QAE@XZ 1005dd40 f i libprotobuf-lite:common.obj
 0001:0005cd50       ??0?$allocator@P6AXXZ@std@@QAE@XZ 1005dd50 f i libprotobuf-lite:common.obj
 0001:0005cd60       ??0?$vector@P6AXXZV?$allocator@P6AXXZ@std@@@std@@QAE@XZ 1005dd60 f i libprotobuf-lite:common.obj
 0001:0005cd80       ??0Closure@protobuf@google@@QAE@XZ 1005dd80 f i libprotobuf-lite:common.obj
 0001:0005cd90       ??0FatalException@protobuf@google@@QAE@ABV012@@Z 1005dd90 f i libprotobuf-lite:common.obj
 0001:0005ce20       ??0FatalException@protobuf@google@@QAE@PBDHABV?$basic_string@DU?$char_traits@D@std@@V?$allocator@D@2@@std@@@Z 1005de20 f i libprotobuf-lite:common.obj
 0001:0005cea0       ??0FunctionClosure0@internal@protobuf@google@@QAE@P6AXXZ_N@Z 1005dea0 f i libprotobuf-lite:common.obj
 0001:0005cec0       ??0LogMessage@internal@protobuf@google@@QAE@W4LogLevel@23@PBDH@Z 1005dec0 f   libprotobuf-lite:common.obj
 0001:0005cef0       ??0LogSilencer@protobuf@google@@QAE@XZ 1005def0 f   libprotobuf-lite:common.obj
 0001:0005cf90       ??0Mutex@internal@protobuf@google@@QAE@XZ 1005df90 f   libprotobuf-lite:common.obj
 0001:0005cfb0       ??0MutexLock@internal@protobuf@google@@QAE@PAVMutex@123@@Z 1005dfb0 f i libprotobuf-lite:common.obj
 0001:0005cfd0       ??1?$vector@P6AXXZV?$allocator@P6AXXZ@std@@@std@@QAE@XZ 1005dfd0 f i libprotobuf-lite:common.obj
 0001:0005d000       ??1Closure@protobuf@google@@UAE@XZ 1005e000 f   libprotobuf-lite:common.obj
 0001:0005d010       ??1FatalException@protobuf@google@@UAE@XZ 1005e010 f   libprotobuf-lite:common.obj
 0001:0005d050       ??1FunctionClosure0@internal@protobuf@google@@UAE@XZ 1005e050 f   libprotobuf-lite:common.obj
 0001:0005d060       ??1LogMessage@internal@protobuf@google@@QAE@XZ 1005e060 f   libprotobuf-lite:common.obj
 0001:0005d090       ??1LogSilencer@protobuf@google@@QAE@XZ 1005e090 f   libprotobuf-lite:common.obj
 0001:0005d120       ??1Mutex@internal@protobuf@google@@QAE@XZ 1005e120 f   libprotobuf-lite:common.obj
 0001:0005d140       ??1MutexLock@internal@protobuf@google@@QAE@XZ 1005e140 f i libprotobuf-lite:common.obj
 0001:0005d150       ??4LogFinisher@internal@protobuf@google@@QAEXAAVLogMessage@123@@Z 1005e150 f   libprotobuf-lite:common.obj
 0001:0005d160       ??6LogMessage@internal@protobuf@google@@QAEAAV0123@ABV?$basic_string@DU?$char_traits@D@std@@V?$allocator@D@2@@std@@@Z 1005e160 f   libprotobuf-lite:common.obj
 0001:0005d180       ??6LogMessage@internal@protobuf@google@@QAEAAV0123@D@Z 1005e180 f   libprotobuf-lite:common.obj
 0001:0005d200       ??6LogMessage@internal@protobuf@google@@QAEAAV0123@H@Z 1005e200 f   libprotobuf-lite:common.obj
 0001:0005d280       ??6LogMessage@internal@protobuf@google@@QAEAAV0123@I@Z 1005e280 f   libprotobuf-lite:common.obj
 0001:0005d300       ??6LogMessage@internal@protobuf@google@@QAEAAV0123@J@Z 1005e300 f   libprotobuf-lite:common.obj
 0001:0005d380       ??6LogMessage@internal@protobuf@google@@QAEAAV0123@K@Z 1005e380 f   libprotobuf-lite:common.obj
 0001:0005d400       ??6LogMessage@internal@protobuf@google@@QAEAAV0123@N@Z 1005e400 f   libprotobuf-lite:common.obj
 0001:0005d490       ??6LogMessage@internal@protobuf@google@@QAEAAV0123@PBD@Z 1005e490 f   libprotobuf-lite:common.obj
 0001:0005d4e0       ??_G?$vector@P6AXXZV?$allocator@P6AXXZ@std@@@std@@QAEPAXI@Z 1005e4e0 f i libprotobuf-lite:common.obj
 0001:0005d520       ??_EClosure@protobuf@google@@UAEPAXI@Z 1005e520 f i libprotobuf-lite:common.obj
 0001:0005d520       ??_GClosure@protobuf@google@@UAEPAXI@Z 1005e520 f i libprotobuf-lite:common.obj
 0001:0005d550       ??_EFatalException@protobuf@google@@UAEPAXI@Z 1005e550 f i libprotobuf-lite:common.obj
 0001:0005d550       ??_GFatalException@protobuf@google@@UAEPAXI@Z 1005e550 f i libprotobuf-lite:common.obj
 0001:0005d5a0       ??_GFunctionClosure0@internal@protobuf@google@@UAEPAXI@Z 1005e5a0 f i libprotobuf-lite:common.obj
 0001:0005d5a0       ??_EFunctionClosure0@internal@protobuf@google@@UAEPAXI@Z 1005e5a0 f i libprotobuf-lite:common.obj
 0001:0005d5d0       ??_GMutex@internal@protobuf@google@@QAEPAXI@Z 1005e5d0 f i libprotobuf-lite:common.obj
 0001:0005d600       ?Acquire_Load@internal@protobuf@google@@YAHPDH@Z 1005e600 f i libprotobuf-lite:common.obj
 0001:0005d610       ?AssertHeld@Mutex@internal@protobuf@google@@QAEXXZ 1005e610 f   libprotobuf-lite:common.obj
 0001:0005d620       ?DeleteLogSilencerCount@internal@protobuf@google@@YAXXZ 1005e620 f   libprotobuf-lite:common.obj
 0001:0005d650       ?DoNothing@protobuf@google@@YAXXZ 1005e650 f   libprotobuf-lite:common.obj
 0001:0005d660       ?Finish@LogMessage@internal@protobuf@google@@AAEXXZ 1005e660 f   libprotobuf-lite:common.obj
 0001:0005d790       ?GoogleOnceInit@protobuf@google@@YAXPAHP6AXXZ@Z 1005e790 f i libprotobuf-lite:common.obj
 0001:0005d800       ?InitLogSilencerCount@internal@protobuf@google@@YAXXZ 1005e800 f   libprotobuf-lite:common.obj
 0001:0005d880       ?InitLogSilencerCountOnce@internal@protobuf@google@@YAXXZ 1005e880 f   libprotobuf-lite:common.obj
 0001:0005d8f0       ?InitShutdownFunctions@internal@protobuf@google@@YAXXZ 1005e8f0 f   libprotobuf-lite:common.obj
 0001:0005d9a0       ?InitShutdownFunctionsOnce@internal@protobuf@google@@YAXXZ 1005e9a0 f i libprotobuf-lite:common.obj
 0001:0005da10       ?Lock@Mutex@internal@protobuf@google@@QAEXXZ 1005ea10 f   libprotobuf-lite:common.obj
 0001:0005da20       ?NullLogHandler@internal@protobuf@google@@YAXW4LogLevel@23@PBDHABV?$basic_string@DU?$char_traits@D@std@@V?$allocator@D@2@@std@@@Z 1005ea20 f   libprotobuf-lite:common.obj
 0001:0005da30       ?OnShutdown@internal@protobuf@google@@YAXP6AXXZ@Z 1005ea30 f   libprotobuf-lite:common.obj
 0001:0005dad0       ?Run@FunctionClosure0@internal@protobuf@google@@UAEXXZ 1005ead0 f i libprotobuf-lite:common.obj
 0001:0005daf0       ?SetLogHandler@protobuf@google@@YAP6AXW4LogLevel@12@PBDHABV?$basic_string@DU?$char_traits@D@std@@V?$allocator@D@2@@std@@@ZP6AX01H2@Z@Z 1005eaf0 f   libprotobuf-lite:common.obj
 0001:0005db20       ?ShutdownProtobufLibrary@protobuf@google@@YAXXZ 1005eb20 f   libprotobuf-lite:common.obj
 0001:0005dc40       ?Unlock@Mutex@internal@protobuf@google@@QAEXXZ 1005ec40 f   libprotobuf-lite:common.obj
 0001:0005dc50       ?VerifyVersion@internal@protobuf@google@@YAXHHPBD@Z 1005ec50 f   libprotobuf-lite:common.obj
 0001:0005df40       ?VersionString@internal@protobuf@google@@YA?AV?$basic_string@DU?$char_traits@D@std@@V?$allocator@D@2@@std@@H@Z 1005ef40 f   libprotobuf-lite:common.obj
 0001:0005e010       ?_Destroy@?$vector@P6AXXZV?$allocator@P6AXXZ@std@@@std@@IAEXPAP6AXXZ0@Z 1005f010 f i libprotobuf-lite:common.obj
 0001:0005e020       ?_Getal@?$_Vector_alloc@$0A@U?$_Vec_base_types@P6AXXZV?$allocator@P6AXXZ@std@@@std@@@std@@QBE?AU?$_Wrap_alloc@V?$allocator@P6AXXZ@std@@@2@XZ 1005f020 f i libprotobuf-lite:common.obj
 0001:0005e030       ?_Grow_to@?$vector@P6AXXZV?$allocator@P6AXXZ@std@@@std@@IBEII@Z 1005f030 f i libprotobuf-lite:common.obj
 0001:0005e070       ?_Inside@?$vector@P6AXXZV?$allocator@P6AXXZ@std@@@std@@IBE_NPBQ6AXXZ@Z 1005f070 f i libprotobuf-lite:common.obj
 0001:0005e090       ?_Orphan_range@?$vector@P6AXXZV?$allocator@P6AXXZ@std@@@std@@IBEXPAP6AXXZ0@Z 1005f090 f i libprotobuf-lite:common.obj
 0001:0005e0a0       ?_Reallocate@?$vector@P6AXXZV?$allocator@P6AXXZ@std@@@std@@IAEXI@Z 1005f0a0 f i libprotobuf-lite:common.obj
 0001:0005e120       ?_Reserve@?$vector@P6AXXZV?$allocator@P6AXXZ@std@@@std@@IAEXI@Z 1005f120 f i libprotobuf-lite:common.obj
 0001:0005e1a0       ?_Tidy@?$vector@P6AXXZV?$allocator@P6AXXZ@std@@@std@@IAEXXZ 1005f1a0 f i libprotobuf-lite:common.obj
 0001:0005e1d0       ?_Unused_capacity@?$vector@P6AXXZV?$allocator@P6AXXZ@std@@@std@@QBEIXZ 1005f1d0 f i libprotobuf-lite:common.obj
 0001:0005e1e0       ?_Xlen@?$vector@P6AXXZV?$allocator@P6AXXZ@std@@@std@@IBEXXZ 1005f1e0 f i libprotobuf-lite:common.obj
 0001:0005e1f0       ?_Xran@?$vector@P6AXXZV?$allocator@P6AXXZ@std@@@std@@IBEXXZ 1005f1f0 f i libprotobuf-lite:common.obj
 0001:0005e200       ?allocate@?$_Wrap_alloc@V?$allocator@P6AXXZ@std@@@std@@QAEPAP6AXXZI@Z 1005f200 f i libprotobuf-lite:common.obj
 0001:0005e240       ?allocate@?$allocator@P6AXXZ@std@@QAEPAP6AXXZI@Z 1005f240 f i libprotobuf-lite:common.obj
 0001:0005e280       ?at@?$vector@P6AXXZV?$allocator@P6AXXZ@std@@@std@@QAEAAP6AXXZI@Z 1005f280 f i libprotobuf-lite:common.obj
 0001:0005e2b0       ?capacity@?$vector@P6AXXZV?$allocator@P6AXXZ@std@@@std@@QBEIXZ 1005f2b0 f i libprotobuf-lite:common.obj
 0001:0005e2c0       ?construct@?$allocator@P6AXXZ@std@@QAEXPAP6AXXZABQ6AXXZ@Z 1005f2c0 f i libprotobuf-lite:common.obj
 0001:0005e2e0       ?deallocate@?$_Wrap_alloc@V?$allocator@P6AXXZ@std@@@std@@QAEXPAP6AXXZI@Z 1005f2e0 f i libprotobuf-lite:common.obj
 0001:0005e300       ?deallocate@?$allocator@P6AXXZ@std@@QAEXPAP6AXXZI@Z 1005f300 f i libprotobuf-lite:common.obj
 0001:0005e320       ?ghtonl@protobuf@google@@YAII@Z 1005f320 f   libprotobuf-lite:common.obj
 0001:0005e350       ?max_size@?$_Wrap_alloc@V?$allocator@P6AXXZ@std@@@std@@QBEIXZ 1005f350 f i libprotobuf-lite:common.obj
 0001:0005e360       ?max_size@?$allocator@P6AXXZ@std@@QBEIXZ 1005f360 f i libprotobuf-lite:common.obj
 0001:0005e370       ?max_size@?$allocator_traits@V?$allocator@P6AXXZ@std@@@std@@SAIABV?$allocator@P6AXXZ@2@@Z 1005f370 f i libprotobuf-lite:common.obj
 0001:0005e380       ?max_size@?$vector@P6AXXZV?$allocator@P6AXXZ@std@@@std@@QBEIXZ 1005f380 f i libprotobuf-lite:common.obj
 0001:0005e390       ?push_back@?$vector@P6AXXZV?$allocator@P6AXXZ@std@@@std@@QAEXABQ6AXXZ@Z 1005f390 f i libprotobuf-lite:common.obj
 0001:0005e400       ?size@?$vector@P6AXXZV?$allocator@P6AXXZ@std@@@std@@QBEIXZ 1005f400 f i libprotobuf-lite:common.obj
 0001:0005e410       ?what@FatalException@protobuf@google@@UBEPBDXZ 1005f410 f   libprotobuf-lite:common.obj
 0001:0005e420       ?Delete@StringTypeHandlerBase@internal@protobuf@google@@SAXPAV?$basic_string@DU?$char_traits@D@std@@V?$allocator@D@2@@std@@@Z 1005f420 f   libprotobuf-lite:repeated_field.obj
 0001:0005e460       ?New@StringTypeHandlerBase@internal@protobuf@google@@SAPAV?$basic_string@DU?$char_traits@D@std@@V?$allocator@D@2@@std@@XZ 1005f460 f   libprotobuf-lite:repeated_field.obj
 0001:0005e490       ?Reserve@RepeatedPtrFieldBase@internal@protobuf@google@@IAEXH@Z 1005f490 f   libprotobuf-lite:repeated_field.obj
 0001:0005e510       ?Swap@RepeatedPtrFieldBase@internal@protobuf@google@@IAEXPAV1234@@Z 1005f510 f   libprotobuf-lite:repeated_field.obj
 0001:0005e560       ??0CodedOutputStream@io@protobuf@google@@QAE@PAVZeroCopyOutputStream@123@@Z 1005f560 f   libprotobuf-lite:coded_stream.obj
 0001:0005e5d0       ??1CodedInputStream@io@protobuf@google@@QAE@XZ 1005f5d0 f   libprotobuf-lite:coded_stream.obj
 0001:0005e6a0       ??1CodedOutputStream@io@protobuf@google@@QAE@XZ 1005f6a0 f   libprotobuf-lite:coded_stream.obj
 0001:0005e6b0       ?BackUpInputToCurrentPosition@CodedInputStream@io@protobuf@google@@AAEXXZ 1005f6b0 f   libprotobuf-lite:coded_stream.obj
 0001:0005e6f0       ?BytesUntilLimit@CodedInputStream@io@protobuf@google@@QBEHXZ 1005f6f0 f   libprotobuf-lite:coded_stream.obj
 0001:0005e710       ?CurrentPosition@CodedInputStream@io@protobuf@google@@QBEHXZ 1005f710 f i libprotobuf-lite:coded_stream.obj
 0001:0005e720       ?GetDirectBufferPointer@CodedInputStream@io@protobuf@google@@QAE_NPAPBXPAH@Z 1005f720 f   libprotobuf-lite:coded_stream.obj
 0001:0005e760       ?GetDirectBufferPointer@CodedOutputStream@io@protobuf@google@@QAE_NPAPAXPAH@Z 1005f760 f   libprotobuf-lite:coded_stream.obj
 0001:0005e7d0       ?InternalReadStringInline@CodedInputStream@io@protobuf@google@@QAE_NPAV?$basic_string@DU?$char_traits@D@std@@V?$allocator@D@2@@std@@H@Z 1005f7d0 f i libprotobuf-lite:coded_stream.obj
 0001:0005e860       ?NextNonEmpty@?A0x2451d2e2@io@protobuf@google@@YA_NPAVZeroCopyInputStream@234@PAPBXPAH@Z 1005f860 f i libprotobuf-lite:coded_stream.obj
 0001:0005e890       ?PopLimit@CodedInputStream@io@protobuf@google@@QAEXH@Z 1005f890 f   libprotobuf-lite:coded_stream.obj
 0001:0005e8d0       ?PrintTotalBytesLimitError@CodedInputStream@io@protobuf@google@@AAEXXZ 1005f8d0 f   libprotobuf-lite:coded_stream.obj
 0001:0005e970       ?PushLimit@CodedInputStream@io@protobuf@google@@QAEHH@Z 1005f970 f   libprotobuf-lite:coded_stream.obj
 0001:0005ea00       ?ReadLittleEndian32Fallback@CodedInputStream@io@protobuf@google@@AAE_NPAI@Z 1005fa00 f   libprotobuf-lite:coded_stream.obj
 0001:0005ea60       ?ReadLittleEndian32FromArray@CodedInputStream@io@protobuf@google@@SAPBEPBEPAI@Z 1005fa60 f i libprotobuf-lite:coded_stream.obj
 0001:0005ea80       ?ReadLittleEndian64Fallback@CodedInputStream@io@protobuf@google@@AAE_NPA_K@Z 1005fa80 f   libprotobuf-lite:coded_stream.obj
 0001:0005eaf0       ?ReadRaw@CodedInputStream@io@protobuf@google@@QAE_NPAXH@Z 1005faf0 f   libprotobuf-lite:coded_stream.obj
 0001:0005edc0       ?ReadString@CodedInputStream@io@protobuf@google@@QAE_NPAV?$basic_string@DU?$char_traits@D@std@@V?$allocator@D@2@@std@@H@Z 1005fdc0 f   libprotobuf-lite:coded_stream.obj
 0001:0005ede0       ?ReadStringFallback@CodedInputStream@io@protobuf@google@@AAE_NPAV?$basic_string@DU?$char_traits@D@std@@V?$allocator@D@2@@std@@H@Z 1005fde0 f   libprotobuf-lite:coded_stream.obj
 0001:0005ee60       ?ReadTagFallback@CodedInputStream@io@protobuf@google@@AAEIXZ 1005fe60 f   libprotobuf-lite:coded_stream.obj
 0001:0005eed0       ?ReadTagSlow@CodedInputStream@io@protobuf@google@@AAEIXZ 1005fed0 f   libprotobuf-lite:coded_stream.obj
 0001:0005ef50       ?ReadVarint32Fallback@CodedInputStream@io@protobuf@google@@AAE_NPAI@Z 1005ff50 f   libprotobuf-lite:coded_stream.obj
 0001:0005efc0       ?ReadVarint32FromArray@?A0x2451d2e2@io@protobuf@google@@YAPBEPBEPAI@Z 1005ffc0 f i libprotobuf-lite:coded_stream.obj
 0001:0005f040       ?ReadVarint32Slow@CodedInputStream@io@protobuf@google@@AAE_NPAI@Z 10060040 f   libprotobuf-lite:coded_stream.obj
 0001:0005f070       ?ReadVarint64@CodedInputStream@io@protobuf@google@@QAE_NPA_K@Z 10060070 f i libprotobuf-lite:coded_stream.obj
 0001:0005f0b0       ?ReadVarint64Fallback@CodedInputStream@io@protobuf@google@@AAE_NPA_K@Z 100600b0 f   libprotobuf-lite:coded_stream.obj
 0001:0005f1d0       ?ReadVarint64Slow@CodedInputStream@io@protobuf@google@@AAE_NPA_K@Z 100601d0 f   libprotobuf-lite:coded_stream.obj
 0001:0005f500       ?RecomputeBufferLimits@CodedInputStream@io@protobuf@google@@AAEXXZ 10060500 f i libprotobuf-lite:coded_stream.obj
 0001:0005f540       ?Refresh@CodedInputStream@io@protobuf@google@@AAE_NXZ 10060540 f   libprotobuf-lite:coded_stream.obj
 0001:0005f730       ?Refresh@CodedOutputStream@io@protobuf@google@@AAE_NXZ 10060730 f   libprotobuf-lite:coded_stream.obj
 0001:0005f780       ?SetTotalBytesLimit@CodedInputStream@io@protobuf@google@@QAEXHH@Z 10060780 f   libprotobuf-lite:coded_stream.obj
 0001:0005f800       ?Skip@CodedInputStream@io@protobuf@google@@QAE_NH@Z 10060800 f   libprotobuf-lite:coded_stream.obj
 0001:0005f8a0       ?Skip@CodedOutputStream@io@protobuf@google@@QAE_NH@Z 100608a0 f   libprotobuf-lite:coded_stream.obj
 0001:0005f910       ?VarintSize32Fallback@CodedOutputStream@io@protobuf@google@@CAHI@Z 10060910 f   libprotobuf-lite:coded_stream.obj
 0001:0005f950       ?VarintSize64@CodedOutputStream@io@protobuf@google@@SAH_K@Z 10060950 f   libprotobuf-lite:coded_stream.obj
 0001:0005fa20       ?WriteLittleEndian32@CodedOutputStream@io@protobuf@google@@QAEXI@Z 10060a20 f   libprotobuf-lite:coded_stream.obj
 0001:0005fa70       ?WriteLittleEndian32ToArray@CodedOutputStream@io@protobuf@google@@SAPAEIPAE@Z 10060a70 f i libprotobuf-lite:coded_stream.obj
 0001:0005fa80       ?WriteLittleEndian64@CodedOutputStream@io@protobuf@google@@QAEX_K@Z 10060a80 f   libprotobuf-lite:coded_stream.obj
 0001:0005faf0       ?WriteLittleEndian64ToArray@CodedOutputStream@io@protobuf@google@@SAPAE_KPAE@Z 10060af0 f i libprotobuf-lite:coded_stream.obj
 0001:0005fb10       ?WriteRaw@CodedOutputStream@io@protobuf@google@@QAEXPBXH@Z 10060b10 f   libprotobuf-lite:coded_stream.obj
 0001:0005fba0       ?WriteRawToArray@CodedOutputStream@io@protobuf@google@@SAPAEPBXHPAE@Z 10060ba0 f   libprotobuf-lite:coded_stream.obj
 0001:0005fbc0       ?WriteVarint32@CodedOutputStream@io@protobuf@google@@QAEXI@Z 10060bc0 f   libprotobuf-lite:coded_stream.obj
 0001:0005fc50       ?WriteVarint32FallbackToArray@CodedOutputStream@io@protobuf@google@@CAPAEIPAE@Z 10060c50 f   libprotobuf-lite:coded_stream.obj
 0001:0005fc60       ?WriteVarint32FallbackToArrayInline@CodedOutputStream@io@protobuf@google@@CAPAEIPAE@Z 10060c60 f i libprotobuf-lite:coded_stream.obj
 0001:0005fcf0       ?WriteVarint64@CodedOutputStream@io@protobuf@google@@QAEX_K@Z 10060cf0 f   libprotobuf-lite:coded_stream.obj
 0001:0005fd90       ?WriteVarint64ToArray@CodedOutputStream@io@protobuf@google@@SAPAE_KPAE@Z 10060d90 f   libprotobuf-lite:coded_stream.obj
 0001:0005fdb0       ?WriteVarint64ToArrayInline@CodedOutputStream@io@protobuf@google@@CAPAE_KPAE@Z 10060db0 f i libprotobuf-lite:coded_stream.obj
 0001:0005fee0       ??$ReadPrimitive@H$0O@@WireFormatLite@internal@protobuf@google@@SA_NPAVCodedInputStream@io@23@PAH@Z 10060ee0 f i libprotobuf-lite:wire_format_lite.obj
 0001:0005ff20       ??R?$ElementCopier@H$00@internal@protobuf@google@@QAEXQAHQBHH@Z 10060f20 f i libprotobuf-lite:wire_format_lite.obj
 0001:0005ff40       ?Add@?$RepeatedField@H@protobuf@google@@QAEXABH@Z 10060f40 f i libprotobuf-lite:wire_format_lite.obj
 0001:0005ff70       ?CopyArray@?$RepeatedField@H@protobuf@google@@AAEXQAHQBHH@Z 10060f70 f i libprotobuf-lite:wire_format_lite.obj
 0001:0005ff90       ?EncodeDouble@WireFormatLite@internal@protobuf@google@@SA_KN@Z 10060f90 f i libprotobuf-lite:wire_format_lite.obj
 0001:0005ffb0       ?EncodeFloat@WireFormatLite@internal@protobuf@google@@SAIM@Z 10060fb0 f i libprotobuf-lite:wire_format_lite.obj
 0001:0005ffd0       ?LastTagWas@CodedInputStream@io@protobuf@google@@QAE_NI@Z 10060fd0 f i libprotobuf-lite:wire_format_lite.obj
 0001:0005fff0       ?MakeTag@WireFormatLite@internal@protobuf@google@@SAIHW4WireType@1234@@Z 10060ff0 f i libprotobuf-lite:wire_format_lite.obj
 0001:00060000       ?MoveArray@?$RepeatedField@H@protobuf@google@@AAEXQAH0H@Z 10061000 f i libprotobuf-lite:wire_format_lite.obj
 0001:00060020       ?ReadBytes@WireFormatLite@internal@protobuf@google@@SA_NPAVCodedInputStream@io@34@PAV?$basic_string@DU?$char_traits@D@std@@V?$allocator@D@2@@std@@@Z 10061020 f   libprotobuf-lite:wire_format_lite.obj
 0001:00060080       ?ReadPackedEnumNoInline@WireFormatLite@internal@protobuf@google@@SA_NPAVCodedInputStream@io@34@P6A_NH@ZPAV?$RepeatedField@H@34@@Z 10061080 f   libprotobuf-lite:wire_format_lite.obj
 0001:00060160       ?ReadString@WireFormatLite@internal@protobuf@google@@SA_NPAVCodedInputStream@io@34@PAV?$basic_string@DU?$char_traits@D@std@@V?$allocator@D@2@@std@@@Z 10061160 f   libprotobuf-lite:wire_format_lite.obj
 0001:000601c0       ?Reserve@?$RepeatedField@H@protobuf@google@@QAEXH@Z 100611c0 f i libprotobuf-lite:wire_format_lite.obj
 0001:00060240       ?SkipField@FieldSkipper@internal@protobuf@google@@UAE_NPAVCodedInputStream@io@34@I@Z 10061240 f   libprotobuf-lite:wire_format_lite.obj
 0001:00060260       ?SkipField@WireFormatLite@internal@protobuf@google@@SA_NPAVCodedInputStream@io@34@I@Z 10061260 f   libprotobuf-lite:wire_format_lite.obj
 0001:000603a0       ?SkipMessage@FieldSkipper@internal@protobuf@google@@UAE_NPAVCodedInputStream@io@34@@Z 100613a0 f   libprotobuf-lite:wire_format_lite.obj
 0001:000603c0       ?SkipMessage@WireFormatLite@internal@protobuf@google@@SA_NPAVCodedInputStream@io@34@@Z 100613c0 f   libprotobuf-lite:wire_format_lite.obj
 0001:00060420       ?SkipUnknownEnum@FieldSkipper@internal@protobuf@google@@UAEXHH@Z 10061420 f   libprotobuf-lite:wire_format_lite.obj
 0001:00060430       ?WriteBool@WireFormatLite@internal@protobuf@google@@SAXH_NPAVCodedOutputStream@io@34@@Z 10061430 f   libprotobuf-lite:wire_format_lite.obj
 0001:00060460       ?WriteBoolNoTag@WireFormatLite@internal@protobuf@google@@SAX_NPAVCodedOutputStream@io@34@@Z 10061460 f i libprotobuf-lite:wire_format_lite.obj
 0001:00060480       ?WriteBytes@WireFormatLite@internal@protobuf@google@@SAXHABV?$basic_string@DU?$char_traits@D@std@@V?$allocator@D@2@@std@@PAVCodedOutputStream@io@34@@Z 10061480 f   libprotobuf-lite:wire_format_lite.obj
 0001:00060560       ?WriteDouble@WireFormatLite@internal@protobuf@google@@SAXHNPAVCodedOutputStream@io@34@@Z 10061560 f   libprotobuf-lite:wire_format_lite.obj
 0001:00060590       ?WriteDoubleNoTag@WireFormatLite@internal@protobuf@google@@SAXNPAVCodedOutputStream@io@34@@Z 10061590 f i libprotobuf-lite:wire_format_lite.obj
 0001:000605b0       ?WriteEnum@WireFormatLite@internal@protobuf@google@@SAXHHPAVCodedOutputStream@io@34@@Z 100615b0 f   libprotobuf-lite:wire_format_lite.obj
 0001:000605f0       ?WriteEnumNoTag@WireFormatLite@internal@protobuf@google@@SAXHPAVCodedOutputStream@io@34@@Z 100615f0 f i libprotobuf-lite:wire_format_lite.obj
 0001:00060610       ?WriteFixed32@WireFormatLite@internal@protobuf@google@@SAXHIPAVCodedOutputStream@io@34@@Z 10061610 f   libprotobuf-lite:wire_format_lite.obj
 0001:00060640       ?WriteFixed32NoTag@WireFormatLite@internal@protobuf@google@@SAXIPAVCodedOutputStream@io@34@@Z 10061640 f i libprotobuf-lite:wire_format_lite.obj
 0001:00060650       ?WriteFixed64@WireFormatLite@internal@protobuf@google@@SAXH_KPAVCodedOutputStream@io@34@@Z 10061650 f   libprotobuf-lite:wire_format_lite.obj
 0001:00060680       ?WriteFixed64NoTag@WireFormatLite@internal@protobuf@google@@SAX_KPAVCodedOutputStream@io@34@@Z 10061680 f i libprotobuf-lite:wire_format_lite.obj
 0001:000606a0       ?WriteFloat@WireFormatLite@internal@protobuf@google@@SAXHMPAVCodedOutputStream@io@34@@Z 100616a0 f   libprotobuf-lite:wire_format_lite.obj
 0001:000606d0       ?WriteFloatNoTag@WireFormatLite@internal@protobuf@google@@SAXMPAVCodedOutputStream@io@34@@Z 100616d0 f i libprotobuf-lite:wire_format_lite.obj
 0001:000606f0       ?WriteGroup@WireFormatLite@internal@protobuf@google@@SAXHABVMessageLite@34@PAVCodedOutputStream@io@34@@Z 100616f0 f   libprotobuf-lite:wire_format_lite.obj
 0001:00060730       ?WriteGroupMaybeToArray@WireFormatLite@internal@protobuf@google@@SAXHABVMessageLite@34@PAVCodedOutputStream@io@34@@Z 10061730 f   libprotobuf-lite:wire_format_lite.obj
 0001:000607c0       ?WriteInt32@WireFormatLite@internal@protobuf@google@@SAXHHPAVCodedOutputStream@io@34@@Z 100617c0 f   libprotobuf-lite:wire_format_lite.obj
 0001:00060800       ?WriteInt32NoTag@WireFormatLite@internal@protobuf@google@@SAXHPAVCodedOutputStream@io@34@@Z 10061800 f i libprotobuf-lite:wire_format_lite.obj
 0001:00060820       ?WriteInt64@WireFormatLite@internal@protobuf@google@@SAXH_JPAVCodedOutputStream@io@34@@Z 10061820 f   libprotobuf-lite:wire_format_lite.obj
 0001:00060850       ?WriteInt64NoTag@WireFormatLite@internal@protobuf@google@@SAX_JPAVCodedOutputStream@io@34@@Z 10061850 f i libprotobuf-lite:wire_format_lite.obj
 0001:00060870       ?WriteMessage@WireFormatLite@internal@protobuf@google@@SAXHABVMessageLite@34@PAVCodedOutputStream@io@34@@Z 10061870 f   libprotobuf-lite:wire_format_lite.obj
 0001:000608b0       ?WriteMessageMaybeToArray@WireFormatLite@internal@protobuf@google@@SAXHABVMessageLite@34@PAVCodedOutputStream@io@34@@Z 100618b0 f   libprotobuf-lite:wire_format_lite.obj
 0001:00060920       ?WriteSFixed32@WireFormatLite@internal@protobuf@google@@SAXHHPAVCodedOutputStream@io@34@@Z 10061920 f   libprotobuf-lite:wire_format_lite.obj
 0001:00060950       ?WriteSFixed32NoTag@WireFormatLite@internal@protobuf@google@@SAXHPAVCodedOutputStream@io@34@@Z 10061950 f i libprotobuf-lite:wire_format_lite.obj
 0001:00060960       ?WriteSFixed64@WireFormatLite@internal@protobuf@google@@SAXH_JPAVCodedOutputStream@io@34@@Z 10061960 f   libprotobuf-lite:wire_format_lite.obj
 0001:00060990       ?WriteSFixed64NoTag@WireFormatLite@internal@protobuf@google@@SAX_JPAVCodedOutputStream@io@34@@Z 10061990 f i libprotobuf-lite:wire_format_lite.obj
 0001:000609b0       ?WriteSInt32@WireFormatLite@internal@protobuf@google@@SAXHHPAVCodedOutputStream@io@34@@Z 100619b0 f   libprotobuf-lite:wire_format_lite.obj
 0001:000609e0       ?WriteSInt32NoTag@WireFormatLite@internal@protobuf@google@@SAXHPAVCodedOutputStream@io@34@@Z 100619e0 f i libprotobuf-lite:wire_format_lite.obj
 0001:00060a00       ?WriteSInt64@WireFormatLite@internal@protobuf@google@@SAXH_JPAVCodedOutputStream@io@34@@Z 10061a00 f   libprotobuf-lite:wire_format_lite.obj
 0001:00060a40       ?WriteSInt64NoTag@WireFormatLite@internal@protobuf@google@@SAX_JPAVCodedOutputStream@io@34@@Z 10061a40 f i libprotobuf-lite:wire_format_lite.obj
 0001:00060a70       ?WriteString@CodedOutputStream@io@protobuf@google@@QAEXABV?$basic_string@DU?$char_traits@D@std@@V?$allocator@D@2@@std@@@Z 10061a70 f i libprotobuf-lite:wire_format_lite.obj
 0001:00060a90       ?WriteString@WireFormatLite@internal@protobuf@google@@SAXHABV?$basic_string@DU?$char_traits@D@std@@V?$allocator@D@2@@std@@PAVCodedOutputStream@io@34@@Z 10061a90 f   libprotobuf-lite:wire_format_lite.obj
 0001:00060b70       ?WriteTag@CodedOutputStream@io@protobuf@google@@QAEXI@Z 10061b70 f i libprotobuf-lite:wire_format_lite.obj
 0001:00060b80       ?WriteTag@WireFormatLite@internal@protobuf@google@@SAXHW4WireType@1234@PAVCodedOutputStream@io@34@@Z 10061b80 f i libprotobuf-lite:wire_format_lite.obj
 0001:00060ba0       ?WriteUInt32@WireFormatLite@internal@protobuf@google@@SAXHIPAVCodedOutputStream@io@34@@Z 10061ba0 f   libprotobuf-lite:wire_format_lite.obj
 0001:00060bc0       ?WriteUInt32NoTag@WireFormatLite@internal@protobuf@google@@SAXIPAVCodedOutputStream@io@34@@Z 10061bc0 f i libprotobuf-lite:wire_format_lite.obj
 0001:00060bd0       ?WriteUInt64@WireFormatLite@internal@protobuf@google@@SAXH_KPAVCodedOutputStream@io@34@@Z 10061bd0 f   libprotobuf-lite:wire_format_lite.obj
 0001:00060c00       ?WriteUInt64NoTag@WireFormatLite@internal@protobuf@google@@SAX_KPAVCodedOutputStream@io@34@@Z 10061c00 f i libprotobuf-lite:wire_format_lite.obj
 0001:00060c20       ?WriteVarint32SignExtended@CodedOutputStream@io@protobuf@google@@QAEXH@Z 10061c20 f i libprotobuf-lite:wire_format_lite.obj
 0001:00060c40       ?ZigZagEncode32@WireFormatLite@internal@protobuf@google@@SAIH@Z 10061c40 f i libprotobuf-lite:wire_format_lite.obj
 0001:00060c60       ?ZigZagEncode64@WireFormatLite@internal@protobuf@google@@SA_K_J@Z 10061c60 f i libprotobuf-lite:wire_format_lite.obj
 0001:00060c90       ??$implicit_cast@HI@internal@protobuf@google@@YAHABI@Z 10061c90 f i libprotobuf-lite:zero_copy_stream_impl_lite.obj
 0001:00060ca0       ??0?$scoped_array@E@internal@protobuf@google@@QAE@PAE@Z 10061ca0 f i libprotobuf-lite:zero_copy_stream_impl_lite.obj
 0001:00060cb0       ??0ArrayInputStream@io@protobuf@google@@QAE@PBXHH@Z 10061cb0 f   libprotobuf-lite:zero_copy_stream_impl_lite.obj
 0001:00060cf0       ??0ArrayOutputStream@io@protobuf@google@@QAE@PAXHH@Z 10061cf0 f   libprotobuf-lite:zero_copy_stream_impl_lite.obj
 0001:00060d30       ??0CopyingInputStreamAdaptor@io@protobuf@google@@QAE@PAVCopyingInputStream@123@H@Z 10061d30 f   libprotobuf-lite:zero_copy_stream_impl_lite.obj
 0001:00060d80       ??0CopyingOutputStreamAdaptor@io@protobuf@google@@QAE@PAVCopyingOutputStream@123@H@Z 10061d80 f   libprotobuf-lite:zero_copy_stream_impl_lite.obj
 0001:00060dd0       ??0StringOutputStream@io@protobuf@google@@QAE@PAV?$basic_string@DU?$char_traits@D@std@@V?$allocator@D@2@@std@@@Z 10061dd0 f   libprotobuf-lite:zero_copy_stream_impl_lite.obj
 0001:00060df0       ??0ZeroCopyInputStream@io@protobuf@google@@QAE@XZ 10061df0 f i libprotobuf-lite:zero_copy_stream_impl_lite.obj
 0001:00060e00       ??0ZeroCopyOutputStream@io@protobuf@google@@QAE@XZ 10061e00 f i libprotobuf-lite:zero_copy_stream_impl_lite.obj
 0001:00060e10       ??1?$scoped_array@E@internal@protobuf@google@@QAE@XZ 10061e10 f i libprotobuf-lite:zero_copy_stream_impl_lite.obj
 0001:00060e20       ??1ArrayInputStream@io@protobuf@google@@UAE@XZ 10061e20 f   libprotobuf-lite:zero_copy_stream_impl_lite.obj
 0001:00060e30       ??1ArrayOutputStream@io@protobuf@google@@UAE@XZ 10061e30 f   libprotobuf-lite:zero_copy_stream_impl_lite.obj
 0001:00060e40       ??1CopyingInputStream@io@protobuf@google@@UAE@XZ 10061e40 f   libprotobuf-lite:zero_copy_stream_impl_lite.obj
 0001:00060e50       ??1CopyingInputStreamAdaptor@io@protobuf@google@@UAE@XZ 10061e50 f   libprotobuf-lite:zero_copy_stream_impl_lite.obj
 0001:00060ed0       ??1CopyingOutputStream@io@protobuf@google@@UAE@XZ 10061ed0 f   libprotobuf-lite:zero_copy_stream_impl_lite.obj
 0001:00060ee0       ??1CopyingOutputStreamAdaptor@io@protobuf@google@@UAE@XZ 10061ee0 f   libprotobuf-lite:zero_copy_stream_impl_lite.obj
 0001:00060f60       ??1StringOutputStream@io@protobuf@google@@UAE@XZ 10061f60 f   libprotobuf-lite:zero_copy_stream_impl_lite.obj
 0001:00060f70       ??8?$scoped_array@E@internal@protobuf@google@@QBE_NPAE@Z 10061f70 f i libprotobuf-lite:zero_copy_stream_impl_lite.obj
 0001:00060f90       ??_EArrayInputStream@io@protobuf@google@@UAEPAXI@Z 10061f90 f i libprotobuf-lite:zero_copy_stream_impl_lite.obj
 0001:00060f90       ??_GArrayInputStream@io@protobuf@google@@UAEPAXI@Z 10061f90 f i libprotobuf-lite:zero_copy_stream_impl_lite.obj
 0001:00060fc0       ??_GArrayOutputStream@io@protobuf@google@@UAEPAXI@Z 10061fc0 f i libprotobuf-lite:zero_copy_stream_impl_lite.obj
 0001:00060fc0       ??_EArrayOutputStream@io@protobuf@google@@UAEPAXI@Z 10061fc0 f i libprotobuf-lite:zero_copy_stream_impl_lite.obj
 0001:00060ff0       ??_ECopyingInputStream@io@protobuf@google@@UAEPAXI@Z 10061ff0 f i libprotobuf-lite:zero_copy_stream_impl_lite.obj
 0001:00060ff0       ??_GCopyingInputStream@io@protobuf@google@@UAEPAXI@Z 10061ff0 f i libprotobuf-lite:zero_copy_stream_impl_lite.obj
 0001:00061020       ??_GCopyingInputStreamAdaptor@io@protobuf@google@@UAEPAXI@Z 10062020 f i libprotobuf-lite:zero_copy_stream_impl_lite.obj
 0001:00061020       ??_ECopyingInputStreamAdaptor@io@protobuf@google@@UAEPAXI@Z 10062020 f i libprotobuf-lite:zero_copy_stream_impl_lite.obj
 0001:000610b0       ??_GCopyingOutputStream@io@protobuf@google@@UAEPAXI@Z 100620b0 f i libprotobuf-lite:zero_copy_stream_impl_lite.obj
 0001:000610b0       ??_ECopyingOutputStream@io@protobuf@google@@UAEPAXI@Z 100620b0 f i libprotobuf-lite:zero_copy_stream_impl_lite.obj
 0001:000610e0       ??_GCopyingOutputStreamAdaptor@io@protobuf@google@@UAEPAXI@Z 100620e0 f i libprotobuf-lite:zero_copy_stream_impl_lite.obj
 0001:000610e0       ??_ECopyingOutputStreamAdaptor@io@protobuf@google@@UAEPAXI@Z 100620e0 f i libprotobuf-lite:zero_copy_stream_impl_lite.obj
 0001:00061170       ??_GStringOutputStream@io@protobuf@google@@UAEPAXI@Z 10062170 f i libprotobuf-lite:zero_copy_stream_impl_lite.obj
 0001:00061170       ??_EStringOutputStream@io@protobuf@google@@UAEPAXI@Z 10062170 f i libprotobuf-lite:zero_copy_stream_impl_lite.obj
 0001:000611a0       ??_EZeroCopyInputStream@io@protobuf@google@@UAEPAXI@Z 100621a0 f i libprotobuf-lite:zero_copy_stream_impl_lite.obj
 0001:000611a0       ??_GZeroCopyInputStream@io@protobuf@google@@UAEPAXI@Z 100621a0 f i libprotobuf-lite:zero_copy_stream_impl_lite.obj
 0001:000611d0       ??_GZeroCopyOutputStream@io@protobuf@google@@UAEPAXI@Z 100621d0 f i libprotobuf-lite:zero_copy_stream_impl_lite.obj
 0001:000611d0       ??_EZeroCopyOutputStream@io@protobuf@google@@UAEPAXI@Z 100621d0 f i libprotobuf-lite:zero_copy_stream_impl_lite.obj
 0001:00061200       ?AllocateBufferIfNeeded@CopyingInputStreamAdaptor@io@protobuf@google@@AAEXXZ 10062200 f   libprotobuf-lite:zero_copy_stream_impl_lite.obj
 0001:00061230       ?AllocateBufferIfNeeded@CopyingOutputStreamAdaptor@io@protobuf@google@@AAEXXZ 10062230 f   libprotobuf-lite:zero_copy_stream_impl_lite.obj
 0001:00061260       ?BackUp@ArrayInputStream@io@protobuf@google@@UAEXH@Z 10062260 f   libprotobuf-lite:zero_copy_stream_impl_lite.obj
 0001:000613c0       ?BackUp@ArrayOutputStream@io@protobuf@google@@UAEXH@Z 100623c0 f   libprotobuf-lite:zero_copy_stream_impl_lite.obj
 0001:00061530       ?BackUp@CopyingInputStreamAdaptor@io@protobuf@google@@UAEXH@Z 10062530 f   libprotobuf-lite:zero_copy_stream_impl_lite.obj
 0001:000616b0       ?BackUp@CopyingOutputStreamAdaptor@io@protobuf@google@@UAEXH@Z 100626b0 f   libprotobuf-lite:zero_copy_stream_impl_lite.obj
 0001:00061820       ?BackUp@StringOutputStream@io@protobuf@google@@UAEXH@Z 10062820 f   libprotobuf-lite:zero_copy_stream_impl_lite.obj
 0001:00061950       ?ByteCount@ArrayInputStream@io@protobuf@google@@UBE_JXZ 10062950 f   libprotobuf-lite:zero_copy_stream_impl_lite.obj
 0001:00061960       ?ByteCount@ArrayOutputStream@io@protobuf@google@@UBE_JXZ 10062960 f   libprotobuf-lite:zero_copy_stream_impl_lite.obj
 0001:00061970       ?ByteCount@CopyingInputStreamAdaptor@io@protobuf@google@@UBE_JXZ 10062970 f   libprotobuf-lite:zero_copy_stream_impl_lite.obj
 0001:00061990       ?ByteCount@CopyingOutputStreamAdaptor@io@protobuf@google@@UBE_JXZ 10062990 f   libprotobuf-lite:zero_copy_stream_impl_lite.obj
 0001:000619a0       ?ByteCount@StringOutputStream@io@protobuf@google@@UBE_JXZ 100629a0 f   libprotobuf-lite:zero_copy_stream_impl_lite.obj
 0001:000619b0       ?Flush@CopyingOutputStreamAdaptor@io@protobuf@google@@QAE_NXZ 100629b0 f   libprotobuf-lite:zero_copy_stream_impl_lite.obj
 0001:000619c0       ?FreeBuffer@CopyingInputStreamAdaptor@io@protobuf@google@@AAEXXZ 100629c0 f   libprotobuf-lite:zero_copy_stream_impl_lite.obj
 0001:00061a80       ?FreeBuffer@CopyingOutputStreamAdaptor@io@protobuf@google@@AAEXXZ 10062a80 f   libprotobuf-lite:zero_copy_stream_impl_lite.obj
 0001:00061ab0       ?Next@ArrayInputStream@io@protobuf@google@@UAE_NPAPBXPAH@Z 10062ab0 f   libprotobuf-lite:zero_copy_stream_impl_lite.obj
 0001:00061b10       ?Next@ArrayOutputStream@io@protobuf@google@@UAE_NPAPAXPAH@Z 10062b10 f   libprotobuf-lite:zero_copy_stream_impl_lite.obj
 0001:00061b70       ?Next@CopyingInputStreamAdaptor@io@protobuf@google@@UAE_NPAPBXPAH@Z 10062b70 f   libprotobuf-lite:zero_copy_stream_impl_lite.obj
 0001:00061c20       ?Next@CopyingOutputStreamAdaptor@io@protobuf@google@@UAE_NPAPAXPAH@Z 10062c20 f   libprotobuf-lite:zero_copy_stream_impl_lite.obj
 0001:00061c90       ?Next@StringOutputStream@io@protobuf@google@@UAE_NPAPAXPAH@Z 10062c90 f   libprotobuf-lite:zero_copy_stream_impl_lite.obj
 0001:00061d30       ?Skip@ArrayInputStream@io@protobuf@google@@UAE_NH@Z 10062d30 f   libprotobuf-lite:zero_copy_stream_impl_lite.obj
 0001:00061e00       ?Skip@CopyingInputStream@io@protobuf@google@@UAEHH@Z 10062e00 f   libprotobuf-lite:zero_copy_stream_impl_lite.obj
 0001:00061e80       ?Skip@CopyingInputStreamAdaptor@io@protobuf@google@@UAE_NH@Z 10062e80 f   libprotobuf-lite:zero_copy_stream_impl_lite.obj
 0001:00061f60       ?WriteBuffer@CopyingOutputStreamAdaptor@io@protobuf@google@@AAE_NXZ 10062f60 f   libprotobuf-lite:zero_copy_stream_impl_lite.obj
 0001:00061fc0       ?capacity@?$basic_string@DU?$char_traits@D@std@@V?$allocator@D@2@@std@@QBEIXZ 10062fc0 f i libprotobuf-lite:zero_copy_stream_impl_lite.obj
 0001:00061fd0       ?get@?$scoped_array@E@internal@protobuf@google@@QBEPAEXZ 10062fd0 f i libprotobuf-lite:zero_copy_stream_impl_lite.obj
 0001:00061fe0       ?reset@?$scoped_array@E@internal@protobuf@google@@QAEXPAE@Z 10062fe0 f i libprotobuf-lite:zero_copy_stream_impl_lite.obj
 0001:00062010       ?Acquire_CompareAndSwap@internal@protobuf@google@@YAHPCHHH@Z 10063010 f i libprotobuf-lite:once.obj
 0001:00062020       ?GoogleOnceInitImpl@protobuf@google@@YAXPAHPAVClosure@12@@Z 10063020 f   libprotobuf-lite:once.obj
 0001:00062070       ?Release_Store@internal@protobuf@google@@YAXPCHH@Z 10063070 f i libprotobuf-lite:once.obj
 0001:00062080       ?SchedYield@?A0x504d99c0@protobuf@google@@YAXXZ 10063080 f   libprotobuf-lite:once.obj
 0001:00062090       ??1ZeroCopyInputStream@io@protobuf@google@@UAE@XZ 10063090 f   libprotobuf-lite:zero_copy_stream.obj
 0001:000620a0       ??1ZeroCopyOutputStream@io@protobuf@google@@UAE@XZ 100630a0 f   libprotobuf-lite:zero_copy_stream.obj
 0001:000620b0       ?Barrier_AtomicIncrement@internal@protobuf@google@@YAHPCHH@Z 100630b0 f   libprotobuf-lite:atomicops_internals_x86_msvc.obj
 0001:000620d0       ?NoBarrier_AtomicExchange@internal@protobuf@google@@YAHPCHH@Z 100630d0 f   libprotobuf-lite:atomicops_internals_x86_msvc.obj
 0001:000620f0       ?NoBarrier_CompareAndSwap@internal@protobuf@google@@YAHPCHHH@Z 100630f0 f   libprotobuf-lite:atomicops_internals_x86_msvc.obj
 0001:00062110       _cbc_start                 10063110 f   tomcrypt:cbc_start.obj
 0001:00062180       _cbc_decrypt               10063180 f   tomcrypt:cbc_decrypt.obj
 0001:00062300       _cbc_done                  10063300 f   tomcrypt:cbc_done.obj
 0001:00062340       _ctr_start                 10063340 f   tomcrypt:ctr_start.obj
 0001:00062470       _ctr_decrypt               10063470 f   tomcrypt:ctr_decrypt.obj
 0001:00062480       _ctr_done                  10063480 f   tomcrypt:ctr_done.obj
 0001:000624c0       _find_cipher               100634c0 f   tomcrypt:crypt_find_cipher.obj
 0001:00062520       _register_cipher           10063520 f   tomcrypt:crypt_register_cipher.obj
 0001:000641a0       _sha256_init               100651a0 f   tomcrypt:sha256.obj
 0001:000641f0       _sha256_process            100651f0 f   tomcrypt:sha256.obj
 0001:000642a0       _sha256_done               100652a0 f   tomcrypt:sha256.obj
 0001:00064450       _sha256_test               10065450 f   tomcrypt:sha256.obj
 0001:00064520       _sha224_init               10065520 f   tomcrypt:sha256.obj
 0001:00064570       _sha224_done               10065570 f   tomcrypt:sha256.obj
 0001:000645c0       _sha224_test               100655c0 f   tomcrypt:sha256.obj
 0001:000648e0       _ecc_import_ex             100658e0 f   tomcrypt:ecc_import.obj
 0001:00064ab0       _ecc_import                10065ab0 f   tomcrypt:ecc_import.obj
 0001:00064ad0       _ecc_verify_hash           10065ad0 f   tomcrypt:ecc_verify_hash.obj
 0001:00064ef0       _rijndael_setup            10065ef0 f   tomcrypt:aes.obj
 0001:000657b0       _rijndael_ecb_encrypt      100667b0 f   tomcrypt:aes.obj
 0001:00065df0       _rijndael_ecb_decrypt      10066df0 f   tomcrypt:aes.obj
 0001:000664b0       _rijndael_test             100674b0 f   tomcrypt:aes.obj
 0001:00066750       _rijndael_done             10067750 f   tomcrypt:aes.obj
 0001:00066780       _rijndael_keysize          10067780 f   tomcrypt:aes.obj
 0001:00066e40       _cipher_is_valid           10067e40 f   tomcrypt:crypt_cipher_is_valid.obj
 0001:00066e70       _ctr_encrypt               10067e70 f   tomcrypt:ctr_encrypt.obj
 0001:00067010       _ltc_init_multi            10068010 f   tomcrypt:multi.obj
 0001:00067070       _ltc_deinit_multi          10068070 f   tomcrypt:multi.obj
 0001:000670a0       _der_decode_sequence_multi 100680a0 f   tomcrypt:der_decode_sequence_multi.obj
 0001:00067180       _ltc_ecc_new_point         10068180 f   tomcrypt:ltc_ecc_points.obj
 0001:000671c0       _ltc_ecc_del_point         100681c0 f   tomcrypt:ltc_ecc_points.obj
 0001:000671f0       _ltc_ecc_is_valid_idx      100681f0 f   tomcrypt:ltc_ecc_is_valid_idx.obj
 0001:00067220       _crypt_argchk              10068220 f   tomcrypt:crypt_argchk.obj
 0001:00067230       _zeromem                   10068230 f   tomcrypt:zeromem.obj
 0001:00067250       _rsa_exptmod               10068250 f   tomcrypt:rsa_exptmod.obj
 0001:00067470       _rsa_make_key              10068470 f   tomcrypt:rsa_make_key.obj
 0001:00067800       _ltc_ecc_mul2add           10068800 f   tomcrypt:ltc_ecc_mul2add.obj
 0001:00067d50       _ltc_ecc_map               10068d50 f   tomcrypt:ltc_ecc_map.obj
 0001:00067ec0       _ltc_ecc_projective_dbl_point 10068ec0 f   tomcrypt:ltc_ecc_projective_dbl_point.obj
 0001:00068430       _ltc_ecc_projective_add_point 10069430 f   tomcrypt:ltc_ecc_projective_add_point.obj
 0001:00068cc0       _ltc_ecc_mulmod            10069cc0 f   tomcrypt:ltc_ecc_mulmod.obj
 0001:00069200       _der_decode_sequence_ex    1006a200 f   tomcrypt:der_decode_sequence_ex.obj
 0001:00069780       _rand_prime                1006a780 f   tomcrypt:rand_prime.obj
 0001:000698a0       _prng_is_valid             1006a8a0 f   tomcrypt:crypt_prng_is_valid.obj
 0001:000698c0       _der_decode_choice         1006a8c0 f   tomcrypt:der_decode_choice.obj
 0001:00069c80       _der_length_sequence       1006ac80 f   tomcrypt:der_length_sequence.obj
 0001:00069eb0       _der_decode_utctime        1006aeb0 f   tomcrypt:der_decode_utctime.obj
 0001:0006a120       _der_utf8_charsize         1006b120 f   tomcrypt:der_length_utf8_string.obj
 0001:0006a160       _der_length_utf8_string    1006b160 f   tomcrypt:der_length_utf8_string.obj
 0001:0006a210       _der_decode_utf8_string    1006b210 f   tomcrypt:der_decode_utf8_string.obj
 0001:0006a360       _der_printable_char_encode 1006b360 f   tomcrypt:der_length_printable_string.obj
 0001:0006a390       _der_printable_value_decode 1006b390 f   tomcrypt:der_length_printable_string.obj
 0001:0006a3c0       _der_length_printable_string 1006b3c0 f   tomcrypt:der_length_printable_string.obj
 0001:0006a450       _der_decode_printable_string 1006b450 f   tomcrypt:der_decode_printable_string.obj
 0001:0006a520       _der_ia5_char_encode       1006b520 f   tomcrypt:der_length_ia5_string.obj
 0001:0006a550       _der_ia5_value_decode      1006b550 f   tomcrypt:der_length_ia5_string.obj
 0001:0006a580       _der_length_ia5_string     1006b580 f   tomcrypt:der_length_ia5_string.obj
 0001:0006a610       _der_decode_ia5_string     1006b610 f   tomcrypt:der_decode_ia5_string.obj
 0001:0006a6e0       _der_object_identifier_bits 1006b6e0 f   tomcrypt:der_length_object_identifier.obj
 0001:0006a700       _der_length_object_identifier 1006b700 f   tomcrypt:der_length_object_identifier.obj
 0001:0006a7f0       _der_decode_object_identifier 1006b7f0 f   tomcrypt:der_decode_object_identifier.obj
 0001:0006a900       _der_length_octet_string   1006b900 f   tomcrypt:der_length_octet_string.obj
 0001:0006a960       _der_decode_octet_string   1006b960 f   tomcrypt:der_decode_octet_string.obj
 0001:0006aa10       _der_decode_raw_bit_string 1006ba10 f   tomcrypt:der_decode_raw_bit_string.obj
 0001:0006ab10       _der_length_bit_string     1006bb10 f   tomcrypt:der_length_bit_string.obj
 0001:0006ab70       _der_decode_bit_string     1006bb70 f   tomcrypt:der_decode_bit_string.obj
 0001:0006ac60       _der_length_short_integer  1006bc60 f   tomcrypt:der_length_short_integer.obj
 0001:0006acb0       _der_decode_short_integer  1006bcb0 f   tomcrypt:der_decode_short_integer.obj
 0001:0006ad00       _der_length_integer        1006bd00 f   tomcrypt:der_length_integer.obj
 0001:0006add0       _der_decode_integer        1006bdd0 f   tomcrypt:der_decode_integer.obj
 0001:0006af00       _der_length_boolean        1006bf00 f   tomcrypt:der_length_boolean.obj
 0001:0006af10       _der_decode_boolean        1006bf10 f   tomcrypt:der_decode_boolean.obj
 0001:0006af50       _der_length_utctime        1006bf50 f   tomcrypt:der_length_utctime.obj
 0001:0006af80       _mp_init                   1006bf80 f   tommath:bn_mp_init.obj
 0001:0006afd0       _mp_clear                  1006bfd0 f   tommath:bn_mp_clear.obj
 0001:0006b020       _mp_neg                    1006c020 f   tommath:bn_mp_neg.obj
 0001:0006b060       _mp_copy                   1006c060 f   tommath:bn_mp_copy.obj
 0001:0006b0d0       _mp_set_int                1006c0d0 f   tommath:bn_mp_set_int.obj
 0001:0006b120       _mp_get_int                1006c120 f   tommath:bn_mp_get_int.obj
 0001:0006b160       _mp_cmp                    1006c160 f   tommath:bn_mp_cmp.obj
 0001:0006b1a0       _mp_cmp_d                  1006c1a0 f   tommath:bn_mp_cmp_d.obj
